LX51 LINKER/LOCATER V4.64.0.0                                                           01/11/2017  18:17:27  PAGE 1


LX51 LINKER/LOCATER V4.64.0.0, INVOKED BY:
C:\PROGRAM FILES (X86)\CYPRESS\PSOC CREATOR\3.3\PSOC CREATOR\IMPORT\KEIL\PK51\9.51\C51\BIN\LX51.EXE .\DP8051_Keil_951\Re
>> lease\command_processing.obj, .\DP8051_Keil_951\Release\globals.obj, .\DP8051_Keil_951\Release\interruptions.obj, .\D
>> P8051_Keil_951\Release\main.obj, .\DP8051_Keil_951\Release\utils.obj, .\DP8051_Keil_951\Release\qbmove_adv_firmware.l
>> ib, C:\Program Files (x86)\Cypress\PSoC Creator\3.3\PSoC Creator\psoc\content\cycomponentlibrary\CyComponentLibrary.c
>> ylib\DP8051\DP8051_Keil_951\Release\CyComponentLibrary.lib TO .\DP8051_Keil_951\Release\qbmove_adv_firmware.omf CODE 
>> RU RC (10) DW (16) WL (2) PR (.\DP8051_Keil_951\Release/qbmove_adv_firmware.map) IX CL (XDATA (X:0X0000-X:0X1FFF)) CL
>>  (CODE (C:0X2600-C:0XFFBF)) CL (CONST (C:0X2600-C:0XFFBF))


CPU MODE:     8051 MODE
MEMORY MODEL: LARGE WITH FLOATING POINT ARITHMETIC


INPUT MODULES INCLUDED:
  .\DP8051_Keil_951\Release\command_processing.obj (COMMAND_PROCESSING)
         COMMENT TYPE 0: C51 V9.51
  .\DP8051_Keil_951\Release\globals.obj (GLOBALS)
         COMMENT TYPE 0: C51 V9.51
  .\DP8051_Keil_951\Release\interruptions.obj (INTERRUPTIONS)
         COMMENT TYPE 0: C51 V9.51
  .\DP8051_Keil_951\Release\main.obj (MAIN)
         COMMENT TYPE 0: C51 V9.51
  .\DP8051_Keil_951\Release\utils.obj (UTILS)
         COMMENT TYPE 0: C51 V9.51
  .\DP8051_Keil_951\Release\qbmove_adv_firmware.lib (ISR_RS485_RX)
         COMMENT TYPE 0: C51 V9.51
  .\DP8051_Keil_951\Release\qbmove_adv_firmware.lib (CLOCK_UART)
         COMMENT TYPE 0: C51 V9.51
  .\DP8051_Keil_951\Release\qbmove_adv_firmware.lib (PWM_MOTORS)
         COMMENT TYPE 0: C51 V9.51
  .\DP8051_Keil_951\Release\qbmove_adv_firmware.lib (WATCHDOG_REFRESH)
         COMMENT TYPE 0: C51 V9.51
  .\DP8051_Keil_951\Release\qbmove_adv_firmware.lib (WATCHDOG_ENABLER)
         COMMENT TYPE 0: C51 V9.51
  .\DP8051_Keil_951\Release\qbmove_adv_firmware.lib (WATCHDOG_COUNTER)
         COMMENT TYPE 0: C51 V9.51
  .\DP8051_Keil_951\Release\qbmove_adv_firmware.lib (ISR_WATCHDOG)
         COMMENT TYPE 0: C51 V9.51
  .\DP8051_Keil_951\Release\qbmove_adv_firmware.lib (SHIFTREG_ENC_3)
         COMMENT TYPE 0: C51 V9.51
  .\DP8051_Keil_951\Release\qbmove_adv_firmware.lib (FF_STATUS)
         COMMENT TYPE 0: C51 V9.51
  .\DP8051_Keil_951\Release\qbmove_adv_firmware.lib (MOTOR_DIR)
         COMMENT TYPE 0: C51 V9.51
  .\DP8051_Keil_951\Release\qbmove_adv_firmware.lib (RESET_COUNTERS)
         COMMENT TYPE 0: C51 V9.51
  .\DP8051_Keil_951\Release\qbmove_adv_firmware.lib (COUNTER_ENC)
         COMMENT TYPE 0: C51 V9.51
  .\DP8051_Keil_951\Release\qbmove_adv_firmware.lib (SHIFTREG_ENC_1)
         COMMENT TYPE 0: C51 V9.51
  .\DP8051_Keil_951\Release\qbmove_adv_firmware.lib (SHIFTREG_ENC_2)
         COMMENT TYPE 0: C51 V9.51
  .\DP8051_Keil_951\Release\qbmove_adv_firmware.lib (RESET_FF)
         COMMENT TYPE 0: C51 V9.51
  .\DP8051_Keil_951\Release\qbmove_adv_firmware.lib (PACER_TIMER)
         COMMENT TYPE 0: C51 V9.51
  .\DP8051_Keil_951\Release\qbmove_adv_firmware.lib (MY_TIMER)
         COMMENT TYPE 0: C51 V9.51
  .\DP8051_Keil_951\Release\qbmove_adv_firmware.lib (BOOTLOADABLE)
         COMMENT TYPE 0: C51 V9.51
  .\DP8051_Keil_951\Release\qbmove_adv_firmware.lib (MOTOR_ON_OFF)
         COMMENT TYPE 0: C51 V9.51
  .\DP8051_Keil_951\Release\qbmove_adv_firmware.lib (FTDI_ENABLE_REG)
         COMMENT TYPE 0: C51 V9.51
  .\DP8051_Keil_951\Release\qbmove_adv_firmware.lib (RS485_CTS)
LX51 LINKER/LOCATER V4.64.0.0                                                         01/11/2017  18:17:27  PAGE 2


         COMMENT TYPE 0: C51 V9.51
  .\DP8051_Keil_951\Release\qbmove_adv_firmware.lib (EEPROM)
         COMMENT TYPE 0: C51 V9.51
  .\DP8051_Keil_951\Release\qbmove_adv_firmware.lib (UART_RS485)
         COMMENT TYPE 0: C51 V9.51
  .\DP8051_Keil_951\Release\qbmove_adv_firmware.lib (ADC)
         COMMENT TYPE 0: C51 V9.51
  .\DP8051_Keil_951\Release\qbmove_adv_firmware.lib (ADC_STATUS)
         COMMENT TYPE 0: C51 V9.51
  .\DP8051_Keil_951\Release\qbmove_adv_firmware.lib (DMA_DMA)
         COMMENT TYPE 0: C51 V9.51
  .\DP8051_Keil_951\Release\qbmove_adv_firmware.lib (ADC_SOC)
         COMMENT TYPE 0: C51 V9.51
  .\DP8051_Keil_951\Release\qbmove_adv_firmware.lib (POWER_ON_LED_REG)
         COMMENT TYPE 0: C51 V9.51
  .\DP8051_Keil_951\Release\qbmove_adv_firmware.lib (SHIFTREG_ENC_4)
         COMMENT TYPE 0: C51 V9.51
  .\DP8051_Keil_951\Release\qbmove_adv_firmware.lib (SHIFTREG_ENC_5)
         COMMENT TYPE 0: C51 V9.51
  .\DP8051_Keil_951\Release\qbmove_adv_firmware.lib (SHIFTREG_ENC_6)
         COMMENT TYPE 0: C51 V9.51
  .\DP8051_Keil_951\Release\qbmove_adv_firmware.lib (CYDMAC)
         COMMENT TYPE 0: C51 V9.51
  .\DP8051_Keil_951\Release\qbmove_adv_firmware.lib (CYLIB)
         COMMENT TYPE 0: C51 V9.51
  .\DP8051_Keil_951\Release\qbmove_adv_firmware.lib (?C_STARTUP)
         COMMENT TYPE 0: AX51 V3.07d
  .\DP8051_Keil_951\Release\qbmove_adv_firmware.lib (CYFITTER_CFG)
         COMMENT TYPE 0: C51 V9.51
  .\DP8051_Keil_951\Release\qbmove_adv_firmware.lib (UART_RS485_INT)
         COMMENT TYPE 0: C51 V9.51
  .\DP8051_Keil_951\Release\qbmove_adv_firmware.lib (ADC_INT)
         COMMENT TYPE 0: C51 V9.51
  .\DP8051_Keil_951\Release\qbmove_adv_firmware.lib (ADC_AMUX)
         COMMENT TYPE 0: C51 V9.51
  .\DP8051_Keil_951\Release\qbmove_adv_firmware.lib (ADC_EXT_CP_CLK)
         COMMENT TYPE 0: C51 V9.51
  .\DP8051_Keil_951\Release\qbmove_adv_firmware.lib (ADC_THEACLK)
         COMMENT TYPE 0: C51 V9.51
  .\DP8051_Keil_951\Release\qbmove_adv_firmware.lib (CYBOOTASMKEIL)
         COMMENT TYPE 0: AX51 V3.07d
  .\DP8051_Keil_951\Release\qbmove_adv_firmware.lib (CYFLASH)
         COMMENT TYPE 0: C51 V9.51
  .\DP8051_Keil_951\Release\qbmove_adv_firmware.lib (CYMEM)
         COMMENT TYPE 0: AX51 V3.07d
  .\DP8051_Keil_951\Release\qbmove_adv_firmware.lib (CYPM)
         COMMENT TYPE 0: C51 V9.51
  .\DP8051_Keil_951\Release\qbmove_adv_firmware.lib (CYSPC)
         COMMENT TYPE 0: C51 V9.51
  C:\PROGRAM FILES (X86)\CYPRESS\PSOC CREATOR\3.3\PSOC CREATOR\IMPORT\KEIL\PK51\9.51\C51\LIB\C51FPL.LIB (?C?FPMUL)
         COMMENT TYPE 1: A51 / ASM51 Assembler
  C:\PROGRAM FILES (X86)\CYPRESS\PSOC CREATOR\3.3\PSOC CREATOR\IMPORT\KEIL\PK51\9.51\C51\LIB\C51FPL.LIB (?C?FPDIV)
         COMMENT TYPE 1: A51 / ASM51 Assembler
  C:\PROGRAM FILES (X86)\CYPRESS\PSOC CREATOR\3.3\PSOC CREATOR\IMPORT\KEIL\PK51\9.51\C51\LIB\C51FPL.LIB (?C?FPCMP)
         COMMENT TYPE 1: A51 / ASM51 Assembler
  C:\PROGRAM FILES (X86)\CYPRESS\PSOC CREATOR\3.3\PSOC CREATOR\IMPORT\KEIL\PK51\9.51\C51\LIB\C51FPL.LIB (?C?FCAST)
         COMMENT TYPE 1: A51 / ASM51 Assembler
  C:\PROGRAM FILES (X86)\CYPRESS\PSOC CREATOR\3.3\PSOC CREATOR\IMPORT\KEIL\PK51\9.51\C51\LIB\C51FPL.LIB (?C?CASTF)
         COMMENT TYPE 1: A51 / ASM51 Assembler
  C:\PROGRAM FILES (X86)\CYPRESS\PSOC CREATOR\3.3\PSOC CREATOR\IMPORT\KEIL\PK51\9.51\C51\LIB\C51FPL.LIB (PRINTF)
         COMMENT TYPE 1: A51 / ASM51 Assembler
  C:\PROGRAM FILES (X86)\CYPRESS\PSOC CREATOR\3.3\PSOC CREATOR\IMPORT\KEIL\PK51\9.51\C51\LIB\C51FPL.LIB (?C?FPGETOPN)
         COMMENT TYPE 1: A51 / ASM51 Assembler
  C:\PROGRAM FILES (X86)\CYPRESS\PSOC CREATOR\3.3\PSOC CREATOR\IMPORT\KEIL\PK51\9.51\C51\LIB\C51FPL.LIB (?C?FPROUND)
         COMMENT TYPE 1: A51 / ASM51 Assembler
LX51 LINKER/LOCATER V4.64.0.0                                                         01/11/2017  18:17:27  PAGE 3


  C:\PROGRAM FILES (X86)\CYPRESS\PSOC CREATOR\3.3\PSOC CREATOR\IMPORT\KEIL\PK51\9.51\C51\LIB\C51FPL.LIB (?C?FPCONVERT)
         COMMENT TYPE 1: A51 / ASM51 Assembler
  C:\PROGRAM FILES (X86)\CYPRESS\PSOC CREATOR\3.3\PSOC CREATOR\IMPORT\KEIL\PK51\9.51\C51\LIB\C51FPL.LIB (?C?FPADD)
         COMMENT TYPE 1: A51 / ASM51 Assembler
  C:\PROGRAM FILES (X86)\CYPRESS\PSOC CREATOR\3.3\PSOC CREATOR\IMPORT\KEIL\PK51\9.51\C51\LIB\C51FPL.LIB (?C?FTNPWR)
         COMMENT TYPE 1: A51 / ASM51 Assembler
  C:\PROGRAM FILES (X86)\CYPRESS\PSOC CREATOR\3.3\PSOC CREATOR\IMPORT\KEIL\PK51\9.51\C51\LIB\C51L.LIB (?C_INIT)
         COMMENT TYPE 1: A51 / ASM51 Assembler
  C:\PROGRAM FILES (X86)\CYPRESS\PSOC CREATOR\3.3\PSOC CREATOR\IMPORT\KEIL\PK51\9.51\C51\LIB\C51L.LIB (?C?CLDPTR)
         COMMENT TYPE 1: A51 / ASM51 Assembler
  C:\PROGRAM FILES (X86)\CYPRESS\PSOC CREATOR\3.3\PSOC CREATOR\IMPORT\KEIL\PK51\9.51\C51\LIB\C51L.LIB (?C?CLDOPTR)
         COMMENT TYPE 1: A51 / ASM51 Assembler
  C:\PROGRAM FILES (X86)\CYPRESS\PSOC CREATOR\3.3\PSOC CREATOR\IMPORT\KEIL\PK51\9.51\C51\LIB\C51L.LIB (?C?CSTPTR)
         COMMENT TYPE 1: A51 / ASM51 Assembler
  C:\PROGRAM FILES (X86)\CYPRESS\PSOC CREATOR\3.3\PSOC CREATOR\IMPORT\KEIL\PK51\9.51\C51\LIB\C51L.LIB (?C?ISTPTR)
         COMMENT TYPE 1: A51 / ASM51 Assembler
  C:\PROGRAM FILES (X86)\CYPRESS\PSOC CREATOR\3.3\PSOC CREATOR\IMPORT\KEIL\PK51\9.51\C51\LIB\C51L.LIB (?C?LMUL)
         COMMENT TYPE 1: A51 / ASM51 Assembler
  C:\PROGRAM FILES (X86)\CYPRESS\PSOC CREATOR\3.3\PSOC CREATOR\IMPORT\KEIL\PK51\9.51\C51\LIB\C51L.LIB (?C?ULDIV)
         COMMENT TYPE 1: A51 / ASM51 Assembler
  C:\PROGRAM FILES (X86)\CYPRESS\PSOC CREATOR\3.3\PSOC CREATOR\IMPORT\KEIL\PK51\9.51\C51\LIB\C51L.LIB (?C?SLDIV)
         COMMENT TYPE 1: A51 / ASM51 Assembler
  C:\PROGRAM FILES (X86)\CYPRESS\PSOC CREATOR\3.3\PSOC CREATOR\IMPORT\KEIL\PK51\9.51\C51\LIB\C51L.LIB (?C?LNOT)
         COMMENT TYPE 1: A51 / ASM51 Assembler
  C:\PROGRAM FILES (X86)\CYPRESS\PSOC CREATOR\3.3\PSOC CREATOR\IMPORT\KEIL\PK51\9.51\C51\LIB\C51L.LIB (?C?LNEG)
         COMMENT TYPE 1: A51 / ASM51 Assembler
  C:\PROGRAM FILES (X86)\CYPRESS\PSOC CREATOR\3.3\PSOC CREATOR\IMPORT\KEIL\PK51\9.51\C51\LIB\C51L.LIB (?C?SLCMP)
         COMMENT TYPE 1: A51 / ASM51 Assembler
  C:\PROGRAM FILES (X86)\CYPRESS\PSOC CREATOR\3.3\PSOC CREATOR\IMPORT\KEIL\PK51\9.51\C51\LIB\C51L.LIB (?C?ULCMP)
         COMMENT TYPE 1: A51 / ASM51 Assembler
  C:\PROGRAM FILES (X86)\CYPRESS\PSOC CREATOR\3.3\PSOC CREATOR\IMPORT\KEIL\PK51\9.51\C51\LIB\C51L.LIB (?C?ULSHR)
         COMMENT TYPE 1: A51 / ASM51 Assembler
  C:\PROGRAM FILES (X86)\CYPRESS\PSOC CREATOR\3.3\PSOC CREATOR\IMPORT\KEIL\PK51\9.51\C51\LIB\C51L.LIB (?C?SLSHR)
         COMMENT TYPE 1: A51 / ASM51 Assembler
  C:\PROGRAM FILES (X86)\CYPRESS\PSOC CREATOR\3.3\PSOC CREATOR\IMPORT\KEIL\PK51\9.51\C51\LIB\C51L.LIB (?C?LSHL)
         COMMENT TYPE 1: A51 / ASM51 Assembler
  C:\PROGRAM FILES (X86)\CYPRESS\PSOC CREATOR\3.3\PSOC CREATOR\IMPORT\KEIL\PK51\9.51\C51\LIB\C51L.LIB (?C?LLDPTR)
         COMMENT TYPE 1: A51 / ASM51 Assembler
  C:\PROGRAM FILES (X86)\CYPRESS\PSOC CREATOR\3.3\PSOC CREATOR\IMPORT\KEIL\PK51\9.51\C51\LIB\C51L.LIB (?C?LSTPTR)
         COMMENT TYPE 1: A51 / ASM51 Assembler
  C:\PROGRAM FILES (X86)\CYPRESS\PSOC CREATOR\3.3\PSOC CREATOR\IMPORT\KEIL\PK51\9.51\C51\LIB\C51L.LIB (?C?LLDIDATA)
         COMMENT TYPE 1: A51 / ASM51 Assembler
  C:\PROGRAM FILES (X86)\CYPRESS\PSOC CREATOR\3.3\PSOC CREATOR\IMPORT\KEIL\PK51\9.51\C51\LIB\C51L.LIB (?C?LSTIDATA)
         COMMENT TYPE 1: A51 / ASM51 Assembler
  C:\PROGRAM FILES (X86)\CYPRESS\PSOC CREATOR\3.3\PSOC CREATOR\IMPORT\KEIL\PK51\9.51\C51\LIB\C51L.LIB (?C?LSTXDATA)
         COMMENT TYPE 1: A51 / ASM51 Assembler
  C:\PROGRAM FILES (X86)\CYPRESS\PSOC CREATOR\3.3\PSOC CREATOR\IMPORT\KEIL\PK51\9.51\C51\LIB\C51L.LIB (?C?PLDIXDATA)
         COMMENT TYPE 1: A51 / ASM51 Assembler
  C:\PROGRAM FILES (X86)\CYPRESS\PSOC CREATOR\3.3\PSOC CREATOR\IMPORT\KEIL\PK51\9.51\C51\LIB\C51L.LIB (?C?PSTXDATA)
         COMMENT TYPE 1: A51 / ASM51 Assembler
  C:\PROGRAM FILES (X86)\CYPRESS\PSOC CREATOR\3.3\PSOC CREATOR\IMPORT\KEIL\PK51\9.51\C51\LIB\C51L.LIB (?C?CCASE)
         COMMENT TYPE 1: A51 / ASM51 Assembler
  C:\PROGRAM FILES (X86)\CYPRESS\PSOC CREATOR\3.3\PSOC CREATOR\IMPORT\KEIL\PK51\9.51\C51\LIB\C51L.LIB (?C_XBP)
         COMMENT TYPE 1: A51 / ASM51 Assembler
  C:\PROGRAM FILES (X86)\CYPRESS\PSOC CREATOR\3.3\PSOC CREATOR\IMPORT\KEIL\PK51\9.51\C51\LIB\C51L.LIB (?C?ADDXBP)
         COMMENT TYPE 1: A51 / ASM51 Assembler
  C:\PROGRAM FILES (X86)\CYPRESS\PSOC CREATOR\3.3\PSOC CREATOR\IMPORT\KEIL\PK51\9.51\C51\LIB\C51L.LIB (?C?LIMUL)
         COMMENT TYPE 1: A51 / ASM51 Assembler
  C:\PROGRAM FILES (X86)\CYPRESS\PSOC CREATOR\3.3\PSOC CREATOR\IMPORT\KEIL\PK51\9.51\C51\LIB\C51L.LIB (PUTCHAR)
         COMMENT TYPE 1: A51 / ASM51 Assembler
  C:\PROGRAM FILES (X86)\CYPRESS\PSOC CREATOR\3.3\PSOC CREATOR\IMPORT\KEIL\PK51\9.51\C51\LIB\C51L.LIB (ABS)
         COMMENT TYPE 1: A51 / ASM51 Assembler
  C:\PROGRAM FILES (X86)\CYPRESS\PSOC CREATOR\3.3\PSOC CREATOR\IMPORT\KEIL\PK51\9.51\C51\LIB\C51L.LIB (STRCAT)
         COMMENT TYPE 1: C51 Compiler
  C:\PROGRAM FILES (X86)\CYPRESS\PSOC CREATOR\3.3\PSOC CREATOR\IMPORT\KEIL\PK51\9.51\C51\LIB\C51L.LIB (STRLEN)
LX51 LINKER/LOCATER V4.64.0.0                                                         01/11/2017  18:17:27  PAGE 4


         COMMENT TYPE 1: A51 / ASM51 Assembler
  C:\PROGRAM FILES (X86)\CYPRESS\PSOC CREATOR\3.3\PSOC CREATOR\IMPORT\KEIL\PK51\9.51\C51\LIB\C51L.LIB (?C?COPYAMD)
         COMMENT TYPE 1: A51 / ASM51 Assembler
  C:\PROGRAM FILES (X86)\CYPRESS\PSOC CREATOR\3.3\PSOC CREATOR\IMPORT\KEIL\PK51\9.51\C51\LIB\C51L.LIB (?C?STRCPYAMD)
         COMMENT TYPE 1: A51 / ASM51 Assembler
  C:\PROGRAM FILES (X86)\CYPRESS\PSOC CREATOR\3.3\PSOC CREATOR\IMPORT\KEIL\PK51\9.51\C51\LIB\C51L.LIB (?C?IILDX)
         COMMENT TYPE 1: A51 / ASM51 Assembler
  C:\PROGRAM FILES (X86)\CYPRESS\PSOC CREATOR\3.3\PSOC CREATOR\IMPORT\KEIL\PK51\9.51\C51\LIB\C51L.LIB (?C?ILDIX)
         COMMENT TYPE 1: A51 / ASM51 Assembler
  C:\PROGRAM FILES (X86)\CYPRESS\PSOC CREATOR\3.3\PSOC CREATOR\IMPORT\KEIL\PK51\9.51\C51\LIB\C51L.LIB (?C?LLDXDATA)
         COMMENT TYPE 1: A51 / ASM51 Assembler
  C:\PROGRAM FILES (X86)\CYPRESS\PSOC CREATOR\3.3\PSOC CREATOR\IMPORT\KEIL\PK51\9.51\C51\LIB\C51L.LIB (?C?LLDPDATA)
         COMMENT TYPE 1: A51 / ASM51 Assembler
  C:\PROGRAM FILES (X86)\CYPRESS\PSOC CREATOR\3.3\PSOC CREATOR\IMPORT\KEIL\PK51\9.51\C51\LIB\C51L.LIB (?C?LLDCODE)
         COMMENT TYPE 1: A51 / ASM51 Assembler
  C:\PROGRAM FILES (X86)\CYPRESS\PSOC CREATOR\3.3\PSOC CREATOR\IMPORT\KEIL\PK51\9.51\C51\LIB\C51L.LIB (?C?LSTPDATA)
         COMMENT TYPE 1: A51 / ASM51 Assembler


ACTIVE MEMORY CLASSES OF MODULE:  .\DP8051_Keil_951\Release\qbmove_adv_firmware.omf (COMMAND_PROCESSING)

BASE        START       END         USED      MEMORY CLASS
==========================================================
X:000000H   X:000000H   X:001FFFH   000D82H   XDATA
C:000000H   C:002600H   C:00FFBFH   008A95H   CODE
C:000000H   C:002600H   C:00FFBFH   000BE7H   CONST
I:000000H   I:000000H   I:00007FH   00006AH   DATA
I:000020H.0 I:000020H.0 I:00002FH.7 000002H.1 BIT
I:000000H   I:000000H   I:0000FFH   000004H   IDATA


MEMORY MAP OF MODULE:  .\DP8051_Keil_951\Release\qbmove_adv_firmware.omf (COMMAND_PROCESSING)


START     STOP      LENGTH    ALIGN  RELOC    MEMORY CLASS   SEGMENT NAME
=========================================================================

* * * * * * * * * * *   D A T A   M E M O R Y   * * * * * * * * * * * * *
000000H   000007H   000008H   ---    AT..     DATA           "REG BANK 0"
000008H   00000DH   000006H   BYTE   UNIT     DATA           ?DT?INTERRUPTIONS
00000EH   00000FH   000002H   BYTE   UNIT     DATA           ?C?LIB_DATA
000010H   000012H   000003H   BYTE   UNIT     IDATA          _IDATA_GROUP_
000013H.0 00001FH.7 00000DH.0 ---    ---      **GAP**
000020H.0 000021H.1 000001H.2 BIT    UNIT     BIT            _BIT_GROUP_
000021H.2 000021H.5 000000H.4 BIT    UNIT     BIT            ?BI?GLOBALS
000021H.6 000022H.0 000000H.3 BIT    UNIT     BIT            ?BI?INTERRUPTIONS
000022H.1 000022H   000000H.7 ---    ---      **GAP**
000023H   00007CH   00005AH   BYTE   UNIT     DATA           _DATA_GROUP_
00007DH   00007DH   000001H   BYTE   UNIT     IDATA          ?STACK

* * * * * * * * * * *   C O D E   M E M O R Y   * * * * * * * * * * * * *
002600H   002619H   00001AH   ---    OFFS..   CODE           ?CO?KEILSTART?3
00261AH   0038F2H   0012D9H   BYTE   UNIT     CODE           ?PR?_INFOPREPARE?COMMAND_PROCESSING
0038F3H   0049E2H   0010F0H   BYTE   UNIT     CODE           ?PR?_GET_PARAM_LIST?COMMAND_PROCESSING
0049E3H   005978H   000F96H   BYTE   UNIT     CODE           ?PR?_MOTOR_CONTROL?INTERRUPTIONS
005979H   00641CH   000AA4H   BYTE   UNIT     CODE           ?C?LIB_CODE
00641DH   0069E1H   0005C5H   BYTE   UNIT     CODE           ?CO?COMMAND_PROCESSING
0069E2H   006F0AH   000529H   BYTE   UNIT     CODE           ?C_INITSEG
006F0BH   00738DH   000483H   BYTE   UNIT     CODE           ?PR?PRINTF?PRINTF
00738EH   0076CEH   000341H   BYTE   UNIT     CODE           ?PR?CMD_STORE_PARAMS?COMMAND_PROCESSING
0076CFH   0079EFH   000321H   BYTE   UNIT     CODE           ?PR?_ENCODER_READING?INTERRUPTIONS
0079F0H   007BCEH   0001DFH   BYTE   UNIT     CODE           ?PR?CALIBRATION?INTERRUPTIONS
007BCFH   007D96H   0001C8H   BYTE   UNIT     CODE           ?PR?CMD_SET_INPUTS?COMMAND_PROCESSING
007D97H   007F5CH   0001C6H   BYTE   UNIT     CODE           ?PR?MAIN?MAIN
007F5DH   0080FDH   0001A1H   BYTE   UNIT     CODE           ?PR?_ADC_GAINCOMPENSATION?ADC
LX51 LINKER/LOCATER V4.64.0.0                                                         01/11/2017  18:17:27  PAGE 5


0080FEH   008292H   000195H   BYTE   UNIT     CODE           ?PR?COMMPROCESS?COMMAND_PROCESSING
008293H   008414H   000182H   BYTE   UNIT     CODE           ?PR?MEMINIT?COMMAND_PROCESSING
008415H   008593H   00017FH   BYTE   UNIT     CODE           ?PR?CMD_SET_POS_STIFF?COMMAND_PROCESSING
008594H   008712H   00017FH   BYTE   UNIT     CODE           ?PR?CLOCKSETUP?CYFITTER_CFG
008713H   008870H   00015EH   BYTE   UNIT     CODE           ?PR?CMD_GET_COUNTERS?COMMAND_PROCESSING
008871H   0089A1H   000131H   BYTE   UNIT     CODE           ?PR?_ADC_EXT_CP_CLK_SETDIVIDERREGISTER?ADC_EXT_CP_CLK
0089A2H   008AD1H   000130H   BYTE   UNIT     CODE           ?PR?_CLOCK_UART_SETDIVIDERREGISTER?CLOCK_UART
008AD2H   008C00H   00012FH   BYTE   UNIT     CODE           ?PR?_ADC_THEACLK_SETDIVIDERREGISTER?ADC_THEACLK
008C01H   008D27H   000127H   BYTE   UNIT     CODE           ?PR?INTERRUPT_MANAGER?INTERRUPTIONS
008D28H   008E44H   00011DH   BYTE   UNIT     CODE           ?PR?ANALOG_READ_END?INTERRUPTIONS
008E45H   008F61H   00011DH   BYTE   UNIT     CODE           ?C_C51STARTUP
008F62H   009072H   000111H   BYTE   UNIT     CODE           ?PR?FUNCTION_SCHEDULER?INTERRUPTIONS
009073H   009182H   000110H   BYTE   UNIT     CODE           ?PR?CYFITTER_CFG?CYFITTER_CFG
009183H   009281H   0000FFH   BYTE   UNIT     CODE           ?PR?CMD_ACTIVATE?COMMAND_PROCESSING
009282H   009369H   0000E8H   BYTE   UNIT     CODE           ?PR?CFG_DMA_INIT?CYFITTER_CFG
00936AH   009448H   0000DFH   BYTE   UNIT     CODE           ?PR?_EEPROM_WRITE?EEPROM
009449H   0094FAH   0000B2H   BYTE   UNIT     CODE           ?PR?_MEMSTORE?COMMAND_PROCESSING
0094FBH   0095ABH   0000B1H   BYTE   UNIT     CODE           ?PR?ADC_INIT?ADC
0095ACH   00965CH   0000B1H   BYTE   UNIT     CODE           ?PR?UART_RS485_RXISR?UART_RS485_INT
00965DH   00970AH   0000AEH   BYTE   UNIT     CODE           ?PR?_ADC_INITCONFIG?ADC
00970BH   0097B0H   0000A6H   BYTE   UNIT     CODE           ?PR?CMD_GET_CURR_AND_MEAS?COMMAND_PROCESSING
0097B1H   00983DH   00008DH   BYTE   UNIT     CODE           ?PR?_COMMWRITE_OLD_ID?COMMAND_PROCESSING
00983EH   0098CAH   00008DH   BYTE   UNIT     CODE           ?PR?_COMMWRITE?COMMAND_PROCESSING
0098CBH   009956H   00008CH   BYTE   UNIT     CODE           ?PR?SETZEROS?COMMAND_PROCESSING
009957H   0099DEH   000088H   BYTE   UNIT     CODE           ?PR?ADC_ENABLE?ADC
0099DFH   009A66H   000088H   BYTE   UNIT     CODE           ?PR?_?CYDELAY?CYLIB
009A67H   009AEDH   000087H   BYTE   UNIT     CODE           ?PR?_CYDMATDSETCONFIGURATION?CYDMAC
009AEEH   009B68H   00007BH   BYTE   UNIT     CODE           ?PR?CMD_GET_MEASUREMENTS?COMMAND_PROCESSING
009B69H   009BE1H   000079H   BYTE   UNIT     CODE           ?PR?_CYDMACHSETCONFIGURATION?CYDMAC
009BE2H   009C59H   000078H   BYTE   UNIT     CODE           ?PR?_CYDMACHSETEXTENDEDADDRESS?CYDMAC
009C5AH   009CD1H   000078H   BYTE   UNIT     CODE           ?PR?_CYDMATDSETADDRESS?CYDMAC
009CD2H   009D46H   000075H   BYTE   UNIT     CODE           ?PR?_FILTER_I1?UTILS
009D47H   009DBBH   000075H   BYTE   UNIT     CODE           ?PR?_FILTER_I2?UTILS
009DBCH   009E2EH   000073H   BYTE   UNIT     CODE           ?PR?_CYSPCLOADROW?CYSPC
009E2FH   009E9EH   000070H   BYTE   UNIT     CODE           ?PR?CMD_GET_INPUTS?COMMAND_PROCESSING
009E9FH   009F09H   00006BH   BYTE   UNIT     CODE           ?PR?_CHECK_ENC_DATA?UTILS
009F0AH   009F74H   00006BH   BYTE   UNIT     CODE           ?PR?_STRCAT?STRCAT
009F75H   009FD8H   000064H   BYTE   UNIT     CODE           ?PR?CMD_GET_VELOCITIES?COMMAND_PROCESSING
009FD9H   00A038H   000060H   BYTE   UNIT     CODE           ?PR?_CYSPCREADDATA?CYSPC
00A039H   00A093H   00005BH   BYTE   UNIT     CODE           ?PR?UART_RS485_GETCHAR?UART_RS485
00A094H   00A0EBH   000058H   BYTE   UNIT     CODE           ?PR?CMD_GET_CURRENTS?COMMAND_PROCESSING
00A0ECH   00A141H   000056H   BYTE   UNIT     CODE           ?PR?CYSETTEMPINT?CYFLASH
00A142H   00A195H   000054H   BYTE   UNIT     CODE           ?PR?RESET_COUNTERS?UTILS
00A196H   00A1E9H   000054H   BYTE   UNIT     CODE           ?PR?_CYINTSETVECTOR?CYLIB
00A1EAH   00A23DH   000054H   BYTE   UNIT     CODE           ?PR?_CYSPCWRITEROW?CYSPC
00A23EH   00A28DH   000050H   BYTE   UNIT     CODE           ?PR?CYFLASHGETSPCALGORITHM?CYFLASH
00A28EH   00A2DCH   00004FH   BYTE   UNIT     CODE           ?PR?UART_RS485_GETRXBUFFERSIZE?UART_RS485
00A2DDH   00A329H   00004DH   BYTE   UNIT     CODE           ?PR?MEMRECALL?COMMAND_PROCESSING
00A32AH   00A374H   00004BH   BYTE   UNIT     CODE           ?PR?_CYDMACHENABLE?CYDMAC
00A375H   00A3BEH   00004AH   BYTE   UNIT     CODE           ?PR?_DMA_DMAINITIALIZE?DMA_DMA
00A3BFH   00A405H   000047H   BYTE   UNIT     CODE           ?PR?MEMRESTORE?COMMAND_PROCESSING
00A406H   00A449H   000044H   BYTE   UNIT     CODE           ?C?LDIV
00A44AH   00A48AH   000041H   BYTE   UNIT     CODE           ?PR?CMD_SET_WATCHDOG?COMMAND_PROCESSING
00A48BH   00A4CAH   000040H   BYTE   UNIT     CODE           ?PR?_CYDMACHPRIORITY?CYDMAC
00A4CBH   00A508H   00003EH   BYTE   UNIT     CODE           ?PR?CYDMATDALLOCATE?CYDMAC
00A509H   00A545H   00003DH   BYTE   UNIT     CODE           ?PR?_ADC_SETDSMREF0REG?ADC
00A546H   00A581H   00003CH   BYTE   UNIT     CODE           ?PR?PACER_TIMER_INIT?PACER_TIMER
00A582H   00A5BDH   00003CH   BYTE   UNIT     CODE           ?PR?MY_TIMER_INIT?MY_TIMER
00A5BEH   00A5F7H   00003AH   BYTE   UNIT     CODE           ?PR?CMD_GET_ACTIVATE?COMMAND_PROCESSING
00A5F8H   00A5FFH   000008H   BYTE   UNIT     CODE           ?PR?CLOCK_UART_GETSOURCEREGISTER?CLOCK_UART
00A600H   00A63AH   00003BH   PAGE   UNIT     CODE           ?PR?CYDELAYCYCLES?CYBOOTASMKEIL
00A63BH   00A672H   000038H   BYTE   UNIT     CODE           ?PR?WATCHDOG_COUNTER_INIT?WATCHDOG_COUNTER
00A673H   00A6A8H   000036H   BYTE   UNIT     CODE           ?PR?CYDMACCONFIGURE?CYDMAC
00A6A9H   00A6DDH   000035H   BYTE   UNIT     CODE           ?PR?COUNTER_ENC_INIT?COUNTER_ENC
00A6DEH   00A711H   000034H   BYTE   UNIT     CODE           ?PR?_UART_RS485_PUTSTRING?UART_RS485
LX51 LINKER/LOCATER V4.64.0.0                                                         01/11/2017  18:17:27  PAGE 6


00A712H   00A745H   000034H   BYTE   UNIT     CODE           ?PR?_CYCONFIGCPY?CYMEM
00A746H   00A778H   000033H   BYTE   UNIT     CODE           ?PR?UART_RS485_INIT?UART_RS485
00A779H   00A7AAH   000032H   BYTE   UNIT     CODE           ?PR?_LCRCHECKSUM?UTILS
00A7ABH   00A7DBH   000031H   BYTE   UNIT     CODE           ?PR?_ADC_AMUX_UNSET?CYFITTER_CFG
00A7DCH   00A80CH   000031H   BYTE   UNIT     CODE           ?PR?CYEEPROM_START?CYFLASH
00A80DH   00A83CH   000030H   BYTE   UNIT     CODE           ?PR?_ADC_AMUX_SET?CYFITTER_CFG
00A83DH   00A86BH   00002FH   BYTE   UNIT     CODE           ?PR?UART_RS485_CLEARRXBUFFER?UART_RS485
00A86CH   00A899H   00002EH   BYTE   UNIT     CODE           ?PR?_CYSPCGETTEMP?CYSPC
00A89AH   00A89AH   000001H   BYTE   UNIT     CODE           ?PR?ISR_RS485_RX_INTERRUPT?ISR_RS485_RX
00A89BH   00A89BH   000001H   BYTE   UNIT     CODE           ?PR?ISR_WATCHDOG_INTERRUPT?ISR_WATCHDOG
00A89CH   00A8C8H   00002DH   DWORD  UNIT     CODE           ?PR?CYDELAYUS?CYBOOTASMKEIL
00A8C9H   00A8EFH   000027H   BYTE   UNIT     CODE           ?PR?ANALOGSETDEFAULT?CYFITTER_CFG
00A8F0H   00A916H   000027H   BYTE   UNIT     CODE           ?PR?PUTCHAR?PUTCHAR
00A917H   00A93CH   000026H   BYTE   UNIT     CODE           ?PR?PWM_MOTORS_INIT?PWM_MOTORS
00A93DH   00A962H   000026H   BYTE   UNIT     CODE           ?PR?CYCONFIGCPYCODE?CYMEM
00A963H   00A984H   000022H   BYTE   UNIT     CODE           ?PR?CMD_PING?COMMAND_PROCESSING
00A985H   00A9A6H   000022H   BYTE   UNIT     CODE           ?PR?UART_RS485_ENABLE?UART_RS485
00A9A7H   00A9C8H   000022H   BYTE   UNIT     CODE           ?PR?UART_RS485_STOP?UART_RS485
00A9C9H   00A9E9H   000021H   BYTE   UNIT     CODE           ?PR?ADC_AMUX_START?ADC_AMUX
00A9EAH   00AA09H   000020H   BYTE   UNIT     CODE           ?PR?CMD_SET_BAUDRATE?COMMAND_PROCESSING
00AA0AH   00AA28H   00001FH   BYTE   UNIT     CODE           ?PR?_ISR_RS485_RX_STARTEX?ISR_RS485_RX
00AA29H   00AA47H   00001FH   BYTE   UNIT     CODE           ?PR?_ISR_WATCHDOG_STARTEX?ISR_WATCHDOG
00AA48H   00AA66H   00001FH   BYTE   UNIT     CODE           ?PR?CYSPCLOCK?CYSPC
00AA67H   00AA84H   00001EH   BYTE   UNIT     CODE           ?PR?_CYDMACHSETINITIALTD?CYDMAC
00AA85H   00AAA0H   00001CH   BYTE   UNIT     CODE           ?PR?_WATCHDOG_COUNTER_WRITECOUNTER?WATCHDOG_COUNTER
00AAA1H   00AABBH   00001BH   BYTE   UNIT     CODE           ?PR?CYSPCGETALGORITHM?CYSPC
00AABCH   00AAD4H   000019H   BYTE   UNIT     CODE           ?PR?_INFOGET?COMMAND_PROCESSING
00AAD5H   00AAEDH   000019H   BYTE   UNIT     CODE           ?PR?ADC_START?ADC
00AAEEH   00AB06H   000019H   BYTE   UNIT     CODE           ?PR?_CYINTSETPRIORITY?CYLIB
00AB07H   00AB1FH   000019H   BYTE   UNIT     CODE           ?PR?_ADC_AMUX_SELECT?ADC_AMUX
00AB20H   00AB37H   000018H   BYTE   UNIT     CODE           ?PR?CYEXITCRITICALSECTION?CYBOOTASMKEIL
00AB38H   00AB4FH   000018H   BYTE   UNIT     CODE           ?PR?CYSETTEMP?CYFLASH
00AB50H   00AB65H   000016H   BYTE   UNIT     CODE           ?PR?WATCHDOG_COUNTER_ENABLE?WATCHDOG_COUNTER
00AB66H   00AB7BH   000016H   BYTE   UNIT     CODE           ?PR?PACER_TIMER_ENABLE?PACER_TIMER
00AB7CH   00AB91H   000016H   BYTE   UNIT     CODE           ?PR?MY_TIMER_ENABLE?MY_TIMER
00AB92H   00ABA6H   000015H   BYTE   UNIT     CODE           ?PR?_SENDACKNOWLEDGMENT?COMMAND_PROCESSING
00ABA7H   00ABBBH   000015H   BYTE   UNIT     CODE           ?PR?CYENTERCRITICALSECTION?CYBOOTASMKEIL
00ABBCH   00ABD0H   000015H   BYTE   UNIT     CODE           ?PR?CYSPCSTART?CYSPC
00ABD1H   00ABE5H   000015H   BYTE   UNIT     CODE           ?PR?_STRLEN?STRLEN
00ABE6H   00ABF9H   000014H   BYTE   UNIT     CODE           ?PR?UART_RS485_READRXSTATUS?UART_RS485
00ABFAH   00AC0CH   000013H   BYTE   UNIT     CODE           ?PR?PWM_MOTORS_START?PWM_MOTORS
00AC0DH   00AC1FH   000013H   BYTE   UNIT     CODE           ?PR?WATCHDOG_COUNTER_START?WATCHDOG_COUNTER
00AC20H   00AC32H   000013H   BYTE   UNIT     CODE           ?PR?SHIFTREG_ENC_3_START?SHIFTREG_ENC_3
00AC33H   00AC45H   000013H   BYTE   UNIT     CODE           ?PR?COUNTER_ENC_START?COUNTER_ENC
00AC46H   00AC58H   000013H   BYTE   UNIT     CODE           ?PR?SHIFTREG_ENC_1_START?SHIFTREG_ENC_1
00AC59H   00AC6BH   000013H   BYTE   UNIT     CODE           ?PR?SHIFTREG_ENC_2_START?SHIFTREG_ENC_2
00AC6CH   00AC7EH   000013H   BYTE   UNIT     CODE           ?PR?PACER_TIMER_START?PACER_TIMER
00AC7FH   00AC91H   000013H   BYTE   UNIT     CODE           ?PR?MY_TIMER_START?MY_TIMER
00AC92H   00ACA4H   000013H   BYTE   UNIT     CODE           ?PR?MY_TIMER_READCOUNTER?MY_TIMER
00ACA5H   00ACB7H   000013H   BYTE   UNIT     CODE           ?PR?UART_RS485_START?UART_RS485
00ACB8H   00ACCAH   000013H   BYTE   UNIT     CODE           ?PR?SHIFTREG_ENC_4_START?SHIFTREG_ENC_4
00ACCBH   00ACDDH   000013H   BYTE   UNIT     CODE           ?PR?SHIFTREG_ENC_5_START?SHIFTREG_ENC_5
00ACDEH   00ACF0H   000013H   BYTE   UNIT     CODE           ?PR?SHIFTREG_ENC_6_START?SHIFTREG_ENC_6
00ACF1H   00AD03H   000013H   BYTE   UNIT     CODE           ?PR?CYREAD24?CYMEM
00AD04H   00AD15H   000012H   BYTE   UNIT     CODE           ?PR?UART_RS485_CLEARTXBUFFER?UART_RS485
00AD16H   00AD26H   000011H   BYTE   UNIT     CODE           ?PR?_SHIFTREG_ENC_3_SETINTMODE?SHIFTREG_ENC_3
00AD27H   00AD37H   000011H   BYTE   UNIT     CODE           ?PR?_SHIFTREG_ENC_1_SETINTMODE?SHIFTREG_ENC_1
00AD38H   00AD48H   000011H   BYTE   UNIT     CODE           ?PR?_SHIFTREG_ENC_2_SETINTMODE?SHIFTREG_ENC_2
00AD49H   00AD59H   000011H   BYTE   UNIT     CODE           ?PR?_SHIFTREG_ENC_4_SETINTMODE?SHIFTREG_ENC_4
00AD5AH   00AD6AH   000011H   BYTE   UNIT     CODE           ?PR?_SHIFTREG_ENC_5_SETINTMODE?SHIFTREG_ENC_5
00AD6BH   00AD7BH   000011H   BYTE   UNIT     CODE           ?PR?_SHIFTREG_ENC_6_SETINTMODE?SHIFTREG_ENC_6
00AD7CH   00AD8AH   00000FH   BYTE   UNIT     CODE           ?PR?CYREAD16?CYMEM
00AD8BH   00AD99H   00000FH   BYTE   UNIT     CODE           ?PR?CYWRITE16?CYMEM
00AD9AH   00ADA7H   00000EH   BYTE   UNIT     CODE           ?PR?_ISR_RS485_RX_SETVECTOR?ISR_RS485_RX
00ADA8H   00ADB5H   00000EH   BYTE   UNIT     CODE           ?PR?_WATCHDOG_COUNTER_WRITEPERIOD?WATCHDOG_COUNTER
LX51 LINKER/LOCATER V4.64.0.0                                                         01/11/2017  18:17:27  PAGE 7


00ADB6H   00ADC3H   00000EH   BYTE   UNIT     CODE           ?PR?_ISR_WATCHDOG_SETVECTOR?ISR_WATCHDOG
00ADC4H   00ADD1H   00000EH   BYTE   UNIT     CODE           ?PR?SHIFTREG_ENC_3_ENABLEINT?SHIFTREG_ENC_3
00ADD2H   00ADDFH   00000EH   BYTE   UNIT     CODE           ?PR?SHIFTREG_ENC_1_ENABLEINT?SHIFTREG_ENC_1
00ADE0H   00ADEDH   00000EH   BYTE   UNIT     CODE           ?PR?SHIFTREG_ENC_2_ENABLEINT?SHIFTREG_ENC_2
00ADEEH   00ADFBH   00000EH   BYTE   UNIT     CODE           ?PR?_PACER_TIMER_WRITEPERIOD?PACER_TIMER
00ADFCH   00AE09H   00000EH   BYTE   UNIT     CODE           ?PR?_PACER_TIMER_WRITECOUNTER?PACER_TIMER
00AE0AH   00AE17H   00000EH   BYTE   UNIT     CODE           ?PR?_MY_TIMER_WRITEPERIOD?MY_TIMER
00AE18H   00AE25H   00000EH   BYTE   UNIT     CODE           ?PR?_MY_TIMER_WRITECOUNTER?MY_TIMER
00AE26H   00AE33H   00000EH   BYTE   UNIT     CODE           ?PR?SHIFTREG_ENC_4_ENABLEINT?SHIFTREG_ENC_4
00AE34H   00AE41H   00000EH   BYTE   UNIT     CODE           ?PR?SHIFTREG_ENC_5_ENABLEINT?SHIFTREG_ENC_5
00AE42H   00AE4FH   00000EH   BYTE   UNIT     CODE           ?PR?SHIFTREG_ENC_6_ENABLEINT?SHIFTREG_ENC_6
00AE50H   00AE5CH   00000DH   BYTE   UNIT     CODE           ?PR?COUNTER_ENC_CLEARFIFO?COUNTER_ENC
00AE5DH   00AE69H   00000DH   BYTE   UNIT     CODE           ?PR?_UART_RS485_PUTCHAR?UART_RS485
00AE6AH   00AE76H   00000DH   BYTE   UNIT     CODE           ?PR?_ADC_EXT_CP_CLK_SETMODEREGISTER?ADC_EXT_CP_CLK
00AE77H   00AE83H   00000DH   BYTE   UNIT     CODE           ?PR?_ADC_THEACLK_SETMODEREGISTER?ADC_THEACLK
00AE84H   00AE8FH   00000CH   BYTE   UNIT     CODE           ?PR?CYREAD8?CYMEM
00AE90H   00AE9BH   00000CH   BYTE   UNIT     CODE           ?PR?CYWRITE8?CYMEM
00AE9CH   00AEA7H   00000CH   BYTE   UNIT     CODE           ?PR?CYSPCUNLOCK?CYSPC
00AEA8H   00AEB3H   00000CH   BYTE   UNIT     CODE           ?PR?_ABS?ABS
00AEB4H   00AEBEH   00000BH   BYTE   UNIT     CODE           ?PR?SHIFTREG_ENC_3_ENABLE?SHIFTREG_ENC_3
00AEBFH   00AEC9H   00000BH   BYTE   UNIT     CODE           ?PR?SHIFTREG_ENC_1_ENABLE?SHIFTREG_ENC_1
00AECAH   00AED4H   00000BH   BYTE   UNIT     CODE           ?PR?SHIFTREG_ENC_2_ENABLE?SHIFTREG_ENC_2
00AED5H   00AEDFH   00000BH   BYTE   UNIT     CODE           ?PR?SHIFTREG_ENC_4_ENABLE?SHIFTREG_ENC_4
00AEE0H   00AEEAH   00000BH   BYTE   UNIT     CODE           ?PR?SHIFTREG_ENC_5_ENABLE?SHIFTREG_ENC_5
00AEEBH   00AEF5H   00000BH   BYTE   UNIT     CODE           ?PR?SHIFTREG_ENC_6_ENABLE?SHIFTREG_ENC_6
00AEF6H   00AEFFH   00000AH   BYTE   UNIT     CODE           ?PR?_ISR_RS485_RX_SETPRIORITY?ISR_RS485_RX
00AF00H   00AF09H   00000AH   BYTE   UNIT     CODE           ?PR?CLOCK_UART_GETDIVIDERREGISTER?CLOCK_UART
00AF0AH   00AF13H   00000AH   BYTE   UNIT     CODE           ?PR?_ISR_WATCHDOG_SETPRIORITY?ISR_WATCHDOG
00AF14H   00AF1DH   00000AH   BYTE   UNIT     CODE           ?PR?SHIFTREG_ENC_3_READDATA?SHIFTREG_ENC_3
00AF1EH   00AF27H   00000AH   BYTE   UNIT     CODE           ?PR?SHIFTREG_ENC_1_READDATA?SHIFTREG_ENC_1
00AF28H   00AF31H   00000AH   BYTE   UNIT     CODE           ?PR?SHIFTREG_ENC_2_READDATA?SHIFTREG_ENC_2
00AF32H   00AF3BH   00000AH   BYTE   UNIT     CODE           ?PR?BOOTLOADABLE_LOAD?BOOTLOADABLE
00AF3CH   00AF45H   00000AH   BYTE   UNIT     CODE           ?PR?SHIFTREG_ENC_4_READDATA?SHIFTREG_ENC_4
00AF46H   00AF4FH   00000AH   BYTE   UNIT     CODE           ?PR?SHIFTREG_ENC_5_READDATA?SHIFTREG_ENC_5
00AF50H   00AF59H   00000AH   BYTE   UNIT     CODE           ?PR?SHIFTREG_ENC_6_READDATA?SHIFTREG_ENC_6
00AF5AH   00AF63H   00000AH   BYTE   UNIT     CODE           ?PR?ADC_EXT_CP_CLK_GETDIVIDERREGISTER?ADC_EXT_CP_CLK
00AF64H   00AF6DH   00000AH   BYTE   UNIT     CODE           ?PR?ADC_THEACLK_GETDIVIDERREGISTER?ADC_THEACLK
00AF6EH   00AF75H   000008H   BYTE   UNIT     CODE           ?PR?PWM_MOTORS_ENABLE?PWM_MOTORS
00AF76H   00AF7DH   000008H   BYTE   UNIT     CODE           ?PR?COUNTER_ENC_ENABLE?COUNTER_ENC
00AF7EH   00AF85H   000008H   BYTE   UNIT     CODE           ?PR?CYSOFTWARERESET?CYLIB
00AF86H   00AF8DH   000008H   BYTE   UNIT     CODE           ?PR?ADC_EXT_CP_CLK_GETSOURCEREGISTER?ADC_EXT_CP_CLK
00AF8EH   00AF95H   000008H   BYTE   UNIT     CODE           ?PR?ADC_THEACLK_GETSOURCEREGISTER?ADC_THEACLK
00AF96H   00AF9CH   000007H   BYTE   UNIT     CODE           ?PR?PWM_LIMIT_SEARCH?INTERRUPTIONS
00AF9DH   00AFA3H   000007H   BYTE   UNIT     CODE           ?PR?ISR_RS485_RX_ENABLE?ISR_RS485_RX
00AFA4H   00AFAAH   000007H   BYTE   UNIT     CODE           ?PR?ISR_RS485_RX_DISABLE?ISR_RS485_RX
00AFABH   00AFB1H   000007H   BYTE   UNIT     CODE           ?PR?ISR_WATCHDOG_ENABLE?ISR_WATCHDOG
00AFB2H   00AFB8H   000007H   BYTE   UNIT     CODE           ?PR?ISR_WATCHDOG_DISABLE?ISR_WATCHDOG
00AFB9H   00AFBFH   000007H   BYTE   UNIT     CODE           ?PR?EEPROM_ENABLE?EEPROM
00AFC0H   00AFC5H   000006H   BYTE   UNIT     CODE           ?PR?_PWM_MOTORS_WRITECOUNTER?PWM_MOTORS
00AFC6H   00AFCBH   000006H   BYTE   UNIT     CODE           ?PR?_PWM_MOTORS_WRITEPERIOD?PWM_MOTORS
00AFCCH   00AFD1H   000006H   BYTE   UNIT     CODE           ?PR?_PWM_MOTORS_WRITECOMPARE1?PWM_MOTORS
00AFD2H   00AFD7H   000006H   BYTE   UNIT     CODE           ?PR?_PWM_MOTORS_WRITECOMPARE2?PWM_MOTORS
00AFD8H   00AFDDH   000006H   BYTE   UNIT     CODE           ?PR?_WATCHDOG_REFRESH_WRITE?WATCHDOG_REFRESH
00AFDEH   00AFE3H   000006H   BYTE   UNIT     CODE           ?PR?_WATCHDOG_ENABLER_WRITE?WATCHDOG_ENABLER
00AFE4H   00AFE9H   000006H   BYTE   UNIT     CODE           ?PR?_WATCHDOG_COUNTER_SETINTERRUPTMODE?WATCHDOG_COUNTER
00AFEAH   00AFEFH   000006H   BYTE   UNIT     CODE           ?PR?SHIFTREG_ENC_3_INIT?SHIFTREG_ENC_3
00AFF0H   00AFF5H   000006H   BYTE   UNIT     CODE           ?PR?FF_STATUS_READ?FF_STATUS
00AFF6H   00AFFBH   000006H   BYTE   UNIT     CODE           ?PR?_MOTOR_DIR_WRITE?MOTOR_DIR
00AFFCH   00B001H   000006H   BYTE   UNIT     CODE           ?PR?_RESET_COUNTERS_WRITE?RESET_COUNTERS
00B002H   00B007H   000006H   BYTE   UNIT     CODE           ?PR?_COUNTER_ENC_SETINTERRUPTMODE?COUNTER_ENC
00B008H   00B00DH   000006H   BYTE   UNIT     CODE           ?PR?COUNTER_ENC_READSTATUSREGISTER?COUNTER_ENC
00B00EH   00B013H   000006H   BYTE   UNIT     CODE           ?PR?_COUNTER_ENC_WRITECOUNTER?COUNTER_ENC
00B014H   00B019H   000006H   BYTE   UNIT     CODE           ?PR?COUNTER_ENC_READCAPTURE?COUNTER_ENC
00B01AH   00B01FH   000006H   BYTE   UNIT     CODE           ?PR?_COUNTER_ENC_WRITEPERIOD?COUNTER_ENC
00B020H   00B025H   000006H   BYTE   UNIT     CODE           ?PR?_COUNTER_ENC_WRITECOMPARE?COUNTER_ENC
LX51 LINKER/LOCATER V4.64.0.0                                                         01/11/2017  18:17:27  PAGE 8


00B026H   00B02BH   000006H   BYTE   UNIT     CODE           ?PR?SHIFTREG_ENC_1_INIT?SHIFTREG_ENC_1
00B02CH   00B031H   000006H   BYTE   UNIT     CODE           ?PR?SHIFTREG_ENC_2_INIT?SHIFTREG_ENC_2
00B032H   00B037H   000006H   BYTE   UNIT     CODE           ?PR?_RESET_FF_WRITE?RESET_FF
00B038H   00B03DH   000006H   BYTE   UNIT     CODE           ?PR?_PACER_TIMER_SETINTERRUPTMODE?PACER_TIMER
00B03EH   00B043H   000006H   BYTE   UNIT     CODE           ?PR?_MY_TIMER_SETINTERRUPTMODE?MY_TIMER
00B044H   00B049H   000006H   BYTE   UNIT     CODE           ?PR?_MOTOR_ON_OFF_WRITE?MOTOR_ON_OFF
00B04AH   00B04FH   000006H   BYTE   UNIT     CODE           ?PR?_FTDI_ENABLE_REG_WRITE?FTDI_ENABLE_REG
00B050H   00B055H   000006H   BYTE   UNIT     CODE           ?PR?_RS485_CTS_WRITE?RS485_CTS
00B056H   00B05BH   000006H   BYTE   UNIT     CODE           ?PR?UART_RS485_READTXSTATUS?UART_RS485
00B05CH   00B061H   000006H   BYTE   UNIT     CODE           ?PR?ADC_STATUS_READ?ADC_STATUS
00B062H   00B067H   000006H   BYTE   UNIT     CODE           ?PR?_ADC_SOC_WRITE?ADC_SOC
00B068H   00B06DH   000006H   BYTE   UNIT     CODE           ?PR?_POWER_ON_LED_REG_WRITE?POWER_ON_LED_REG
00B06EH   00B073H   000006H   BYTE   UNIT     CODE           ?PR?SHIFTREG_ENC_4_INIT?SHIFTREG_ENC_4
00B074H   00B079H   000006H   BYTE   UNIT     CODE           ?PR?SHIFTREG_ENC_5_INIT?SHIFTREG_ENC_5
00B07AH   00B07FH   000006H   BYTE   UNIT     CODE           ?PR?SHIFTREG_ENC_6_INIT?SHIFTREG_ENC_6
00B080H   00B083H   000004H   BYTE   UNIT     CODE           ?PR?EEPROM_START?EEPROM
00B084H   00B087H   000004H   BYTE   UNIT     CODE           ?PR?EEPROM_UPDATETEMPERATURE?EEPROM
00B088H   00B08AH   000003H   BYTE   UNIT     CODE           ?PR?ISR_WATCHDOG_HANDLER?INTERRUPTIONS
00B08BH   00B08DH   000003H   BYTE   UNIT     CODE           ?PR?ISR_RS485_RX_EXINTERRUPT?INTERRUPTIONS
00B08EH   00B090H   000003H   BYTE   UNIT     CODE           ?PR?_CYCLOCKSTARTUPERROR?CYFITTER_CFG
00B091H   00B091H   000001H   BYTE   UNIT     CODE           ?PR?ADC_ISR1?ADC_INT
00B092H   00B092H   000001H   BYTE   UNIT     CODE           ?PR?ADC_ISR2?ADC_INT
00B093H   00B093H   000001H   BYTE   UNIT     CODE           ?PR?ADC_ISR3?ADC_INT
00B094H   00B094H   000001H   BYTE   UNIT     CODE           ?PR?ADC_ISR4?ADC_INT
00B095H   00BC7BH   000BE7H   BYTE   UNIT     CONST          ?CO?CYFITTER_CFG

* * * * * * * * * * *  X D A T A   M E M O R Y  * * * * * * * * * * * * *
000000H   0004B5H   0004B6H   BYTE   UNIT     XDATA          _XDATA_GROUP_
0004B6H   000936H   000481H   BYTE   UNIT     XDATA          ?XD?COMMAND_PROCESSING
000937H   000BECH   0002B6H   BYTE   UNIT     XDATA          ?XD?GLOBALS
000BEDH   000CB1H   0000C5H   BYTE   UNIT     XDATA          ?XD?INTERRUPTIONS
000CB2H   000CF4H   000043H   BYTE   UNIT     XDATA          ?XD?CYPM
000CF5H   000D1EH   00002AH   BYTE   UNIT     XDATA          ?XD?UTILS
000D1FH   000D45H   000027H   BYTE   UNIT     XDATA          ?XD?UART_RS485
000D46H   000D55H   000010H   BYTE   UNIT     XDATA          ?XD?ADC
000D56H   000D64H   00000FH   BYTE   UNIT     XDATA          ?XD?CYLIB
000D65H   000D6AH   000006H   BYTE   UNIT     XDATA          ?XD?CYDMAC
000D6BH   000D6FH   000005H   BYTE   UNIT     XDATA          ?XD?CYFLASH
000D70H   000D73H   000004H   BYTE   UNIT     XDATA          ?XD?CYFITTER_CFG
000D74H   000D74H   000001H   BYTE   UNIT     XDATA          ?XD?PWM_MOTORS
000D75H   000D75H   000001H   BYTE   UNIT     XDATA          ?XD?WATCHDOG_COUNTER
000D76H   000D76H   000001H   BYTE   UNIT     XDATA          ?XD?SHIFTREG_ENC_3
000D77H   000D77H   000001H   BYTE   UNIT     XDATA          ?XD?COUNTER_ENC
000D78H   000D78H   000001H   BYTE   UNIT     XDATA          ?XD?SHIFTREG_ENC_1
000D79H   000D79H   000001H   BYTE   UNIT     XDATA          ?XD?SHIFTREG_ENC_2
000D7AH   000D7AH   000001H   BYTE   UNIT     XDATA          ?XD?PACER_TIMER
000D7BH   000D7BH   000001H   BYTE   UNIT     XDATA          ?XD?MY_TIMER
000D7CH   000D7CH   000001H   BYTE   UNIT     XDATA          ?XD?DMA_DMA
000D7DH   000D7DH   000001H   BYTE   UNIT     XDATA          ?XD?SHIFTREG_ENC_4
000D7EH   000D7EH   000001H   BYTE   UNIT     XDATA          ?XD?SHIFTREG_ENC_5
000D7FH   000D7FH   000001H   BYTE   UNIT     XDATA          ?XD?SHIFTREG_ENC_6
000D80H   000D80H   000001H   BYTE   UNIT     XDATA          ?XD?ADC_AMUX
000D81H   000D81H   000001H   BYTE   UNIT     XDATA          ?XD?CYSPC

* * * * * * * * *   R E M O V E D     S E G M E N T S   * * * * * * * *
   *DEL*:           00007AH   BYTE   UNIT     CODE           ?PR?_FILTER_VEL_1?UTILS
   *DEL*:           00007AH   BYTE   UNIT     CODE           ?PR?_FILTER_VEL_2?UTILS
   *DEL*:           00007AH   BYTE   UNIT     CODE           ?PR?_FILTER_VEL_3?UTILS
   *DEL*:           00004EH   BYTE   UNIT     CODE           ?PR?_GET_PWM_SIGN_1?UTILS
   *DEL*:           000004H   BYTE   UNIT     XDATA          ?XD?_GET_PWM_SIGN_1?UTILS
   *DEL*:           00004EH   BYTE   UNIT     CODE           ?PR?_GET_PWM_SIGN_2?UTILS
   *DEL*:           000004H   BYTE   UNIT     XDATA          ?XD?_GET_PWM_SIGN_2?UTILS
   *DEL*:           000013H   BYTE   UNIT     CODE           ?PR?ISR_RS485_RX_START?ISR_RS485_RX
   *DEL*:           000004H   BYTE   UNIT     CODE           ?PR?ISR_RS485_RX_STOP?ISR_RS485_RX
   *DEL*:           00000AH   BYTE   UNIT     CODE           ?PR?ISR_RS485_RX_GETVECTOR?ISR_RS485_RX
LX51 LINKER/LOCATER V4.64.0.0                                                         01/11/2017  18:17:27  PAGE 9


   *DEL*:           00000BH   BYTE   UNIT     CODE           ?PR?ISR_RS485_RX_GETPRIORITY?ISR_RS485_RX
   *DEL*:           00000EH   BYTE   UNIT     CODE           ?PR?ISR_RS485_RX_GETSTATE?ISR_RS485_RX
   *DEL*:           000007H   BYTE   UNIT     CODE           ?PR?ISR_RS485_RX_SETPENDING?ISR_RS485_RX
   *DEL*:           000007H   BYTE   UNIT     CODE           ?PR?ISR_RS485_RX_CLEARPENDING?ISR_RS485_RX
   *DEL*:           00000FH   BYTE   UNIT     CODE           ?PR?CLOCK_UART_START?CLOCK_UART
   *DEL*:           00000FH   BYTE   UNIT     CODE           ?PR?CLOCK_UART_STOP?CLOCK_UART
   *DEL*:           00006DH   BYTE   UNIT     CODE           ?PR?CLOCK_UART_STOPBLOCK?CLOCK_UART
   *DEL*:           000002H   BYTE   UNIT     XDATA          ?XD?CLOCK_UART_STOPBLOCK?CLOCK_UART
   *DEL*:           000013H   BYTE   UNIT     CODE           ?PR?_CLOCK_UART_STANDBYPOWER?CLOCK_UART
   *DEL*:           00000DH   BYTE   UNIT     CODE           ?PR?_CLOCK_UART_SETMODEREGISTER?CLOCK_UART
   *DEL*:           00000EH   BYTE   UNIT     CODE           ?PR?_CLOCK_UART_CLEARMODEREGISTER?CLOCK_UART
   *DEL*:           000008H   BYTE   UNIT     CODE           ?PR?CLOCK_UART_GETMODEREGISTER?CLOCK_UART
   *DEL*:           000062H   BYTE   UNIT     CODE           ?PR?_CLOCK_UART_SETSOURCEREGISTER?CLOCK_UART
   *DEL*:           000003H   BYTE   UNIT     XDATA          ?XD?_CLOCK_UART_SETSOURCEREGISTER?CLOCK_UART
   *DEL*:           000008H   BYTE   UNIT     CODE           ?PR?PWM_MOTORS_STOP?PWM_MOTORS
   *DEL*:           00000BH   BYTE   UNIT     CODE           ?PR?PWM_MOTORS_READCOUNTER?PWM_MOTORS
   *DEL*:           000006H   BYTE   UNIT     CODE           ?PR?PWM_MOTORS_READCONTROLREGISTER?PWM_MOTORS
   *DEL*:           000006H   BYTE   UNIT     CODE           ?PR?_PWM_MOTORS_WRITECONTROLREGISTER?PWM_MOTORS
   *DEL*:           000006H   BYTE   UNIT     CODE           ?PR?PWM_MOTORS_READCAPTURE?PWM_MOTORS
   *DEL*:           000006H   BYTE   UNIT     CODE           ?PR?PWM_MOTORS_READCOMPARE1?PWM_MOTORS
   *DEL*:           000006H   BYTE   UNIT     CODE           ?PR?PWM_MOTORS_READCOMPARE2?PWM_MOTORS
   *DEL*:           000006H   BYTE   UNIT     CODE           ?PR?PWM_MOTORS_READPERIOD?PWM_MOTORS
   *DEL*:           000006H   BYTE   UNIT     CODE           ?PR?WATCHDOG_REFRESH_READ?WATCHDOG_REFRESH
   *DEL*:           000006H   BYTE   UNIT     CODE           ?PR?WATCHDOG_ENABLER_READ?WATCHDOG_ENABLER
   *DEL*:           000016H   BYTE   UNIT     CODE           ?PR?WATCHDOG_COUNTER_STOP?WATCHDOG_COUNTER
   *DEL*:           000006H   BYTE   UNIT     CODE           ?PR?WATCHDOG_COUNTER_READSTATUSREGISTER?WATCHDOG_COUNTER
   *DEL*:           000006H   BYTE   UNIT     CODE           ?PR?WATCHDOG_COUNTER_READCONTROLREGISTER?WATCHDOG_COUNTER
   *DEL*:           000006H   BYTE   UNIT     CODE           ?PR?_WATCHDOG_COUNTER_WRITECONTROLREGISTER?WATCHDOG_COUNTE
                                                             -R
   *DEL*:           000013H   BYTE   UNIT     CODE           ?PR?WATCHDOG_COUNTER_READCOUNTER?WATCHDOG_COUNTER
   *DEL*:           00000AH   BYTE   UNIT     CODE           ?PR?WATCHDOG_COUNTER_READCAPTURE?WATCHDOG_COUNTER
   *DEL*:           00000AH   BYTE   UNIT     CODE           ?PR?WATCHDOG_COUNTER_READPERIOD?WATCHDOG_COUNTER
   *DEL*:           000013H   BYTE   UNIT     CODE           ?PR?ISR_WATCHDOG_START?ISR_WATCHDOG
   *DEL*:           000004H   BYTE   UNIT     CODE           ?PR?ISR_WATCHDOG_STOP?ISR_WATCHDOG
   *DEL*:           00000AH   BYTE   UNIT     CODE           ?PR?ISR_WATCHDOG_GETVECTOR?ISR_WATCHDOG
   *DEL*:           00000BH   BYTE   UNIT     CODE           ?PR?ISR_WATCHDOG_GETPRIORITY?ISR_WATCHDOG
   *DEL*:           00000EH   BYTE   UNIT     CODE           ?PR?ISR_WATCHDOG_GETSTATE?ISR_WATCHDOG
   *DEL*:           000007H   BYTE   UNIT     CODE           ?PR?ISR_WATCHDOG_SETPENDING?ISR_WATCHDOG
   *DEL*:           000007H   BYTE   UNIT     CODE           ?PR?ISR_WATCHDOG_CLEARPENDING?ISR_WATCHDOG
   *DEL*:           00000BH   BYTE   UNIT     CODE           ?PR?SHIFTREG_ENC_3_STOP?SHIFTREG_ENC_3
   *DEL*:           00000EH   BYTE   UNIT     CODE           ?PR?SHIFTREG_ENC_3_DISABLEINT?SHIFTREG_ENC_3
   *DEL*:           000036H   BYTE   UNIT     CODE           ?PR?_SHIFTREG_ENC_3_GETFIFOSTATUS?SHIFTREG_ENC_3
   *DEL*:           000008H   BYTE   UNIT     CODE           ?PR?SHIFTREG_ENC_3_GETINTSTATUS?SHIFTREG_ENC_3
   *DEL*:           00000AH   BYTE   UNIT     CODE           ?PR?_SHIFTREG_ENC_3_WRITEREGVALUE?SHIFTREG_ENC_3
   *DEL*:           000053H   BYTE   UNIT     CODE           ?PR?SHIFTREG_ENC_3_READREGVALUE?SHIFTREG_ENC_3
   *DEL*:           000004H   BYTE   UNIT     XDATA          ?XD?SHIFTREG_ENC_3_READREGVALUE?SHIFTREG_ENC_3
   *DEL*:           00000EH   BYTE   UNIT     CODE           ?PR?FF_STATUS_INTERRUPTENABLE?FF_STATUS
   *DEL*:           00000EH   BYTE   UNIT     CODE           ?PR?FF_STATUS_INTERRUPTDISABLE?FF_STATUS
   *DEL*:           000009H   BYTE   UNIT     CODE           ?PR?_FF_STATUS_WRITEMASK?FF_STATUS
   *DEL*:           000006H   BYTE   UNIT     CODE           ?PR?FF_STATUS_READMASK?FF_STATUS
   *DEL*:           000006H   BYTE   UNIT     CODE           ?PR?MOTOR_DIR_READ?MOTOR_DIR
   *DEL*:           000006H   BYTE   UNIT     CODE           ?PR?RESET_COUNTERS_READ?RESET_COUNTERS
   *DEL*:           000008H   BYTE   UNIT     CODE           ?PR?COUNTER_ENC_STOP?COUNTER_ENC
   *DEL*:           000006H   BYTE   UNIT     CODE           ?PR?COUNTER_ENC_READCONTROLREGISTER?COUNTER_ENC
   *DEL*:           000006H   BYTE   UNIT     CODE           ?PR?_COUNTER_ENC_WRITECONTROLREGISTER?COUNTER_ENC
   *DEL*:           00000BH   BYTE   UNIT     CODE           ?PR?COUNTER_ENC_READCOUNTER?COUNTER_ENC
   *DEL*:           000006H   BYTE   UNIT     CODE           ?PR?COUNTER_ENC_READPERIOD?COUNTER_ENC
   *DEL*:           000006H   BYTE   UNIT     CODE           ?PR?COUNTER_ENC_READCOMPARE?COUNTER_ENC
   *DEL*:           00000BH   BYTE   UNIT     CODE           ?PR?SHIFTREG_ENC_1_STOP?SHIFTREG_ENC_1
   *DEL*:           00000EH   BYTE   UNIT     CODE           ?PR?SHIFTREG_ENC_1_DISABLEINT?SHIFTREG_ENC_1
   *DEL*:           000036H   BYTE   UNIT     CODE           ?PR?_SHIFTREG_ENC_1_GETFIFOSTATUS?SHIFTREG_ENC_1
   *DEL*:           000008H   BYTE   UNIT     CODE           ?PR?SHIFTREG_ENC_1_GETINTSTATUS?SHIFTREG_ENC_1
   *DEL*:           00000AH   BYTE   UNIT     CODE           ?PR?_SHIFTREG_ENC_1_WRITEREGVALUE?SHIFTREG_ENC_1
   *DEL*:           000053H   BYTE   UNIT     CODE           ?PR?SHIFTREG_ENC_1_READREGVALUE?SHIFTREG_ENC_1
   *DEL*:           000004H   BYTE   UNIT     XDATA          ?XD?SHIFTREG_ENC_1_READREGVALUE?SHIFTREG_ENC_1
LX51 LINKER/LOCATER V4.64.0.0                                                         01/11/2017  18:17:27  PAGE 10


   *DEL*:           00000BH   BYTE   UNIT     CODE           ?PR?SHIFTREG_ENC_2_STOP?SHIFTREG_ENC_2
   *DEL*:           00000EH   BYTE   UNIT     CODE           ?PR?SHIFTREG_ENC_2_DISABLEINT?SHIFTREG_ENC_2
   *DEL*:           000036H   BYTE   UNIT     CODE           ?PR?_SHIFTREG_ENC_2_GETFIFOSTATUS?SHIFTREG_ENC_2
   *DEL*:           000008H   BYTE   UNIT     CODE           ?PR?SHIFTREG_ENC_2_GETINTSTATUS?SHIFTREG_ENC_2
   *DEL*:           00000AH   BYTE   UNIT     CODE           ?PR?_SHIFTREG_ENC_2_WRITEREGVALUE?SHIFTREG_ENC_2
   *DEL*:           000053H   BYTE   UNIT     CODE           ?PR?SHIFTREG_ENC_2_READREGVALUE?SHIFTREG_ENC_2
   *DEL*:           000004H   BYTE   UNIT     XDATA          ?XD?SHIFTREG_ENC_2_READREGVALUE?SHIFTREG_ENC_2
   *DEL*:           000006H   BYTE   UNIT     CODE           ?PR?RESET_FF_READ?RESET_FF
   *DEL*:           000016H   BYTE   UNIT     CODE           ?PR?PACER_TIMER_STOP?PACER_TIMER
   *DEL*:           00000AH   BYTE   UNIT     CODE           ?PR?PACER_TIMER_SOFTWARECAPTURE?PACER_TIMER
   *DEL*:           000006H   BYTE   UNIT     CODE           ?PR?PACER_TIMER_READSTATUSREGISTER?PACER_TIMER
   *DEL*:           000006H   BYTE   UNIT     CODE           ?PR?PACER_TIMER_READCONTROLREGISTER?PACER_TIMER
   *DEL*:           000006H   BYTE   UNIT     CODE           ?PR?_PACER_TIMER_WRITECONTROLREGISTER?PACER_TIMER
   *DEL*:           00000AH   BYTE   UNIT     CODE           ?PR?PACER_TIMER_READPERIOD?PACER_TIMER
   *DEL*:           00000AH   BYTE   UNIT     CODE           ?PR?PACER_TIMER_READCAPTURE?PACER_TIMER
   *DEL*:           000013H   BYTE   UNIT     CODE           ?PR?PACER_TIMER_READCOUNTER?PACER_TIMER
   *DEL*:           000016H   BYTE   UNIT     CODE           ?PR?MY_TIMER_STOP?MY_TIMER
   *DEL*:           00000AH   BYTE   UNIT     CODE           ?PR?MY_TIMER_SOFTWARECAPTURE?MY_TIMER
   *DEL*:           000006H   BYTE   UNIT     CODE           ?PR?MY_TIMER_READSTATUSREGISTER?MY_TIMER
   *DEL*:           000006H   BYTE   UNIT     CODE           ?PR?MY_TIMER_READCONTROLREGISTER?MY_TIMER
   *DEL*:           000006H   BYTE   UNIT     CODE           ?PR?_MY_TIMER_WRITECONTROLREGISTER?MY_TIMER
   *DEL*:           00000AH   BYTE   UNIT     CODE           ?PR?MY_TIMER_READPERIOD?MY_TIMER
   *DEL*:           00000AH   BYTE   UNIT     CODE           ?PR?MY_TIMER_READCAPTURE?MY_TIMER
   *DEL*:           0000FBH   BYTE   UNIT     CODE           ?PR?_BOOTLOADABLE_SETFLASHBYTE?BOOTLOADABLE
   *DEL*:           000110H   BYTE   UNIT     XDATA          ?XD?_BOOTLOADABLE_SETFLASHBYTE?BOOTLOADABLE
   *DEL*:           000006H   BYTE   UNIT     CODE           ?PR?MOTOR_ON_OFF_READ?MOTOR_ON_OFF
   *DEL*:           000006H   BYTE   UNIT     CODE           ?PR?FTDI_ENABLE_REG_READ?FTDI_ENABLE_REG
   *DEL*:           000006H   BYTE   UNIT     CODE           ?PR?RS485_CTS_READ?RS485_CTS
   *DEL*:           000004H   BYTE   UNIT     CODE           ?PR?EEPROM_STOP?EEPROM
   *DEL*:           000124H   BYTE   UNIT     CODE           ?PR?_EEPROM_WRITEBYTE?EEPROM
   *DEL*:           000008H   BYTE   UNIT     XDATA          ?XD?_EEPROM_WRITEBYTE?EEPROM
   *DEL*:           00003AH   BYTE   UNIT     CODE           ?PR?_EEPROM_READBYTE?EEPROM
   *DEL*:           000004H   BYTE   UNIT     XDATA          ?XD?_EEPROM_READBYTE?EEPROM
   *DEL*:           00006FH   BYTE   UNIT     CODE           ?PR?_EEPROM_ERASESECTOR?EEPROM
   *DEL*:           000002H   BYTE   UNIT     XDATA          ?XD?_EEPROM_ERASESECTOR?EEPROM
   *DEL*:           0000B9H   BYTE   UNIT     CODE           ?PR?_EEPROM_STARTWRITE?EEPROM
   *DEL*:           000005H   BYTE   UNIT     XDATA          ?XD?_EEPROM_STARTWRITE?EEPROM
   *DEL*:           000046H   BYTE   UNIT     CODE           ?PR?_EEPROM_STARTERASE?EEPROM
   *DEL*:           000002H   BYTE   UNIT     XDATA          ?XD?_EEPROM_STARTERASE?EEPROM
   *DEL*:           00003BH   BYTE   UNIT     CODE           ?PR?EEPROM_QUERY?EEPROM
   *DEL*:           000001H   BYTE   UNIT     XDATA          ?XD?EEPROM_QUERY?EEPROM
   *DEL*:           0000E5H   BYTE   UNIT     CODE           ?PR?_EEPROM_BYTEWRITEPOS?EEPROM
   *DEL*:           000004H   BYTE   UNIT     XDATA          ?XD?_EEPROM_BYTEWRITEPOS?EEPROM
   *DEL*:           000003H   BYTE   UNIT     CODE           ?PR?UART_RS485_READCONTROLREGISTER?UART_RS485
   *DEL*:           000006H   BYTE   UNIT     CODE           ?PR?_UART_RS485_WRITECONTROLREGISTER?UART_RS485
   *DEL*:           000001H   BYTE   UNIT     XDATA          ?XD?_UART_RS485_WRITECONTROLREGISTER?UART_RS485
   *DEL*:           000006H   BYTE   UNIT     CODE           ?PR?_UART_RS485_SETRXINTERRUPTMODE?UART_RS485
   *DEL*:           00004AH   BYTE   UNIT     CODE           ?PR?UART_RS485_READRXDATA?UART_RS485
   *DEL*:           00001FH   BYTE   UNIT     CODE           ?PR?UART_RS485_GETBYTE?UART_RS485
   *DEL*:           000006H   BYTE   UNIT     CODE           ?PR?_UART_RS485_SETRXADDRESSMODE?UART_RS485
   *DEL*:           000001H   BYTE   UNIT     XDATA          ?XD?_UART_RS485_SETRXADDRESSMODE?UART_RS485
   *DEL*:           000006H   BYTE   UNIT     CODE           ?PR?_UART_RS485_SETRXADDRESS1?UART_RS485
   *DEL*:           000006H   BYTE   UNIT     CODE           ?PR?_UART_RS485_SETRXADDRESS2?UART_RS485
   *DEL*:           000006H   BYTE   UNIT     CODE           ?PR?_UART_RS485_SETTXINTERRUPTMODE?UART_RS485
   *DEL*:           00000CH   BYTE   UNIT     CODE           ?PR?_UART_RS485_WRITETXDATA?UART_RS485
   *DEL*:           000032H   BYTE   UNIT     CODE           ?PR?_UART_RS485_PUTARRAY?UART_RS485
   *DEL*:           000003H   BYTE   UNIT     XDATA          ?XD?_UART_RS485_PUTARRAY?UART_RS485
   *DEL*:           000014H   BYTE   UNIT     CODE           ?PR?_UART_RS485_PUTCRLF?UART_RS485
   *DEL*:           000017H   BYTE   UNIT     CODE           ?PR?UART_RS485_GETTXBUFFERSIZE?UART_RS485
   *DEL*:           000059H   BYTE   UNIT     CODE           ?PR?_UART_RS485_SENDBREAK?UART_RS485
   *DEL*:           000001H   BYTE   UNIT     XDATA          ?XD?_UART_RS485_SENDBREAK?UART_RS485
   *DEL*:           000006H   BYTE   UNIT     CODE           ?PR?_UART_RS485_SETTXADDRESSMODE?UART_RS485
   *DEL*:           000001H   BYTE   UNIT     XDATA          ?XD?_UART_RS485_SETTXADDRESSMODE?UART_RS485
   *DEL*:           000088H   BYTE   UNIT     CODE           ?PR?ADC_STOP?ADC
   *DEL*:           000001H   BYTE   UNIT     XDATA          ?XD?ADC_STOP?ADC
LX51 LINKER/LOCATER V4.64.0.0                                                         01/11/2017  18:17:27  PAGE 11


   *DEL*:           000012H   BYTE   UNIT     CODE           ?PR?_ADC_SETBUFFERGAIN?ADC
   *DEL*:           00000EH   BYTE   UNIT     CODE           ?PR?_ADC_SETCOHERENCY?ADC
   *DEL*:           0000F2H   BYTE   UNIT     CODE           ?PR?_ADC_SETGCOR?ADC
   *DEL*:           00000BH   BYTE   UNIT     XDATA          ?XD?_ADC_SETGCOR?ADC
   *DEL*:           000039H   BYTE   UNIT     CODE           ?PR?ADC_READGCOR?ADC
   *DEL*:           000001H   BYTE   UNIT     XDATA          ?XD?ADC_READGCOR?ADC
   *DEL*:           000008H   BYTE   UNIT     CODE           ?PR?ADC_STARTCONVERT?ADC
   *DEL*:           000008H   BYTE   UNIT     CODE           ?PR?ADC_STOPCONVERT?ADC
   *DEL*:           00001FH   BYTE   UNIT     CODE           ?PR?_ADC_ISENDCONVERSION?ADC
   *DEL*:           00002CH   BYTE   UNIT     CODE           ?PR?ADC_GETRESULT8?ADC
   *DEL*:           000060H   BYTE   UNIT     CODE           ?PR?ADC_GETRESULT16?ADC
   *DEL*:           000003H   BYTE   UNIT     XDATA          ?XD?ADC_GETRESULT16?ADC
   *DEL*:           0001B4H   BYTE   UNIT     CODE           ?PR?ADC_GETRESULT32?ADC
   *DEL*:           000007H   BYTE   UNIT     XDATA          ?XD?ADC_GETRESULT32?ADC
   *DEL*:           000007H   BYTE   UNIT     CODE           ?PR?_ADC_SETOFFSET?ADC
   *DEL*:           000007H   BYTE   UNIT     CODE           ?PR?_ADC_SETGAIN?ADC
   *DEL*:           00005FH   BYTE   UNIT     CODE           ?PR?_ADC_COUNTSTO_MVOLTS?ADC
   *DEL*:           000004H   BYTE   UNIT     XDATA          ?XD?_ADC_COUNTSTO_MVOLTS?ADC
   *DEL*:           00006DH   BYTE   UNIT     CODE           ?PR?_ADC_COUNTSTO_VOLTS?ADC
   *DEL*:           000004H   BYTE   UNIT     XDATA          ?XD?_ADC_COUNTSTO_VOLTS?ADC
   *DEL*:           000137H   BYTE   UNIT     CODE           ?PR?_ADC_COUNTSTO_UVOLTS?ADC
   *DEL*:           00000DH   BYTE   UNIT     XDATA          ?XD?_ADC_COUNTSTO_UVOLTS?ADC
   *DEL*:           000072H   BYTE   UNIT     CODE           ?PR?_ADC_SELECTCONFIGURATION?ADC
   *DEL*:           000002H   BYTE   UNIT     XDATA          ?XD?_ADC_SELECTCONFIGURATION?ADC
   *DEL*:           000016H   BYTE   UNIT     CODE           ?PR?ADC_READ8?ADC
   *DEL*:           000016H   BYTE   UNIT     CODE           ?PR?ADC_READ16?ADC
   *DEL*:           000016H   BYTE   UNIT     CODE           ?PR?ADC_READ32?ADC
   *DEL*:           00000EH   BYTE   UNIT     CODE           ?PR?ADC_STATUS_INTERRUPTENABLE?ADC_STATUS
   *DEL*:           00000EH   BYTE   UNIT     CODE           ?PR?ADC_STATUS_INTERRUPTDISABLE?ADC_STATUS
   *DEL*:           000009H   BYTE   UNIT     CODE           ?PR?_ADC_STATUS_WRITEMASK?ADC_STATUS
   *DEL*:           000006H   BYTE   UNIT     CODE           ?PR?ADC_STATUS_READMASK?ADC_STATUS
   *DEL*:           000009H   BYTE   UNIT     CODE           ?PR?DMA_DMARELEASE?DMA_DMA
   *DEL*:           000006H   BYTE   UNIT     CODE           ?PR?ADC_SOC_READ?ADC_SOC
   *DEL*:           000006H   BYTE   UNIT     CODE           ?PR?POWER_ON_LED_REG_READ?POWER_ON_LED_REG
   *DEL*:           00000BH   BYTE   UNIT     CODE           ?PR?SHIFTREG_ENC_4_STOP?SHIFTREG_ENC_4
   *DEL*:           00000EH   BYTE   UNIT     CODE           ?PR?SHIFTREG_ENC_4_DISABLEINT?SHIFTREG_ENC_4
   *DEL*:           000036H   BYTE   UNIT     CODE           ?PR?_SHIFTREG_ENC_4_GETFIFOSTATUS?SHIFTREG_ENC_4
   *DEL*:           000008H   BYTE   UNIT     CODE           ?PR?SHIFTREG_ENC_4_GETINTSTATUS?SHIFTREG_ENC_4
   *DEL*:           00000AH   BYTE   UNIT     CODE           ?PR?_SHIFTREG_ENC_4_WRITEREGVALUE?SHIFTREG_ENC_4
   *DEL*:           000053H   BYTE   UNIT     CODE           ?PR?SHIFTREG_ENC_4_READREGVALUE?SHIFTREG_ENC_4
   *DEL*:           000004H   BYTE   UNIT     XDATA          ?XD?SHIFTREG_ENC_4_READREGVALUE?SHIFTREG_ENC_4
   *DEL*:           00000BH   BYTE   UNIT     CODE           ?PR?SHIFTREG_ENC_5_STOP?SHIFTREG_ENC_5
   *DEL*:           00000EH   BYTE   UNIT     CODE           ?PR?SHIFTREG_ENC_5_DISABLEINT?SHIFTREG_ENC_5
   *DEL*:           000036H   BYTE   UNIT     CODE           ?PR?_SHIFTREG_ENC_5_GETFIFOSTATUS?SHIFTREG_ENC_5
   *DEL*:           000008H   BYTE   UNIT     CODE           ?PR?SHIFTREG_ENC_5_GETINTSTATUS?SHIFTREG_ENC_5
   *DEL*:           00000AH   BYTE   UNIT     CODE           ?PR?_SHIFTREG_ENC_5_WRITEREGVALUE?SHIFTREG_ENC_5
   *DEL*:           000053H   BYTE   UNIT     CODE           ?PR?SHIFTREG_ENC_5_READREGVALUE?SHIFTREG_ENC_5
   *DEL*:           000004H   BYTE   UNIT     XDATA          ?XD?SHIFTREG_ENC_5_READREGVALUE?SHIFTREG_ENC_5
   *DEL*:           00000BH   BYTE   UNIT     CODE           ?PR?SHIFTREG_ENC_6_STOP?SHIFTREG_ENC_6
   *DEL*:           00000EH   BYTE   UNIT     CODE           ?PR?SHIFTREG_ENC_6_DISABLEINT?SHIFTREG_ENC_6
   *DEL*:           000036H   BYTE   UNIT     CODE           ?PR?_SHIFTREG_ENC_6_GETFIFOSTATUS?SHIFTREG_ENC_6
   *DEL*:           000008H   BYTE   UNIT     CODE           ?PR?SHIFTREG_ENC_6_GETINTSTATUS?SHIFTREG_ENC_6
   *DEL*:           00000AH   BYTE   UNIT     CODE           ?PR?_SHIFTREG_ENC_6_WRITEREGVALUE?SHIFTREG_ENC_6
   *DEL*:           000053H   BYTE   UNIT     CODE           ?PR?SHIFTREG_ENC_6_READREGVALUE?SHIFTREG_ENC_6
   *DEL*:           000004H   BYTE   UNIT     XDATA          ?XD?SHIFTREG_ENC_6_READREGVALUE?SHIFTREG_ENC_6
   *DEL*:           000012H   BYTE   UNIT     CODE           ?PR?CYDMACERROR?CYDMAC
   *DEL*:           000010H   BYTE   UNIT     CODE           ?PR?_CYDMACCLEARERROR?CYDMAC
   *DEL*:           00000AH   BYTE   UNIT     CODE           ?PR?CYDMACERRORADDRESS?CYDMAC
   *DEL*:           0000BEH   BYTE   UNIT     CODE           ?PR?CYDMACHALLOC?CYDMAC
   *DEL*:           000006H   BYTE   UNIT     XDATA          ?XD?CYDMACHALLOC?CYDMAC
   *DEL*:           000064H   BYTE   UNIT     CODE           ?PR?_CYDMACHFREE?CYDMAC
   *DEL*:           000003H   BYTE   UNIT     XDATA          ?XD?_CYDMACHFREE?CYDMAC
   *DEL*:           000033H   BYTE   UNIT     CODE           ?PR?_CYDMACHDISABLE?CYDMAC
   *DEL*:           000033H   BYTE   UNIT     CODE           ?PR?_CYDMACLEARPENDINGDRQ?CYDMAC
   *DEL*:           000025H   BYTE   UNIT     CODE           ?PR?_CYDMACHSETREQUEST?CYDMAC
LX51 LINKER/LOCATER V4.64.0.0                                                         01/11/2017  18:17:27  PAGE 12


   *DEL*:           000024H   BYTE   UNIT     CODE           ?PR?_CYDMACHGETREQUEST?CYDMAC
   *DEL*:           000072H   BYTE   UNIT     CODE           ?PR?_CYDMACHSTATUS?CYDMAC
   *DEL*:           000007H   BYTE   UNIT     XDATA          ?XD?_CYDMACHSTATUS?CYDMAC
   *DEL*:           00003EH   BYTE   UNIT     CODE           ?PR?_CYDMATDFREE?CYDMAC
   *DEL*:           000002H   BYTE   UNIT     XDATA          ?XD?_CYDMATDFREE?CYDMAC
   *DEL*:           000009H   BYTE   UNIT     CODE           ?PR?CYDMATDFREECOUNT?CYDMAC
   *DEL*:           0000C9H   BYTE   UNIT     CODE           ?PR?_CYDMATDGETCONFIGURATION?CYDMAC
   *DEL*:           00000DH   BYTE   UNIT     XDATA          ?XD?_CYDMATDGETCONFIGURATION?CYDMAC
   *DEL*:           0000A6H   BYTE   UNIT     CODE           ?PR?_CYDMATDGETADDRESS?CYDMAC
   *DEL*:           00000AH   BYTE   UNIT     XDATA          ?XD?_CYDMATDGETADDRESS?CYDMAC
   *DEL*:           000038H   BYTE   UNIT     CODE           ?PR?_CYDMACHROUNDROBIN?CYDMAC
   *DEL*:           00006EH   BYTE   UNIT     CODE           ?PR?_CYPLL_OUT_START?CYLIB
   *DEL*:           000004H   BYTE   UNIT     XDATA          ?XD?_CYPLL_OUT_START?CYLIB
   *DEL*:           000008H   BYTE   UNIT     CODE           ?PR?CYPLL_OUT_STOP?CYLIB
   *DEL*:           000036H   BYTE   UNIT     CODE           ?PR?_CYPLL_OUT_SETPQ?CYLIB
   *DEL*:           000010H   BYTE   UNIT     CODE           ?PR?_CYPLL_OUT_SETSOURCE?CYLIB
   *DEL*:           000053H   BYTE   UNIT     CODE           ?PR?_CYIMO_START?CYLIB
   *DEL*:           000003H   BYTE   UNIT     XDATA          ?XD?_CYIMO_START?CYLIB
   *DEL*:           00000FH   BYTE   UNIT     CODE           ?PR?CYIMO_STOP?CYLIB
   *DEL*:           000027H   BYTE   UNIT     CODE           ?PR?CYUSB_POWERONCHECK?CYLIB
   *DEL*:           0000B6H   BYTE   UNIT     CODE           ?PR?_CYIMO_SETTRIMVALUE?CYLIB
   *DEL*:           000001H   BYTE   UNIT     XDATA          ?XD?_CYIMO_SETTRIMVALUE?CYLIB
   *DEL*:           000118H   BYTE   UNIT     CODE           ?PR?_CYIMO_SETFREQ?CYLIB
   *DEL*:           000003H   BYTE   UNIT     XDATA          ?XD?_CYIMO_SETFREQ?CYLIB
   *DEL*:           00002FH   BYTE   UNIT     CODE           ?PR?_CYIMO_SETSOURCE?CYLIB
   *DEL*:           000008H   BYTE   UNIT     CODE           ?PR?CYIMO_ENABLEDOUBLER?CYLIB
   *DEL*:           000008H   BYTE   UNIT     CODE           ?PR?CYIMO_DISABLEDOUBLER?CYLIB
   *DEL*:           00000DH   BYTE   UNIT     CODE           ?PR?_CYMASTERCLK_SETSOURCE?CYLIB
   *DEL*:           000006H   BYTE   UNIT     CODE           ?PR?_CYMASTERCLK_SETDIVIDER?CYLIB
   *DEL*:           000023H   BYTE   UNIT     CODE           ?PR?_CYBUSCLK_INTERNAL_SETDIVIDER?CYLIB
   *DEL*:           00007AH   BYTE   UNIT     CODE           ?PR?_CYBUSCLK_SETDIVIDER?CYLIB
   *DEL*:           000002H   BYTE   UNIT     XDATA          ?XD?_CYBUSCLK_SETDIVIDER?CYLIB
   *DEL*:           00000EH   BYTE   UNIT     CODE           ?PR?_CYCPUCLK_SETDIVIDER?CYLIB
   *DEL*:           00000DH   BYTE   UNIT     CODE           ?PR?_CYUSBCLK_SETSOURCE?CYLIB
   *DEL*:           000008H   BYTE   UNIT     CODE           ?PR?CYILO_START1K?CYLIB
   *DEL*:           000008H   BYTE   UNIT     CODE           ?PR?CYILO_STOP1K?CYLIB
   *DEL*:           000008H   BYTE   UNIT     CODE           ?PR?CYILO_START100K?CYLIB
   *DEL*:           000008H   BYTE   UNIT     CODE           ?PR?CYILO_STOP100K?CYLIB
   *DEL*:           000008H   BYTE   UNIT     CODE           ?PR?CYILO_ENABLE33K?CYLIB
   *DEL*:           000008H   BYTE   UNIT     CODE           ?PR?CYILO_DISABLE33K?CYLIB
   *DEL*:           000011H   BYTE   UNIT     CODE           ?PR?_CYILO_SETSOURCE?CYLIB
   *DEL*:           000029H   BYTE   UNIT     CODE           ?PR?_CYILO_SETPOWERMODE?CYLIB
   *DEL*:           00005EH   BYTE   UNIT     CODE           ?PR?CYXTAL_32KHZ_START?CYLIB
   *DEL*:           000002H   BYTE   UNIT     XDATA          ?XD?CYXTAL_32KHZ_START?CYLIB
   *DEL*:           000020H   BYTE   UNIT     CODE           ?PR?CYXTAL_32KHZ_STOP?CYLIB
   *DEL*:           000008H   BYTE   UNIT     CODE           ?PR?CYXTAL_32KHZ_READSTATUS?CYLIB
   *DEL*:           000066H   BYTE   UNIT     CODE           ?PR?_CYXTAL_32KHZ_SETPOWERMODE?CYLIB
   *DEL*:           000001H   BYTE   UNIT     XDATA          ?XD?_CYXTAL_32KHZ_SETPOWERMODE?CYLIB
   *DEL*:           0000A0H   BYTE   UNIT     CODE           ?PR?_CYXTAL_START?CYLIB
   *DEL*:           000006H   BYTE   UNIT     XDATA          ?XD?_CYXTAL_START?CYLIB
   *DEL*:           000008H   BYTE   UNIT     CODE           ?PR?CYXTAL_STOP?CYLIB
   *DEL*:           000008H   BYTE   UNIT     CODE           ?PR?CYXTAL_ENABLEERRSTATUS?CYLIB
   *DEL*:           000008H   BYTE   UNIT     CODE           ?PR?CYXTAL_DISABLEERRSTATUS?CYLIB
   *DEL*:           00000FH   BYTE   UNIT     CODE           ?PR?CYXTAL_READSTATUS?CYLIB
   *DEL*:           000008H   BYTE   UNIT     CODE           ?PR?CYXTAL_ENABLEFAULTRECOVERY?CYLIB
   *DEL*:           000008H   BYTE   UNIT     CODE           ?PR?CYXTAL_DISABLEFAULTRECOVERY?CYLIB
   *DEL*:           00000DH   BYTE   UNIT     CODE           ?PR?_CYXTAL_SETSTARTUP?CYLIB
   *DEL*:           00000DH   BYTE   UNIT     CODE           ?PR?_CYXTAL_SETFBVOLTAGE?CYLIB
   *DEL*:           00000EH   BYTE   UNIT     CODE           ?PR?_CYXTAL_SETWDVOLTAGE?CYLIB
   *DEL*:           000015H   BYTE   UNIT     CODE           ?PR?_?CYHALT?CYLIB
   *DEL*:           0000B8H   BYTE   UNIT     CODE           ?PR?_?CYDELAYFREQ?CYLIB
   *DEL*:           000026H   BYTE   UNIT     CODE           ?PR?_CYWDTSTART?CYLIB
   *DEL*:           000007H   BYTE   UNIT     CODE           ?PR?CYWDTCLEAR?CYLIB
   *DEL*:           000084H   BYTE   UNIT     CODE           ?PR?_CYVDLVDIGITENABLE?CYLIB
   *DEL*:           000007H   BYTE   UNIT     XDATA          ?XD?_CYVDLVDIGITENABLE?CYLIB
LX51 LINKER/LOCATER V4.64.0.0                                                         01/11/2017  18:17:27  PAGE 13


   *DEL*:           000083H   BYTE   UNIT     CODE           ?PR?_CYVDLVANALOGENABLE?CYLIB
   *DEL*:           000007H   BYTE   UNIT     XDATA          ?XD?_CYVDLVANALOGENABLE?CYLIB
   *DEL*:           00001DH   BYTE   UNIT     CODE           ?PR?CYVDLVDIGITDISABLE?CYLIB
   *DEL*:           000018H   BYTE   UNIT     CODE           ?PR?CYVDLVANALOGDISABLE?CYLIB
   *DEL*:           000056H   BYTE   UNIT     CODE           ?PR?CYVDHVANALOGENABLE?CYLIB
   *DEL*:           000005H   BYTE   UNIT     XDATA          ?XD?CYVDHVANALOGENABLE?CYLIB
   *DEL*:           000011H   BYTE   UNIT     CODE           ?PR?CYVDHVANALOGDISABLE?CYLIB
   *DEL*:           000039H   BYTE   UNIT     CODE           ?PR?_CYVDSTICKYSTATUS?CYLIB
   *DEL*:           000002H   BYTE   UNIT     XDATA          ?XD?_CYVDSTICKYSTATUS?CYLIB
   *DEL*:           000018H   BYTE   UNIT     CODE           ?PR?CYVDREALTIMESTATUS?CYLIB
   *DEL*:           000001H   BYTE   UNIT     XDATA          ?XD?CYVDREALTIMESTATUS?CYLIB
   *DEL*:           0000D0H   BYTE   UNIT     CODE           ?PR?CYDISABLEINTS?CYLIB
   *DEL*:           000005H   BYTE   UNIT     XDATA          ?XD?CYDISABLEINTS?CYLIB
   *DEL*:           000067H   BYTE   UNIT     CODE           ?PR?_CYENABLEINTS?CYLIB
   *DEL*:           000004H   BYTE   UNIT     XDATA          ?XD?_CYENABLEINTS?CYLIB
   *DEL*:           000018H   BYTE   UNIT     CODE           ?PR?_CYINTGETVECTOR?CYLIB
   *DEL*:           000014H   BYTE   UNIT     CODE           ?PR?_CYINTGETPRIORITY?CYLIB
   *DEL*:           000036H   BYTE   UNIT     CODE           ?PR?_CYINTGETSTATE?CYLIB
   *DEL*:           000248H   BYTE   UNIT     CODE           ?PR?_CYGETUNIQUEID?CYLIB
   *DEL*:           000003H   BYTE   UNIT     XDATA          ?XD?_CYGETUNIQUEID?CYLIB
   *DEL*:           00001AH   BYTE   UNIT     CODE           ?PR?_SETANALOGROUTINGPUMPS?CYFITTER_CFG
   *DEL*:           000021H   BYTE   UNIT     CODE           ?PR?_ADC_AMUX_FASTSELECT?ADC_AMUX
   *DEL*:           000001H   BYTE   UNIT     XDATA          ?XD?_ADC_AMUX_FASTSELECT?ADC_AMUX
   *DEL*:           00000FH   BYTE   UNIT     CODE           ?PR?ADC_EXT_CP_CLK_START?ADC_EXT_CP_CLK
   *DEL*:           00000FH   BYTE   UNIT     CODE           ?PR?ADC_EXT_CP_CLK_STOP?ADC_EXT_CP_CLK
   *DEL*:           00006EH   BYTE   UNIT     CODE           ?PR?ADC_EXT_CP_CLK_STOPBLOCK?ADC_EXT_CP_CLK
   *DEL*:           000002H   BYTE   UNIT     XDATA          ?XD?ADC_EXT_CP_CLK_STOPBLOCK?ADC_EXT_CP_CLK
   *DEL*:           000013H   BYTE   UNIT     CODE           ?PR?_ADC_EXT_CP_CLK_STANDBYPOWER?ADC_EXT_CP_CLK
   *DEL*:           00000EH   BYTE   UNIT     CODE           ?PR?_ADC_EXT_CP_CLK_CLEARMODEREGISTER?ADC_EXT_CP_CLK
   *DEL*:           000008H   BYTE   UNIT     CODE           ?PR?ADC_EXT_CP_CLK_GETMODEREGISTER?ADC_EXT_CP_CLK
   *DEL*:           000062H   BYTE   UNIT     CODE           ?PR?_ADC_EXT_CP_CLK_SETSOURCEREGISTER?ADC_EXT_CP_CLK
   *DEL*:           000003H   BYTE   UNIT     XDATA          ?XD?_ADC_EXT_CP_CLK_SETSOURCEREGISTER?ADC_EXT_CP_CLK
   *DEL*:           00000FH   BYTE   UNIT     CODE           ?PR?ADC_THEACLK_START?ADC_THEACLK
   *DEL*:           00000FH   BYTE   UNIT     CODE           ?PR?ADC_THEACLK_STOP?ADC_THEACLK
   *DEL*:           00006CH   BYTE   UNIT     CODE           ?PR?ADC_THEACLK_STOPBLOCK?ADC_THEACLK
   *DEL*:           000002H   BYTE   UNIT     XDATA          ?XD?ADC_THEACLK_STOPBLOCK?ADC_THEACLK
   *DEL*:           000013H   BYTE   UNIT     CODE           ?PR?_ADC_THEACLK_STANDBYPOWER?ADC_THEACLK
   *DEL*:           00000EH   BYTE   UNIT     CODE           ?PR?_ADC_THEACLK_CLEARMODEREGISTER?ADC_THEACLK
   *DEL*:           000008H   BYTE   UNIT     CODE           ?PR?ADC_THEACLK_GETMODEREGISTER?ADC_THEACLK
   *DEL*:           000062H   BYTE   UNIT     CODE           ?PR?_ADC_THEACLK_SETSOURCEREGISTER?ADC_THEACLK
   *DEL*:           000003H   BYTE   UNIT     XDATA          ?XD?_ADC_THEACLK_SETSOURCEREGISTER?ADC_THEACLK
   *DEL*:           000008H   BYTE   UNIT     CODE           ?PR?_ADC_THEACLK_SETPHASEREGISTER?ADC_THEACLK
   *DEL*:           000008H   BYTE   UNIT     CODE           ?PR?ADC_THEACLK_GETPHASEREGISTER?ADC_THEACLK
   *DEL*:           000004H   BYTE   UNIT     CODE           ?PR?_CyDelay?CYBOOTASMKEIL
   *DEL*:           000031H   BYTE   UNIT     CODE           ?PR?CYFLASH_START?CYFLASH
   *DEL*:           000015H   BYTE   UNIT     CODE           ?PR?CYFLASH_STOP?CYFLASH
   *DEL*:           00007DH   BYTE   UNIT     CODE           ?PR?_CYSETFLASHEEBUFFER?CYFLASH
   *DEL*:           000004H   BYTE   UNIT     XDATA          ?XD?_CYSETFLASHEEBUFFER?CYFLASH
   *DEL*:           000034H   BYTE   UNIT     CODE           ?PR?_CYWRITEROWDATA?CYFLASH
   *DEL*:           000003H   BYTE   UNIT     XDATA          ?XD?_CYWRITEROWDATA?CYFLASH
   *DEL*:           000190H   BYTE   UNIT     CODE           ?PR?_CYWRITEROWFULL?CYFLASH
   *DEL*:           000009H   BYTE   UNIT     XDATA          ?XD?_CYWRITEROWFULL?CYFLASH
   *DEL*:           000044H   BYTE   UNIT     CODE           ?PR?_CYFLASH_SETWAITCYCLES?CYFLASH
   *DEL*:           000001H   BYTE   UNIT     XDATA          ?XD?_CYFLASH_SETWAITCYCLES?CYFLASH
   *DEL*:           000015H   BYTE   UNIT     CODE           ?PR?CYEEPROM_STOP?CYFLASH
   *DEL*:           000010H   BYTE   UNIT     CODE           ?PR?CYEEPROM_READRESERVE?CYFLASH
   *DEL*:           000008H   BYTE   UNIT     CODE           ?PR?CYEEPROM_READRELEASE?CYFLASH
   *DEL*:           000019H   BYTE   UNIT     CODE           ?PR?CYMEMZERO?CYMEM
   *DEL*:           00002DH   BYTE   UNIT     CODE           ?PR?CFG_WRITE_BYTES?CYMEM
   *DEL*:           00002EH   BYTE   UNIT     CODE           ?PR?CY_WRITE_BYTES_CODE?CYMEM
   *DEL*:           000012H   BYTE   UNIT     CODE           ?PR?CYWRITE24?CYMEM
   *DEL*:           000015H   BYTE   UNIT     CODE           ?PR?CYREAD32?CYMEM
   *DEL*:           000015H   BYTE   UNIT     CODE           ?PR?CYWRITE32?CYMEM
   *DEL*:           0001A9H   BYTE   UNIT     CODE           ?PR?CYPMSAVECLOCKS?CYPM
   *DEL*:           00024CH   BYTE   UNIT     CODE           ?PR?CYPMRESTORECLOCKS?CYPM
LX51 LINKER/LOCATER V4.64.0.0                                                         01/11/2017  18:17:27  PAGE 14


   *DEL*:           000003H   BYTE   UNIT     XDATA          ?XD?CYPMRESTORECLOCKS?CYPM
   *DEL*:           0000E0H   BYTE   UNIT     CODE           ?PR?_CYPMALTACT?CYPM
   *DEL*:           000004H   BYTE   UNIT     XDATA          ?XD?_CYPMALTACT?CYPM
   *DEL*:           000160H   BYTE   UNIT     CODE           ?PR?_CYPMSLEEP?CYPM
   *DEL*:           000004H   BYTE   UNIT     XDATA          ?XD?_CYPMSLEEP?CYPM
   *DEL*:           000008H   BYTE   UNIT     CODE           ?PR?CYPMHIBERNATE?CYPM
   *DEL*:           0000D6H   BYTE   UNIT     CODE           ?PR?_CYPMHIBERNATEEX?CYPM
   *DEL*:           000003H   BYTE   UNIT     XDATA          ?XD?_CYPMHIBERNATEEX?CYPM
   *DEL*:           000039H   BYTE   UNIT     CODE           ?PR?_CYPMREADSTATUS?CYPM
   *DEL*:           000002H   BYTE   UNIT     XDATA          ?XD?_CYPMREADSTATUS?CYPM
   *DEL*:           000076H   BYTE   UNIT     CODE           ?PR?CYPMHIBSAVESET?CYPM
   *DEL*:           000040H   BYTE   UNIT     CODE           ?PR?CYPMHIBRESTORE?CYPM
   *DEL*:           000049H   BYTE   UNIT     CODE           ?PR?_CYPMCTWSETINTERVAL?CYPM
   *DEL*:           000001H   BYTE   UNIT     XDATA          ?XD?_CYPMCTWSETINTERVAL?CYPM
   *DEL*:           000017H   BYTE   UNIT     CODE           ?PR?CYPMOPPSSET?CYPM
   *DEL*:           00004DH   BYTE   UNIT     CODE           ?PR?_CYPMFTWSETINTERVAL?CYPM
   *DEL*:           000001H   BYTE   UNIT     XDATA          ?XD?_CYPMFTWSETINTERVAL?CYPM
   *DEL*:           00018CH   BYTE   UNIT     CODE           ?PR?CYPMHIBSLPSAVESET?CYPM
   *DEL*:           00010DH   BYTE   UNIT     CODE           ?PR?CYPMHIBSLPRESTORE?CYPM
   *DEL*:           000082H   BYTE   UNIT     CODE           ?PR?CYPMHVILVISAVEDISABLE?CYPM
   *DEL*:           000033H   BYTE   UNIT     CODE           ?PR?CYPMHVILVIRESTORE?CYPM
   *DEL*:           00000EH   BYTE   UNIT     CONST          ?CO?CYPM
   *DEL*:           000015H   BYTE   UNIT     CODE           ?PR?CYSPCSTOP?CYSPC
   *DEL*:           0000A7H   BYTE   UNIT     CODE           ?PR?_CYSPCLOADMULTIBYTE?CYSPC
   *DEL*:           000007H   BYTE   UNIT     XDATA          ?XD?_CYSPCLOADMULTIBYTE?CYSPC
   *DEL*:           000143H   BYTE   UNIT     CODE           ?PR?_CYSPCLOADROWFULL?CYSPC
   *DEL*:           00000FH   BYTE   UNIT     XDATA          ?XD?_CYSPCLOADROWFULL?CYSPC
   *DEL*:           000030H   BYTE   UNIT     CODE           ?PR?_CYSPCERASESECTOR?CYSPC



OVERLAY MAP OF MODULE:   .\DP8051_Keil_951\Release\qbmove_adv_firmware.omf (COMMAND_PROCESSING)


FUNCTION/MODULE                                BIT_GROUP   DATA_GROUP   IDATA_GROUP  XDATA_GROUP
--> CALLED FUNCTION/MODULE                    START  STOP  START  STOP  START  STOP  START  STOP
================================================================================================
ISR_WATCHDOG_HANDLER/INTERRUPTIONS            ----- -----  ----- -----  ----- -----  ----- -----

*** NEW ROOT ********************************

ISR_RS485_RX_EXINTERRUPT/INTERRUPTIONS        ----- -----  ----- -----  ----- -----  ----- -----

*** NEW ROOT ********************************

ISR_RS485_RX_INTERRUPT/ISR_RS485_RX           ----- -----  ----- -----  ----- -----  ----- -----

*** NEW ROOT ********************************

ISR_WATCHDOG_INTERRUPT/ISR_WATCHDOG           ----- -----  ----- -----  ----- -----  ----- -----

*** NEW ROOT ********************************

?C_C51STARTUP                                 ----- -----  ----- -----  ----- -----  ----- -----
  +--> ?CO?KEILSTART?3
  +--> CYFITTER_CFG/CYFITTER_CFG
  +--> CYDMACCONFIGURE/CYDMAC
  +--> MAIN/MAIN
  +--> ?C_INITSEG

?CO?KEILSTART?3                               ----- -----  ----- -----  ----- -----  ----- -----

CYFITTER_CFG/CYFITTER_CFG                     ----- -----  ----- -----  ----- -----  ----- -----
  +--> CYREAD8/CYMEM
  +--> CYWRITE8/CYMEM
LX51 LINKER/LOCATER V4.64.0.0                                                         01/11/2017  18:17:27  PAGE 15


  +--> CFG_DMA_INIT/CYFITTER_CFG
  +--> ?CO?CYFITTER_CFG
  +--> CYCONFIGCPYCODE/CYMEM
  +--> CLOCKSETUP/CYFITTER_CFG
  +--> ANALOGSETDEFAULT/CYFITTER_CFG
  +--> _CYCONFIGCPY/CYMEM

CYREAD8/CYMEM                                 ----- -----  ----- -----  ----- -----  ----- -----

CYWRITE8/CYMEM                                ----- -----  ----- -----  ----- -----  ----- -----

CFG_DMA_INIT/CYFITTER_CFG                     ----- -----  ----- -----  ----- -----  ----- -----
  +--> CYWRITE16/CYMEM
  +--> ?CO?CYFITTER_CFG
  +--> _CYCONFIGCPY/CYMEM

CYWRITE16/CYMEM                               ----- -----  ----- -----  ----- -----  ----- -----

?CO?CYFITTER_CFG                              ----- -----  ----- -----  ----- -----  ----- -----

_CYCONFIGCPY/CYMEM                            ----- -----  ----- -----  ----- -----  0000H 0007H

CYCONFIGCPYCODE/CYMEM                         ----- -----  ----- -----  ----- -----  ----- -----

CLOCKSETUP/CYFITTER_CFG                       ----- -----  ----- -----  ----- -----  0000H 0004H
  +--> CYWRITE16/CYMEM
  +--> ?CO?CYFITTER_CFG
  +--> CYCONFIGCPYCODE/CYMEM
  +--> CYREAD8/CYMEM
  +--> CYDELAYCYCLES/CYBOOTASMKEIL
  +--> _CYCLOCKSTARTUPERROR/CYFITTER_CFG

CYDELAYCYCLES/CYBOOTASMKEIL                   ----- -----  ----- -----  ----- -----  ----- -----

_CYCLOCKSTARTUPERROR/CYFITTER_CFG             ----- -----  ----- -----  ----- -----  ----- -----

ANALOGSETDEFAULT/CYFITTER_CFG                 ----- -----  ----- -----  ----- -----  ----- -----
  +--> CYREAD8/CYMEM

CYDMACCONFIGURE/CYDMAC                        ----- -----  ----- -----  ----- -----  ----- -----

MAIN/MAIN                                     ----- -----  ----- -----  ----- -----  0000H 0001H
  +--> EEPROM_START/EEPROM
  +--> MEMRECALL/COMMAND_PROCESSING
  +--> _?CYDELAY/CYLIB
  +--> _FTDI_ENABLE_REG_WRITE/FTDI_ENABLE_REG
  +--> UART_RS485_STOP/UART_RS485
  +--> UART_RS485_START/UART_RS485
  +--> UART_RS485_INIT/UART_RS485
  +--> UART_RS485_CLEARRXBUFFER/UART_RS485
  +--> UART_RS485_CLEARTXBUFFER/UART_RS485
  +--> _ISR_RS485_RX_STARTEX/ISR_RS485_RX
  +--> WATCHDOG_COUNTER_START/WATCHDOG_COUNTER
  +--> _ISR_WATCHDOG_STARTEX/ISR_WATCHDOG
  +--> PWM_MOTORS_START/PWM_MOTORS
  +--> _PWM_MOTORS_WRITECOMPARE1/PWM_MOTORS
  +--> _PWM_MOTORS_WRITECOMPARE2/PWM_MOTORS
  +--> _MOTOR_DIR_WRITE/MOTOR_DIR
  +--> _MOTOR_ON_OFF_WRITE/MOTOR_ON_OFF
  +--> COUNTER_ENC_START/COUNTER_ENC
  +--> SHIFTREG_ENC_1_START/SHIFTREG_ENC_1
  +--> SHIFTREG_ENC_2_START/SHIFTREG_ENC_2
  +--> SHIFTREG_ENC_3_START/SHIFTREG_ENC_3
  +--> SHIFTREG_ENC_4_START/SHIFTREG_ENC_4
  +--> SHIFTREG_ENC_5_START/SHIFTREG_ENC_5
LX51 LINKER/LOCATER V4.64.0.0                                                         01/11/2017  18:17:27  PAGE 16


  +--> SHIFTREG_ENC_6_START/SHIFTREG_ENC_6
  +--> ADC_START/ADC
  +--> _ADC_SOC_WRITE/ADC_SOC
  +--> _DMA_DMAINITIALIZE/DMA_DMA
  +--> CYDMATDALLOCATE/CYDMAC
  +--> _CYDMATDSETCONFIGURATION/CYDMAC
  +--> _CYDMATDSETADDRESS/CYDMAC
  +--> _CYDMACHSETINITIALTD/CYDMAC
  +--> _CYDMACHENABLE/CYDMAC
  +--> _RS485_CTS_WRITE/RS485_CTS
  +--> MY_TIMER_START/MY_TIMER
  +--> PACER_TIMER_START/PACER_TIMER
  +--> RESET_COUNTERS/UTILS
  +--> _RESET_COUNTERS_WRITE/RESET_COUNTERS
  +--> _WATCHDOG_ENABLER_WRITE/WATCHDOG_ENABLER
  +--> _RESET_FF_WRITE/RESET_FF
  +--> FUNCTION_SCHEDULER/INTERRUPTIONS
  +--> FF_STATUS_READ/FF_STATUS
  +--> _WATCHDOG_REFRESH_WRITE/WATCHDOG_REFRESH
  +--> INTERRUPT_MANAGER/INTERRUPTIONS
  +--> UART_RS485_READRXSTATUS/UART_RS485

EEPROM_START/EEPROM                           ----- -----  ----- -----  ----- -----  ----- -----
  +--> EEPROM_ENABLE/EEPROM

EEPROM_ENABLE/EEPROM                          ----- -----  ----- -----  ----- -----  ----- -----
  +--> CYSETTEMP/CYFLASH
  +--> CYEEPROM_START/CYFLASH

CYSETTEMP/CYFLASH                             ----- -----  ----- -----  ----- -----  000AH 000AH
  +--> CYFLASHGETSPCALGORITHM/CYFLASH
  +--> CYSETTEMPINT/CYFLASH

CYFLASHGETSPCALGORITHM/CYFLASH                ----- -----  ----- -----  ----- -----  000BH 000BH
  +--> CYSPCSTART/CYSPC
  +--> CYSPCLOCK/CYSPC
  +--> CYSPCGETALGORITHM/CYSPC
  +--> CYDELAYUS/CYBOOTASMKEIL
  +--> CYSPCUNLOCK/CYSPC

CYSPCSTART/CYSPC                              ----- -----  ----- -----  ----- -----  ----- -----
  +--> CYENTERCRITICALSECTION/CYBOOTASMKEIL
  +--> CYEXITCRITICALSECTION/CYBOOTASMKEIL

CYENTERCRITICALSECTION/CYBOOTASMKEIL          ----- -----  ----- -----  ----- -----  ----- -----

CYEXITCRITICALSECTION/CYBOOTASMKEIL           ----- -----  ----- -----  ----- -----  ----- -----

CYSPCLOCK/CYSPC                               ----- -----  ----- -----  ----- -----  000FH 000FH
  +--> CYENTERCRITICALSECTION/CYBOOTASMKEIL
  +--> CYEXITCRITICALSECTION/CYBOOTASMKEIL

CYSPCGETALGORITHM/CYSPC                       ----- -----  ----- -----  ----- -----  ----- -----

CYDELAYUS/CYBOOTASMKEIL                       ----- -----  ----- -----  ----- -----  ----- -----
  +--> CYDELAYCYCLES/CYBOOTASMKEIL

CYSPCUNLOCK/CYSPC                             ----- -----  ----- -----  ----- -----  ----- -----
  +--> CYENTERCRITICALSECTION/CYBOOTASMKEIL
  +--> CYEXITCRITICALSECTION/CYBOOTASMKEIL

CYSETTEMPINT/CYFLASH                          ----- -----  ----- -----  ----- -----  000BH 000BH
  +--> CYSPCSTART/CYSPC
  +--> CYSPCLOCK/CYSPC
  +--> _CYSPCGETTEMP/CYSPC
LX51 LINKER/LOCATER V4.64.0.0                                                         01/11/2017  18:17:27  PAGE 17


  +--> _CYSPCREADDATA/CYSPC
  +--> CYDELAYUS/CYBOOTASMKEIL
  +--> CYSPCUNLOCK/CYSPC

_CYSPCGETTEMP/CYSPC                           ----- -----  ----- -----  ----- -----  ----- -----

_CYSPCREADDATA/CYSPC                          ----- -----  ----- -----  ----- -----  000CH 0010H
  +--> CYDELAYUS/CYBOOTASMKEIL

CYEEPROM_START/CYFLASH                        ----- -----  ----- -----  ----- -----  ----- -----
  +--> CYENTERCRITICALSECTION/CYBOOTASMKEIL
  +--> CYEXITCRITICALSECTION/CYBOOTASMKEIL

MEMRECALL/COMMAND_PROCESSING                  ----- -----  ----- -----  ----- -----  ----- -----
  +--> MEMRESTORE/COMMAND_PROCESSING

MEMRESTORE/COMMAND_PROCESSING                 ----- -----  ----- -----  ----- -----  ----- -----
  +--> MEMINIT/COMMAND_PROCESSING
  +--> _MEMSTORE/COMMAND_PROCESSING

MEMINIT/COMMAND_PROCESSING                    ----- -----  ----- -----  ----- -----  ----- -----
  +--> _MEMSTORE/COMMAND_PROCESSING

_MEMSTORE/COMMAND_PROCESSING                  ----- -----  ----- -----  ----- -----  0003H 0009H
  +--> _PWM_MOTORS_WRITECOMPARE1/PWM_MOTORS
  +--> _PWM_MOTORS_WRITECOMPARE2/PWM_MOTORS
  +--> EEPROM_UPDATETEMPERATURE/EEPROM
  +--> _EEPROM_WRITE/EEPROM

_PWM_MOTORS_WRITECOMPARE1/PWM_MOTORS          ----- -----  ----- -----  ----- -----  ----- -----

_PWM_MOTORS_WRITECOMPARE2/PWM_MOTORS          ----- -----  ----- -----  ----- -----  ----- -----

EEPROM_UPDATETEMPERATURE/EEPROM               ----- -----  ----- -----  ----- -----  ----- -----
  +--> CYSETTEMP/CYFLASH

_EEPROM_WRITE/EEPROM                          ----- -----  ----- -----  ----- -----  000AH 000EH
  +--> CYSPCSTART/CYSPC
  +--> CYSPCLOCK/CYSPC
  +--> _CYSPCLOADROW/CYSPC
  +--> _CYSPCWRITEROW/CYSPC
  +--> CYSPCUNLOCK/CYSPC

_CYSPCLOADROW/CYSPC                           ----- -----  ----- -----  ----- -----  000FH 0015H

_CYSPCWRITEROW/CYSPC                          ----- -----  ----- -----  ----- -----  000FH 0013H

_?CYDELAY/CYLIB                               ----- -----  ----- -----  ----- -----  ----- -----
  +--> CYDELAYCYCLES/CYBOOTASMKEIL

_FTDI_ENABLE_REG_WRITE/FTDI_ENABLE_REG        ----- -----  ----- -----  ----- -----  ----- -----

UART_RS485_STOP/UART_RS485                    ----- -----  ----- -----  ----- -----  ----- -----
  +--> CYENTERCRITICALSECTION/CYBOOTASMKEIL
  +--> CYEXITCRITICALSECTION/CYBOOTASMKEIL

UART_RS485_START/UART_RS485                   ----- -----  ----- -----  ----- -----  ----- -----
  +--> UART_RS485_INIT/UART_RS485
  +--> UART_RS485_ENABLE/UART_RS485

UART_RS485_INIT/UART_RS485                    ----- -----  ----- -----  ----- -----  ----- -----
  +--> _CYINTSETVECTOR/CYLIB
  +--> _CYINTSETPRIORITY/CYLIB

_CYINTSETVECTOR/CYLIB                         ----- -----  ----- -----  ----- -----  0002H 0006H
LX51 LINKER/LOCATER V4.64.0.0                                                         01/11/2017  18:17:27  PAGE 18


  +--> CYREAD16/CYMEM
  +--> CYWRITE16/CYMEM

CYREAD16/CYMEM                                ----- -----  ----- -----  ----- -----  ----- -----

_CYINTSETPRIORITY/CYLIB                       ----- -----  ----- -----  ----- -----  ----- -----

UART_RS485_ENABLE/UART_RS485                  ----- -----  ----- -----  ----- -----  ----- -----
  +--> CYENTERCRITICALSECTION/CYBOOTASMKEIL
  +--> CYEXITCRITICALSECTION/CYBOOTASMKEIL

UART_RS485_CLEARRXBUFFER/UART_RS485           ----- -----  ----- -----  ----- -----  ----- -----
  +--> CYENTERCRITICALSECTION/CYBOOTASMKEIL
  +--> CYEXITCRITICALSECTION/CYBOOTASMKEIL

UART_RS485_CLEARTXBUFFER/UART_RS485           ----- -----  ----- -----  ----- -----  ----- -----
  +--> CYENTERCRITICALSECTION/CYBOOTASMKEIL
  +--> CYEXITCRITICALSECTION/CYBOOTASMKEIL

_ISR_RS485_RX_STARTEX/ISR_RS485_RX            ----- -----  ----- -----  ----- -----  0002H 0003H
  +--> ISR_RS485_RX_DISABLE/ISR_RS485_RX
  +--> _ISR_RS485_RX_SETVECTOR/ISR_RS485_RX
  +--> _ISR_RS485_RX_SETPRIORITY/ISR_RS485_RX
  +--> ISR_RS485_RX_ENABLE/ISR_RS485_RX

ISR_RS485_RX_DISABLE/ISR_RS485_RX             ----- -----  ----- -----  ----- -----  ----- -----

_ISR_RS485_RX_SETVECTOR/ISR_RS485_RX          ----- -----  ----- -----  ----- -----  ----- -----
  +--> CYWRITE16/CYMEM

_ISR_RS485_RX_SETPRIORITY/ISR_RS485_RX        ----- -----  ----- -----  ----- -----  ----- -----

ISR_RS485_RX_ENABLE/ISR_RS485_RX              ----- -----  ----- -----  ----- -----  ----- -----

WATCHDOG_COUNTER_START/WATCHDOG_COUNTER       ----- -----  ----- -----  ----- -----  ----- -----
  +--> WATCHDOG_COUNTER_INIT/WATCHDOG_COUNTER
  +--> WATCHDOG_COUNTER_ENABLE/WATCHDOG_COUNTER

WATCHDOG_COUNTER_INIT/WATCHDOG_COUNTER        ----- -----  ----- -----  ----- -----  ----- -----
  +--> _WATCHDOG_COUNTER_WRITEPERIOD/WATCHDOG_COUNTER
  +--> _WATCHDOG_COUNTER_WRITECOUNTER/WATCHDOG_COUNTER
  +--> _WATCHDOG_COUNTER_SETINTERRUPTMODE/WATCHDOG_COUNTER

_WATCHDOG_COUNTER_WRITEPERIOD/WATCHDOG_C+     ----- -----  ----- -----  ----- -----  ----- -----
... OUNTER
  +--> CYWRITE16/CYMEM

_WATCHDOG_COUNTER_WRITECOUNTER/WATCHDOG_+     ----- -----  ----- -----  ----- -----  ----- -----
... COUNTER
  +--> CYWRITE16/CYMEM

_WATCHDOG_COUNTER_SETINTERRUPTMODE/WATCH+     ----- -----  ----- -----  ----- -----  ----- -----
... DOG_COUNTER

WATCHDOG_COUNTER_ENABLE/WATCHDOG_COUNTER      ----- -----  ----- -----  ----- -----  ----- -----

_ISR_WATCHDOG_STARTEX/ISR_WATCHDOG            ----- -----  ----- -----  ----- -----  0002H 0003H
  +--> ISR_WATCHDOG_DISABLE/ISR_WATCHDOG
  +--> _ISR_WATCHDOG_SETVECTOR/ISR_WATCHDOG
  +--> _ISR_WATCHDOG_SETPRIORITY/ISR_WATCHDOG
  +--> ISR_WATCHDOG_ENABLE/ISR_WATCHDOG

ISR_WATCHDOG_DISABLE/ISR_WATCHDOG             ----- -----  ----- -----  ----- -----  ----- -----

_ISR_WATCHDOG_SETVECTOR/ISR_WATCHDOG          ----- -----  ----- -----  ----- -----  ----- -----
LX51 LINKER/LOCATER V4.64.0.0                                                         01/11/2017  18:17:27  PAGE 19


  +--> CYWRITE16/CYMEM

_ISR_WATCHDOG_SETPRIORITY/ISR_WATCHDOG        ----- -----  ----- -----  ----- -----  ----- -----

ISR_WATCHDOG_ENABLE/ISR_WATCHDOG              ----- -----  ----- -----  ----- -----  ----- -----

PWM_MOTORS_START/PWM_MOTORS                   ----- -----  ----- -----  ----- -----  ----- -----
  +--> PWM_MOTORS_INIT/PWM_MOTORS
  +--> PWM_MOTORS_ENABLE/PWM_MOTORS

PWM_MOTORS_INIT/PWM_MOTORS                    ----- -----  ----- -----  ----- -----  ----- -----
  +--> _PWM_MOTORS_WRITECOUNTER/PWM_MOTORS
  +--> _PWM_MOTORS_WRITEPERIOD/PWM_MOTORS
  +--> _PWM_MOTORS_WRITECOMPARE1/PWM_MOTORS
  +--> _PWM_MOTORS_WRITECOMPARE2/PWM_MOTORS

_PWM_MOTORS_WRITECOUNTER/PWM_MOTORS           ----- -----  ----- -----  ----- -----  ----- -----

_PWM_MOTORS_WRITEPERIOD/PWM_MOTORS            ----- -----  ----- -----  ----- -----  ----- -----

PWM_MOTORS_ENABLE/PWM_MOTORS                  ----- -----  ----- -----  ----- -----  ----- -----

_MOTOR_DIR_WRITE/MOTOR_DIR                    ----- -----  ----- -----  ----- -----  ----- -----

_MOTOR_ON_OFF_WRITE/MOTOR_ON_OFF              ----- -----  ----- -----  ----- -----  ----- -----

COUNTER_ENC_START/COUNTER_ENC                 ----- -----  ----- -----  ----- -----  ----- -----
  +--> COUNTER_ENC_INIT/COUNTER_ENC
  +--> COUNTER_ENC_ENABLE/COUNTER_ENC

COUNTER_ENC_INIT/COUNTER_ENC                  ----- -----  ----- -----  ----- -----  ----- -----
  +--> COUNTER_ENC_CLEARFIFO/COUNTER_ENC
  +--> _COUNTER_ENC_WRITEPERIOD/COUNTER_ENC
  +--> _COUNTER_ENC_WRITECOUNTER/COUNTER_ENC
  +--> _COUNTER_ENC_SETINTERRUPTMODE/COUNTER_ENC
  +--> COUNTER_ENC_READSTATUSREGISTER/COUNTER_ENC
  +--> _COUNTER_ENC_WRITECOMPARE/COUNTER_ENC
  +--> CYENTERCRITICALSECTION/CYBOOTASMKEIL
  +--> CYEXITCRITICALSECTION/CYBOOTASMKEIL

COUNTER_ENC_CLEARFIFO/COUNTER_ENC             ----- -----  ----- -----  ----- -----  ----- -----
  +--> COUNTER_ENC_READSTATUSREGISTER/COUNTER_ENC
  +--> COUNTER_ENC_READCAPTURE/COUNTER_ENC

COUNTER_ENC_READSTATUSREGISTER/COUNTER_E+     ----- -----  ----- -----  ----- -----  ----- -----
... NC

COUNTER_ENC_READCAPTURE/COUNTER_ENC           ----- -----  ----- -----  ----- -----  ----- -----

_COUNTER_ENC_WRITEPERIOD/COUNTER_ENC          ----- -----  ----- -----  ----- -----  ----- -----

_COUNTER_ENC_WRITECOUNTER/COUNTER_ENC         ----- -----  ----- -----  ----- -----  ----- -----

_COUNTER_ENC_SETINTERRUPTMODE/COUNTER_EN+     ----- -----  ----- -----  ----- -----  ----- -----
... C

_COUNTER_ENC_WRITECOMPARE/COUNTER_ENC         ----- -----  ----- -----  ----- -----  ----- -----

COUNTER_ENC_ENABLE/COUNTER_ENC                ----- -----  ----- -----  ----- -----  ----- -----

SHIFTREG_ENC_1_START/SHIFTREG_ENC_1           ----- -----  ----- -----  ----- -----  ----- -----
  +--> SHIFTREG_ENC_1_INIT/SHIFTREG_ENC_1
  +--> SHIFTREG_ENC_1_ENABLE/SHIFTREG_ENC_1

SHIFTREG_ENC_1_INIT/SHIFTREG_ENC_1            ----- -----  ----- -----  ----- -----  ----- -----
LX51 LINKER/LOCATER V4.64.0.0                                                         01/11/2017  18:17:27  PAGE 20


  +--> _SHIFTREG_ENC_1_SETINTMODE/SHIFTREG_ENC_1

_SHIFTREG_ENC_1_SETINTMODE/SHIFTREG_ENC_+     ----- -----  ----- -----  ----- -----  ----- -----
... 1

SHIFTREG_ENC_1_ENABLE/SHIFTREG_ENC_1          ----- -----  ----- -----  ----- -----  ----- -----
  +--> SHIFTREG_ENC_1_ENABLEINT/SHIFTREG_ENC_1

SHIFTREG_ENC_1_ENABLEINT/SHIFTREG_ENC_1       ----- -----  ----- -----  ----- -----  ----- -----
  +--> CYENTERCRITICALSECTION/CYBOOTASMKEIL
  +--> CYEXITCRITICALSECTION/CYBOOTASMKEIL

SHIFTREG_ENC_2_START/SHIFTREG_ENC_2           ----- -----  ----- -----  ----- -----  ----- -----
  +--> SHIFTREG_ENC_2_INIT/SHIFTREG_ENC_2
  +--> SHIFTREG_ENC_2_ENABLE/SHIFTREG_ENC_2

SHIFTREG_ENC_2_INIT/SHIFTREG_ENC_2            ----- -----  ----- -----  ----- -----  ----- -----
  +--> _SHIFTREG_ENC_2_SETINTMODE/SHIFTREG_ENC_2

_SHIFTREG_ENC_2_SETINTMODE/SHIFTREG_ENC_+     ----- -----  ----- -----  ----- -----  ----- -----
... 2

SHIFTREG_ENC_2_ENABLE/SHIFTREG_ENC_2          ----- -----  ----- -----  ----- -----  ----- -----
  +--> SHIFTREG_ENC_2_ENABLEINT/SHIFTREG_ENC_2

SHIFTREG_ENC_2_ENABLEINT/SHIFTREG_ENC_2       ----- -----  ----- -----  ----- -----  ----- -----
  +--> CYENTERCRITICALSECTION/CYBOOTASMKEIL
  +--> CYEXITCRITICALSECTION/CYBOOTASMKEIL

SHIFTREG_ENC_3_START/SHIFTREG_ENC_3           ----- -----  ----- -----  ----- -----  ----- -----
  +--> SHIFTREG_ENC_3_INIT/SHIFTREG_ENC_3
  +--> SHIFTREG_ENC_3_ENABLE/SHIFTREG_ENC_3

SHIFTREG_ENC_3_INIT/SHIFTREG_ENC_3            ----- -----  ----- -----  ----- -----  ----- -----
  +--> _SHIFTREG_ENC_3_SETINTMODE/SHIFTREG_ENC_3

_SHIFTREG_ENC_3_SETINTMODE/SHIFTREG_ENC_+     ----- -----  ----- -----  ----- -----  ----- -----
... 3

SHIFTREG_ENC_3_ENABLE/SHIFTREG_ENC_3          ----- -----  ----- -----  ----- -----  ----- -----
  +--> SHIFTREG_ENC_3_ENABLEINT/SHIFTREG_ENC_3

SHIFTREG_ENC_3_ENABLEINT/SHIFTREG_ENC_3       ----- -----  ----- -----  ----- -----  ----- -----
  +--> CYENTERCRITICALSECTION/CYBOOTASMKEIL
  +--> CYEXITCRITICALSECTION/CYBOOTASMKEIL

SHIFTREG_ENC_4_START/SHIFTREG_ENC_4           ----- -----  ----- -----  ----- -----  ----- -----
  +--> SHIFTREG_ENC_4_INIT/SHIFTREG_ENC_4
  +--> SHIFTREG_ENC_4_ENABLE/SHIFTREG_ENC_4

SHIFTREG_ENC_4_INIT/SHIFTREG_ENC_4            ----- -----  ----- -----  ----- -----  ----- -----
  +--> _SHIFTREG_ENC_4_SETINTMODE/SHIFTREG_ENC_4

_SHIFTREG_ENC_4_SETINTMODE/SHIFTREG_ENC_+     ----- -----  ----- -----  ----- -----  ----- -----
... 4

SHIFTREG_ENC_4_ENABLE/SHIFTREG_ENC_4          ----- -----  ----- -----  ----- -----  ----- -----
  +--> SHIFTREG_ENC_4_ENABLEINT/SHIFTREG_ENC_4

SHIFTREG_ENC_4_ENABLEINT/SHIFTREG_ENC_4       ----- -----  ----- -----  ----- -----  ----- -----
  +--> CYENTERCRITICALSECTION/CYBOOTASMKEIL
  +--> CYEXITCRITICALSECTION/CYBOOTASMKEIL

SHIFTREG_ENC_5_START/SHIFTREG_ENC_5           ----- -----  ----- -----  ----- -----  ----- -----
  +--> SHIFTREG_ENC_5_INIT/SHIFTREG_ENC_5
LX51 LINKER/LOCATER V4.64.0.0                                                         01/11/2017  18:17:27  PAGE 21


  +--> SHIFTREG_ENC_5_ENABLE/SHIFTREG_ENC_5

SHIFTREG_ENC_5_INIT/SHIFTREG_ENC_5            ----- -----  ----- -----  ----- -----  ----- -----
  +--> _SHIFTREG_ENC_5_SETINTMODE/SHIFTREG_ENC_5

_SHIFTREG_ENC_5_SETINTMODE/SHIFTREG_ENC_+     ----- -----  ----- -----  ----- -----  ----- -----
... 5

SHIFTREG_ENC_5_ENABLE/SHIFTREG_ENC_5          ----- -----  ----- -----  ----- -----  ----- -----
  +--> SHIFTREG_ENC_5_ENABLEINT/SHIFTREG_ENC_5

SHIFTREG_ENC_5_ENABLEINT/SHIFTREG_ENC_5       ----- -----  ----- -----  ----- -----  ----- -----
  +--> CYENTERCRITICALSECTION/CYBOOTASMKEIL
  +--> CYEXITCRITICALSECTION/CYBOOTASMKEIL

SHIFTREG_ENC_6_START/SHIFTREG_ENC_6           ----- -----  ----- -----  ----- -----  ----- -----
  +--> SHIFTREG_ENC_6_INIT/SHIFTREG_ENC_6
  +--> SHIFTREG_ENC_6_ENABLE/SHIFTREG_ENC_6

SHIFTREG_ENC_6_INIT/SHIFTREG_ENC_6            ----- -----  ----- -----  ----- -----  ----- -----
  +--> _SHIFTREG_ENC_6_SETINTMODE/SHIFTREG_ENC_6

_SHIFTREG_ENC_6_SETINTMODE/SHIFTREG_ENC_+     ----- -----  ----- -----  ----- -----  ----- -----
... 6

SHIFTREG_ENC_6_ENABLE/SHIFTREG_ENC_6          ----- -----  ----- -----  ----- -----  ----- -----
  +--> SHIFTREG_ENC_6_ENABLEINT/SHIFTREG_ENC_6

SHIFTREG_ENC_6_ENABLEINT/SHIFTREG_ENC_6       ----- -----  ----- -----  ----- -----  ----- -----
  +--> CYENTERCRITICALSECTION/CYBOOTASMKEIL
  +--> CYEXITCRITICALSECTION/CYBOOTASMKEIL

ADC_START/ADC                                 ----- -----  ----- -----  ----- -----  ----- -----
  +--> ADC_INIT/ADC
  +--> ADC_ENABLE/ADC

ADC_INIT/ADC                                  ----- -----  ----- -----  ----- -----  ----- -----
  +--> _ADC_EXT_CP_CLK_SETMODEREGISTER/ADC_EXT_CP_CLK
  +--> _ADC_THEACLK_SETMODEREGISTER/ADC_THEACLK
  +--> _CYINTSETPRIORITY/CYLIB
  +--> _ADC_GAINCOMPENSATION/ADC
  +--> CYWRITE16/CYMEM
  +--> _ADC_INITCONFIG/ADC

_ADC_EXT_CP_CLK_SETMODEREGISTER/ADC_EXT_+     ----- -----  ----- -----  ----- -----  ----- -----
... CP_CLK

_ADC_THEACLK_SETMODEREGISTER/ADC_THEACLK      ----- -----  ----- -----  ----- -----  ----- -----

_ADC_GAINCOMPENSATION/ADC                     ----- -----  ----- -----  ----- -----  0002H 0009H
  +--> CYREAD8/CYMEM

_ADC_INITCONFIG/ADC                           ----- -----  ----- -----  ----- -----  ----- -----
  +--> _ADC_SETDSMREF0REG/ADC
  +--> _ADC_AMUX_SELECT/ADC_AMUX
  +--> _ADC_EXT_CP_CLK_SETDIVIDERREGISTER/ADC_EXT_CP_CLK
  +--> _ADC_THEACLK_SETDIVIDERREGISTER/ADC_THEACLK
  +--> _CYINTSETVECTOR/CYLIB

_ADC_SETDSMREF0REG/ADC                        ----- -----  ----- -----  ----- -----  0002H 0003H
  +--> CYENTERCRITICALSECTION/CYBOOTASMKEIL
  +--> CYDELAYUS/CYBOOTASMKEIL
  +--> CYEXITCRITICALSECTION/CYBOOTASMKEIL

_ADC_AMUX_SELECT/ADC_AMUX                     ----- -----  ----- -----  ----- -----  0002H 0002H
LX51 LINKER/LOCATER V4.64.0.0                                                         01/11/2017  18:17:27  PAGE 22


  +--> ADC_AMUX_START/ADC_AMUX
  +--> _ADC_AMUX_SET/CYFITTER_CFG

ADC_AMUX_START/ADC_AMUX                       ----- -----  ----- -----  ----- -----  0003H 0003H
  +--> _ADC_AMUX_UNSET/CYFITTER_CFG

_ADC_AMUX_UNSET/CYFITTER_CFG                  ----- -----  ----- -----  ----- -----  ----- -----
  +--> ?CO?CYFITTER_CFG

_ADC_AMUX_SET/CYFITTER_CFG                    ----- -----  ----- -----  ----- -----  ----- -----
  +--> ?CO?CYFITTER_CFG

_ADC_EXT_CP_CLK_SETDIVIDERREGISTER/ADC_E+     ----- -----  ----- -----  ----- -----  0002H 0008H
... XT_CP_CLK
  +--> ADC_EXT_CP_CLK_GETSOURCEREGISTER/ADC_EXT_CP_CLK
  +--> ADC_EXT_CP_CLK_GETDIVIDERREGISTER/ADC_EXT_CP_CLK
  +--> CYWRITE16/CYMEM

ADC_EXT_CP_CLK_GETSOURCEREGISTER/ADC_EXT+     ----- -----  ----- -----  ----- -----  ----- -----
... _CP_CLK

ADC_EXT_CP_CLK_GETDIVIDERREGISTER/ADC_EX+     ----- -----  ----- -----  ----- -----  ----- -----
... T_CP_CLK
  +--> CYREAD16/CYMEM

_ADC_THEACLK_SETDIVIDERREGISTER/ADC_THEA+     ----- -----  ----- -----  ----- -----  0002H 0008H
... CLK
  +--> ADC_THEACLK_GETSOURCEREGISTER/ADC_THEACLK
  +--> ADC_THEACLK_GETDIVIDERREGISTER/ADC_THEACLK
  +--> CYWRITE16/CYMEM

ADC_THEACLK_GETSOURCEREGISTER/ADC_THEACL+     ----- -----  ----- -----  ----- -----  ----- -----
... K

ADC_THEACLK_GETDIVIDERREGISTER/ADC_THEAC+     ----- -----  ----- -----  ----- -----  ----- -----
... LK
  +--> CYREAD16/CYMEM

ADC_ENABLE/ADC                                ----- -----  ----- -----  ----- -----  0002H 0003H
  +--> CYENTERCRITICALSECTION/CYBOOTASMKEIL
  +--> CYDELAYUS/CYBOOTASMKEIL
  +--> CYEXITCRITICALSECTION/CYBOOTASMKEIL

_ADC_SOC_WRITE/ADC_SOC                        ----- -----  ----- -----  ----- -----  ----- -----

_DMA_DMAINITIALIZE/DMA_DMA                    ----- -----  ----- -----  ----- -----  0002H 0007H
  +--> _CYDMACHSETCONFIGURATION/CYDMAC
  +--> _CYDMACHSETEXTENDEDADDRESS/CYDMAC
  +--> _CYDMACHPRIORITY/CYDMAC

_CYDMACHSETCONFIGURATION/CYDMAC               ----- -----  ----- -----  ----- -----  0008H 000DH

_CYDMACHSETEXTENDEDADDRESS/CYDMAC             ----- -----  ----- -----  ----- -----  0008H 000FH
  +--> CYWRITE16/CYMEM

_CYDMACHPRIORITY/CYDMAC                       ----- -----  ----- -----  ----- -----  ----- -----

CYDMATDALLOCATE/CYDMAC                        ----- -----  ----- -----  ----- -----  0002H 0002H
  +--> CYENTERCRITICALSECTION/CYBOOTASMKEIL
  +--> CYEXITCRITICALSECTION/CYBOOTASMKEIL

_CYDMATDSETCONFIGURATION/CYDMAC               ----- -----  ----- -----  ----- -----  0002H 0009H
  +--> CYWRITE16/CYMEM

_CYDMATDSETADDRESS/CYDMAC                     ----- -----  ----- -----  ----- -----  0002H 0009H
LX51 LINKER/LOCATER V4.64.0.0                                                         01/11/2017  18:17:27  PAGE 23


  +--> CYWRITE16/CYMEM

_CYDMACHSETINITIALTD/CYDMAC                   ----- -----  ----- -----  ----- -----  ----- -----

_CYDMACHENABLE/CYDMAC                         ----- -----  ----- -----  ----- -----  ----- -----

_RS485_CTS_WRITE/RS485_CTS                    ----- -----  ----- -----  ----- -----  ----- -----

MY_TIMER_START/MY_TIMER                       ----- -----  ----- -----  ----- -----  ----- -----
  +--> MY_TIMER_INIT/MY_TIMER
  +--> MY_TIMER_ENABLE/MY_TIMER

MY_TIMER_INIT/MY_TIMER                        ----- -----  ----- -----  ----- -----  ----- -----
  +--> _MY_TIMER_WRITEPERIOD/MY_TIMER
  +--> _MY_TIMER_WRITECOUNTER/MY_TIMER
  +--> _MY_TIMER_SETINTERRUPTMODE/MY_TIMER

_MY_TIMER_WRITEPERIOD/MY_TIMER                ----- -----  ----- -----  ----- -----  ----- -----
  +--> CYWRITE16/CYMEM

_MY_TIMER_WRITECOUNTER/MY_TIMER               ----- -----  ----- -----  ----- -----  ----- -----
  +--> CYWRITE16/CYMEM

_MY_TIMER_SETINTERRUPTMODE/MY_TIMER           ----- -----  ----- -----  ----- -----  ----- -----

MY_TIMER_ENABLE/MY_TIMER                      ----- -----  ----- -----  ----- -----  ----- -----

PACER_TIMER_START/PACER_TIMER                 ----- -----  ----- -----  ----- -----  ----- -----
  +--> PACER_TIMER_INIT/PACER_TIMER
  +--> PACER_TIMER_ENABLE/PACER_TIMER

PACER_TIMER_INIT/PACER_TIMER                  ----- -----  ----- -----  ----- -----  ----- -----
  +--> _PACER_TIMER_WRITEPERIOD/PACER_TIMER
  +--> _PACER_TIMER_WRITECOUNTER/PACER_TIMER
  +--> _PACER_TIMER_SETINTERRUPTMODE/PACER_TIMER

_PACER_TIMER_WRITEPERIOD/PACER_TIMER          ----- -----  ----- -----  ----- -----  ----- -----
  +--> CYWRITE16/CYMEM

_PACER_TIMER_WRITECOUNTER/PACER_TIMER         ----- -----  ----- -----  ----- -----  ----- -----
  +--> CYWRITE16/CYMEM

_PACER_TIMER_SETINTERRUPTMODE/PACER_TIME+     ----- -----  ----- -----  ----- -----  ----- -----
... R

PACER_TIMER_ENABLE/PACER_TIMER                ----- -----  ----- -----  ----- -----  ----- -----

RESET_COUNTERS/UTILS                          ----- -----  ----- -----  ----- -----  ----- -----

_RESET_COUNTERS_WRITE/RESET_COUNTERS          ----- -----  ----- -----  ----- -----  ----- -----

_WATCHDOG_ENABLER_WRITE/WATCHDOG_ENABLER      ----- -----  ----- -----  ----- -----  ----- -----

_RESET_FF_WRITE/RESET_FF                      ----- -----  ----- -----  ----- -----  ----- -----

FUNCTION_SCHEDULER/INTERRUPTIONS              ----- -----  ----- -----  ----- -----  ----- -----
  +--> MY_TIMER_READCOUNTER/MY_TIMER
  +--> _ADC_SOC_WRITE/ADC_SOC
  +--> INTERRUPT_MANAGER/INTERRUPTIONS
  +--> _ENCODER_READING/INTERRUPTIONS
  +--> _MOTOR_CONTROL/INTERRUPTIONS
  +--> ANALOG_READ_END/INTERRUPTIONS
  +--> CALIBRATION/INTERRUPTIONS
  +--> _MY_TIMER_WRITECOUNTER/MY_TIMER

LX51 LINKER/LOCATER V4.64.0.0                                                         01/11/2017  18:17:27  PAGE 24


MY_TIMER_READCOUNTER/MY_TIMER                 ----- -----  ----- -----  ----- -----  ----- -----
  +--> CYREAD16/CYMEM

INTERRUPT_MANAGER/INTERRUPTIONS               20H.0 20H.0  006CH 006DH  ----- -----  ----- -----
  +--> UART_RS485_GETRXBUFFERSIZE/UART_RS485
  +--> UART_RS485_GETCHAR/UART_RS485
  +--> _INFOGET/COMMAND_PROCESSING
  +--> COMMPROCESS/COMMAND_PROCESSING
  +--> _RS485_CTS_WRITE/RS485_CTS

UART_RS485_GETRXBUFFERSIZE/UART_RS485         ----- -----  ----- -----  ----- -----  ----- -----

UART_RS485_GETCHAR/UART_RS485                 ----- -----  ----- -----  ----- -----  ----- -----

_INFOGET/COMMAND_PROCESSING                   ----- -----  ----- -----  ----- -----  0003H 044EH
  +--> _INFOPREPARE/COMMAND_PROCESSING
  +--> _UART_RS485_PUTSTRING/UART_RS485

_INFOPREPARE/COMMAND_PROCESSING               ----- -----  ----- -----  ----- -----  044FH 0485H
  +--> ?CO?COMMAND_PROCESSING
  +--> _STRCAT/STRCAT
  +--> PRINTF/PRINTF

?CO?COMMAND_PROCESSING                        ----- -----  ----- -----  ----- -----  ----- -----

_STRCAT/STRCAT                                ----- -----  ----- -----  ----- -----  0486H 048EH

PRINTF/PRINTF                                 20H.1 21H.1  006EH 0072H  ----- -----  0486H 04B5H
  +--> PUTCHAR/PUTCHAR

PUTCHAR/PUTCHAR                               ----- -----  ----- -----  ----- -----  ----- -----

_UART_RS485_PUTSTRING/UART_RS485              ----- -----  ----- -----  ----- -----  044FH 0451H
  +--> _UART_RS485_PUTCHAR/UART_RS485

_UART_RS485_PUTCHAR/UART_RS485                ----- -----  ----- -----  ----- -----  ----- -----

COMMPROCESS/COMMAND_PROCESSING                ----- -----  ----- -----  ----- -----  0002H 0002H
  +--> _LCRCHECKSUM/UTILS
  +--> CMD_GET_MEASUREMENTS/COMMAND_PROCESSING
  +--> CMD_GET_INPUTS/COMMAND_PROCESSING
  +--> CMD_GET_CURRENTS/COMMAND_PROCESSING
  +--> CMD_GET_CURR_AND_MEAS/COMMAND_PROCESSING
  +--> CMD_SET_INPUTS/COMMAND_PROCESSING
  +--> CMD_SET_POS_STIFF/COMMAND_PROCESSING
  +--> CMD_GET_VELOCITIES/COMMAND_PROCESSING
  +--> CMD_ACTIVATE/COMMAND_PROCESSING
  +--> CMD_SET_WATCHDOG/COMMAND_PROCESSING
  +--> CMD_GET_ACTIVATE/COMMAND_PROCESSING
  +--> CMD_SET_BAUDRATE/COMMAND_PROCESSING
  +--> _INFOGET/COMMAND_PROCESSING
  +--> SETZEROS/COMMAND_PROCESSING
  +--> _GET_PARAM_LIST/COMMAND_PROCESSING
  +--> CMD_PING/COMMAND_PROCESSING
  +--> CMD_STORE_PARAMS/COMMAND_PROCESSING
  +--> _MEMSTORE/COMMAND_PROCESSING
  +--> _SENDACKNOWLEDGMENT/COMMAND_PROCESSING
  +--> MEMRESTORE/COMMAND_PROCESSING
  +--> MEMINIT/COMMAND_PROCESSING
  +--> _?CYDELAY/CYLIB
  +--> _FTDI_ENABLE_REG_WRITE/FTDI_ENABLE_REG
  +--> BOOTLOADABLE_LOAD/BOOTLOADABLE
  +--> CMD_GET_COUNTERS/COMMAND_PROCESSING

_LCRCHECKSUM/UTILS                            ----- -----  007BH 007CH  ----- -----  0214H 0216H
LX51 LINKER/LOCATER V4.64.0.0                                                         01/11/2017  18:17:27  PAGE 25



CMD_GET_MEASUREMENTS/COMMAND_PROCESSING       ----- -----  006EH 006EH  ----- -----  0003H 0010H
  +--> _LCRCHECKSUM/UTILS
  +--> _COMMWRITE/COMMAND_PROCESSING

_COMMWRITE/COMMAND_PROCESSING                 ----- -----  007BH 007CH  ----- -----  0214H 0218H
  +--> _UART_RS485_PUTCHAR/UART_RS485
  +--> UART_RS485_READTXSTATUS/UART_RS485
  +--> _RS485_CTS_WRITE/RS485_CTS

UART_RS485_READTXSTATUS/UART_RS485            ----- -----  ----- -----  ----- -----  ----- -----

CMD_GET_INPUTS/COMMAND_PROCESSING             ----- -----  ----- -----  ----- -----  0003H 0008H
  +--> _LCRCHECKSUM/UTILS
  +--> _COMMWRITE/COMMAND_PROCESSING

CMD_GET_CURRENTS/COMMAND_PROCESSING           ----- -----  ----- -----  ----- -----  0003H 0008H
  +--> _LCRCHECKSUM/UTILS
  +--> _COMMWRITE/COMMAND_PROCESSING

CMD_GET_CURR_AND_MEAS/COMMAND_PROCESSING      ----- -----  006EH 006EH  ----- -----  0003H 000EH
  +--> _LCRCHECKSUM/UTILS
  +--> _COMMWRITE/COMMAND_PROCESSING

CMD_SET_INPUTS/COMMAND_PROCESSING             ----- -----  ----- -----  ----- -----  ----- -----

CMD_SET_POS_STIFF/COMMAND_PROCESSING          ----- -----  006EH 0075H  ----- -----  ----- -----

CMD_GET_VELOCITIES/COMMAND_PROCESSING         ----- -----  006EH 006EH  ----- -----  0003H 000AH
  +--> _LCRCHECKSUM/UTILS
  +--> _COMMWRITE/COMMAND_PROCESSING

CMD_ACTIVATE/COMMAND_PROCESSING               ----- -----  ----- -----  ----- -----  ----- -----
  +--> _MOTOR_ON_OFF_WRITE/MOTOR_ON_OFF

CMD_SET_WATCHDOG/COMMAND_PROCESSING           ----- -----  ----- -----  ----- -----  ----- -----
  +--> _WATCHDOG_ENABLER_WRITE/WATCHDOG_ENABLER
  +--> _WATCHDOG_COUNTER_WRITEPERIOD/WATCHDOG_COUNTER

CMD_GET_ACTIVATE/COMMAND_PROCESSING           ----- -----  ----- -----  ----- -----  0003H 0005H
  +--> _LCRCHECKSUM/UTILS
  +--> _COMMWRITE/COMMAND_PROCESSING

CMD_SET_BAUDRATE/COMMAND_PROCESSING           ----- -----  ----- -----  ----- -----  ----- -----
  +--> _CLOCK_UART_SETDIVIDERREGISTER/CLOCK_UART

_CLOCK_UART_SETDIVIDERREGISTER/CLOCK_UAR+     ----- -----  ----- -----  ----- -----  0003H 0009H
... T
  +--> CLOCK_UART_GETSOURCEREGISTER/CLOCK_UART
  +--> CLOCK_UART_GETDIVIDERREGISTER/CLOCK_UART
  +--> CYWRITE16/CYMEM

CLOCK_UART_GETSOURCEREGISTER/CLOCK_UART       ----- -----  ----- -----  ----- -----  ----- -----

CLOCK_UART_GETDIVIDERREGISTER/CLOCK_UART      ----- -----  ----- -----  ----- -----  ----- -----
  +--> CYREAD16/CYMEM

SETZEROS/COMMAND_PROCESSING                   ----- -----  ----- -----  ----- -----  0003H 0003H
  +--> _SENDACKNOWLEDGMENT/COMMAND_PROCESSING

_SENDACKNOWLEDGMENT/COMMAND_PROCESSING        ----- -----  ----- -----  ----- -----  0004H 0005H
  +--> _COMMWRITE/COMMAND_PROCESSING

_GET_PARAM_LIST/COMMAND_PROCESSING            ----- -----  006EH 007AH  ----- -----  0003H 0213H
  +--> ?CO?COMMAND_PROCESSING
LX51 LINKER/LOCATER V4.64.0.0                                                         01/11/2017  18:17:27  PAGE 26


  +--> _STRLEN/STRLEN
  +--> _STRCAT/STRCAT
  +--> _LCRCHECKSUM/UTILS
  +--> _COMMWRITE/COMMAND_PROCESSING
  +--> UART_RS485_CLEARTXBUFFER/UART_RS485

_STRLEN/STRLEN                                ----- -----  ----- -----  ----- -----  ----- -----

CMD_PING/COMMAND_PROCESSING                   ----- -----  ----- -----  ----- -----  0003H 0004H
  +--> _COMMWRITE/COMMAND_PROCESSING

CMD_STORE_PARAMS/COMMAND_PROCESSING           ----- -----  006EH 0071H  ----- -----  ----- -----
  +--> _MEMSTORE/COMMAND_PROCESSING
  +--> _COMMWRITE_OLD_ID/COMMAND_PROCESSING
  +--> _SENDACKNOWLEDGMENT/COMMAND_PROCESSING

_COMMWRITE_OLD_ID/COMMAND_PROCESSING          ----- -----  0072H 0073H  ----- -----  0003H 0008H
  +--> _UART_RS485_PUTCHAR/UART_RS485
  +--> UART_RS485_READTXSTATUS/UART_RS485
  +--> _RS485_CTS_WRITE/RS485_CTS

BOOTLOADABLE_LOAD/BOOTLOADABLE                ----- -----  ----- -----  ----- -----  ----- -----
  +--> CYSOFTWARERESET/CYLIB

CYSOFTWARERESET/CYLIB                         ----- -----  ----- -----  ----- -----  ----- -----

CMD_GET_COUNTERS/COMMAND_PROCESSING           ----- -----  ----- -----  ----- -----  0003H 002CH
  +--> _LCRCHECKSUM/UTILS
  +--> _COMMWRITE/COMMAND_PROCESSING

_ENCODER_READING/INTERRUPTIONS                ----- -----  0023H 0023H  ----- -----  0002H 000DH
  +--> SHIFTREG_ENC_1_READDATA/SHIFTREG_ENC_1
  +--> SHIFTREG_ENC_2_READDATA/SHIFTREG_ENC_2
  +--> SHIFTREG_ENC_3_READDATA/SHIFTREG_ENC_3
  +--> SHIFTREG_ENC_4_READDATA/SHIFTREG_ENC_4
  +--> SHIFTREG_ENC_5_READDATA/SHIFTREG_ENC_5
  +--> SHIFTREG_ENC_6_READDATA/SHIFTREG_ENC_6
  +--> _CHECK_ENC_DATA/UTILS
  +--> _ABS/ABS

SHIFTREG_ENC_1_READDATA/SHIFTREG_ENC_1        ----- -----  ----- -----  ----- -----  ----- -----
  +--> CYREAD24/CYMEM

CYREAD24/CYMEM                                ----- -----  ----- -----  ----- -----  ----- -----

SHIFTREG_ENC_2_READDATA/SHIFTREG_ENC_2        ----- -----  ----- -----  ----- -----  ----- -----
  +--> CYREAD24/CYMEM

SHIFTREG_ENC_3_READDATA/SHIFTREG_ENC_3        ----- -----  ----- -----  ----- -----  ----- -----
  +--> CYREAD24/CYMEM

SHIFTREG_ENC_4_READDATA/SHIFTREG_ENC_4        ----- -----  ----- -----  ----- -----  ----- -----
  +--> CYREAD24/CYMEM

SHIFTREG_ENC_5_READDATA/SHIFTREG_ENC_5        ----- -----  ----- -----  ----- -----  ----- -----
  +--> CYREAD24/CYMEM

SHIFTREG_ENC_6_READDATA/SHIFTREG_ENC_6        ----- -----  ----- -----  ----- -----  ----- -----
  +--> CYREAD24/CYMEM

_CHECK_ENC_DATA/UTILS                         ----- -----  0024H 0024H  0010H 0012H  ----- -----

_ABS/ABS                                      ----- -----  ----- -----  ----- -----  ----- -----

_MOTOR_CONTROL/INTERRUPTIONS                  ----- -----  0023H 006BH  ----- -----  ----- -----
LX51 LINKER/LOCATER V4.64.0.0                                                         01/11/2017  18:17:27  PAGE 27


  +--> INTERRUPT_MANAGER/INTERRUPTIONS
  +--> _MOTOR_DIR_WRITE/MOTOR_DIR
  +--> _ABS/ABS
  +--> _PWM_MOTORS_WRITECOMPARE1/PWM_MOTORS
  +--> _PWM_MOTORS_WRITECOMPARE2/PWM_MOTORS

ANALOG_READ_END/INTERRUPTIONS                 ----- -----  ----- -----  ----- -----  ----- -----
  +--> ADC_STATUS_READ/ADC_STATUS
  +--> INTERRUPT_MANAGER/INTERRUPTIONS
  +--> _POWER_ON_LED_REG_WRITE/POWER_ON_LED_REG
  +--> PWM_LIMIT_SEARCH/INTERRUPTIONS
  +--> _FILTER_I1/UTILS
  +--> _FILTER_I2/UTILS

ADC_STATUS_READ/ADC_STATUS                    ----- -----  ----- -----  ----- -----  ----- -----

_POWER_ON_LED_REG_WRITE/POWER_ON_LED_REG      ----- -----  ----- -----  ----- -----  ----- -----

PWM_LIMIT_SEARCH/INTERRUPTIONS                ----- -----  ----- -----  ----- -----  ----- -----

_FILTER_I1/UTILS                              ----- -----  ----- -----  ----- -----  ----- -----

_FILTER_I2/UTILS                              ----- -----  ----- -----  ----- -----  ----- -----

CALIBRATION/INTERRUPTIONS                     ----- -----  ----- -----  ----- -----  ----- -----
  +--> ISR_RS485_RX_DISABLE/ISR_RS485_RX
  +--> _MOTOR_ON_OFF_WRITE/MOTOR_ON_OFF
  +--> _MEMSTORE/COMMAND_PROCESSING
  +--> ISR_RS485_RX_ENABLE/ISR_RS485_RX

FF_STATUS_READ/FF_STATUS                      ----- -----  ----- -----  ----- -----  ----- -----

_WATCHDOG_REFRESH_WRITE/WATCHDOG_REFRESH      ----- -----  ----- -----  ----- -----  ----- -----

UART_RS485_READRXSTATUS/UART_RS485            ----- -----  ----- -----  ----- -----  ----- -----

?C_INITSEG                                    ----- -----  ----- -----  ----- -----  ----- -----

*** NEW ROOT ********************************

UART_RS485_RXISR/UART_RS485_INT               ----- -----  ----- -----  ----- -----  ----- -----

*** NEW ROOT ********************************

ADC_ISR1/ADC_INT                              ----- -----  ----- -----  ----- -----  ----- -----

*** NEW ROOT ********************************

ADC_ISR2/ADC_INT                              ----- -----  ----- -----  ----- -----  ----- -----

*** NEW ROOT ********************************

ADC_ISR3/ADC_INT                              ----- -----  ----- -----  ----- -----  ----- -----

*** NEW ROOT ********************************

ADC_ISR4/ADC_INT                              ----- -----  ----- -----  ----- -----  ----- -----



PUBLIC SYMBOLS OF MODULE:  .\DP8051_Keil_951\Release\qbmove_adv_firmware.omf (COMMAND_PROCESSING)


      VALUE       CLASS    TYPE      PUBLIC SYMBOL NAME
      =================================================
LX51 LINKER/LOCATER V4.64.0.0                                                         01/11/2017  18:17:27  PAGE 28


*DEL*:00000000H   XDATA    BYTE      ?_Bootloadable_SetFlashByte?BYTE
      02000003H   XDATA    BYTE      ?_commWrite_old_id?BYTE
      02000000H   XDATA    BYTE      ?_cyconfigcpy?BYTE
      02000008H   XDATA    BYTE      ?_CyDmaChSetConfiguration?BYTE
*DEL*:00000000H   XDATA    BYTE      ?_CyDmaChStatus?BYTE
*DEL*:00000000H   XDATA    BYTE      ?_CyDmaTdGetAddress?BYTE
*DEL*:00000000H   XDATA    BYTE      ?_CyDmaTdGetConfiguration?BYTE
      02000002H   XDATA    BYTE      ?_CyDmaTdSetConfiguration?BYTE
*DEL*:00000000H   XDATA    BYTE      ?_CySpcLoadMultiByte?BYTE
      0200000FH   XDATA    BYTE      ?_CySpcLoadRow?BYTE
*DEL*:00000000H   XDATA    BYTE      ?_CySpcLoadRowFull?BYTE
      0200000FH   XDATA    BYTE      ?_CySpcWriteRow?BYTE
*DEL*:00000000H   XDATA    BYTE      ?_CyWriteRowFull?BYTE
      02000002H   XDATA    BYTE      ?_DMA_DmaInitialize?BYTE
      02000486H   XDATA    ---       ?_PRINTF?BYTE
      02000486H   XDATA    ---       ?_SPRINTF?BYTE
      02000486H   XDATA    ---       ?_strcat?BYTE
      010061B5H   CODE     ---       ?C?ADDXBP
      01005BD6H   CODE     ---       ?C?CASTF
      0100618FH   CODE     ---       ?C?CCASE
      01005F1AH   CODE     ---       ?C?CLDOPTR
      01005F01H   CODE     ---       ?C?CLDPTR
      00000000H   NUMBER   ---       ?C?CODESEG
      010062C2H   CODE     ---       ?C?COPYAMD
      01005F47H   CODE     ---       ?C?CSTPTR
      01005BA2H   CODE     ---       ?C?FCASTC
      01005B9DH   CODE     ---       ?C?FCASTI
      01005B98H   CODE     ---       ?C?FCASTL
      01005DA0H   CODE     ---       ?C?FPADD
      01005B21H   CODE     ---       ?C?FPCMP
      01005B1FH   CODE     ---       ?C?FPCMP3
      01005C94H   CODE     ---       ?C?FPCONVERT
      01005A82H   CODE     ---       ?C?FPDIV
      01005C0DH   CODE     ---       ?C?FPGETOPN2
      01005979H   CODE     ---       ?C?FPMUL
      01005C42H   CODE     ---       ?C?FPNANRESULT
      01005C4CH   CODE     ---       ?C?FPOVERFLOW
      01005C24H   CODE     ---       ?C?FPRESULT
      01005C38H   CODE     ---       ?C?FPRESULT2
      01005C57H   CODE     ---       ?C?FPROUND
      01005D9CH   CODE     ---       ?C?FPSUB
      01005C49H   CODE     ---       ?C?FPUNDERFLOW
      01005EC1H   CODE     ---       ?C?FTNPWR
      010063BDH   CODE     ---       ?C?IILDX
      010063D3H   CODE     ---       ?C?ILDIX
      01005F59H   CODE     ---       ?C?ISTPTR
      010061D9H   CODE     ---       ?C?LIMUL
      01006401H   CODE     ---       ?C?LLDCODE
      0100614BH   CODE     ---       ?C?LLDIDATA
      010063F5H   CODE     ---       ?C?LLDPDATA
      01006111H   CODE     ---       ?C?LLDPTR
      010063E9H   CODE     ---       ?C?LLDXDATA
      01005F78H   CODE     ---       ?C?LMUL
      010060A2H   CODE     ---       ?C?LNEG
      01006095H   CODE     ---       ?C?LNOT
      010060FEH   CODE     ---       ?C?LSHL
      01006157H   CODE     ---       ?C?LSTIDATA
      01006411H   CODE     ---       ?C?LSTPDATA
      01006131H   CODE     ---       ?C?LSTPTR
      01006163H   CODE     ---       ?C?LSTXDATA
      0100616FH   CODE     ---       ?C?PLDIXDATA
      01006186H   CODE     ---       ?C?PSTXDATA
      010060B0H   CODE     ---       ?C?SLCMP
      0100A406H   CODE     ---       ?C?SLDIV
      010060EAH   CODE     ---       ?C?SLSHR
LX51 LINKER/LOCATER V4.64.0.0                                                         01/11/2017  18:17:27  PAGE 29


      010063A0H   CODE     ---       ?C?STRCPYAMD
      010060C6H   CODE     ---       ?C?ULCMP
      01006003H   CODE     ---       ?C?ULDIV
      010060D7H   CODE     ---       ?C?ULSHR
      00000000H   NUMBER   ---       ?C?XDATASEG
      00000000H   NUMBER   ---       ?C?XPAGE1RST
      00000093H   DATA     BYTE      ?C?XPAGE1SFR
      01008F1DH   CODE     ---       ?C_START
      01002600H   CODE     NEAR LAB  ?C_STARTUP
      0000000EH   DATA     ---       ?C_XBP
      010099DFH   CODE     ---       _?CyDelay
*DEL*:00000000H   CODE     ---       _?CyDelayFreq
*DEL*:00000000H   CODE     ---       _?CyHalt
      0100AEA8H   CODE     ---       _ABS
*DEL*:00000000H   CODE     ---       _ADC_AMux_FastSelect
      0100AB07H   CODE     ---       _ADC_AMux_Select
      0100A80DH   CODE     ---       _ADC_AMux_Set
      0100A7ABH   CODE     ---       _ADC_AMux_Unset
*DEL*:00000000H   CODE     ---       _ADC_CountsTo_mVolts
*DEL*:00000000H   CODE     ---       _ADC_CountsTo_uVolts
*DEL*:00000000H   CODE     ---       _ADC_CountsTo_Volts
*DEL*:00000000H   CODE     ---       _ADC_Ext_CP_Clk_ClearModeRegister
      01008871H   CODE     ---       _ADC_Ext_CP_Clk_SetDividerRegister
      0100AE6AH   CODE     ---       _ADC_Ext_CP_Clk_SetModeRegister
*DEL*:00000000H   CODE     ---       _ADC_Ext_CP_Clk_SetSourceRegister
*DEL*:00000000H   CODE     ---       _ADC_Ext_CP_Clk_StandbyPower
*DEL*:00000000H   CODE     ---       _ADC_IsEndConversion
*DEL*:00000000H   CODE     ---       _ADC_SelectConfiguration
*DEL*:00000000H   CODE     ---       _ADC_SetBufferGain
*DEL*:00000000H   CODE     ---       _ADC_SetCoherency
*DEL*:00000000H   CODE     ---       _ADC_SetGain
*DEL*:00000000H   CODE     ---       _ADC_SetGCOR
*DEL*:00000000H   CODE     ---       _ADC_SetOffset
      0100B062H   CODE     ---       _ADC_SOC_Write
*DEL*:00000000H   CODE     ---       _ADC_STATUS_WriteMask
*DEL*:00000000H   CODE     ---       _ADC_theACLK_ClearModeRegister
      01008AD2H   CODE     ---       _ADC_theACLK_SetDividerRegister
      0100AE77H   CODE     ---       _ADC_theACLK_SetModeRegister
*DEL*:00000000H   CODE     ---       _ADC_theACLK_SetPhaseRegister
*DEL*:00000000H   CODE     ---       _ADC_theACLK_SetSourceRegister
*DEL*:00000000H   CODE     ---       _ADC_theACLK_StandbyPower
*DEL*:00000000H   CODE     ---       _Bootloadable_SetFlashByte
*DEL*:00000000H   CODE     NEAR LAB  _cfg_write_bytes
*DEL*:00000000H   CODE     NEAR LAB  _cfg_write_bytes_code
      01009E9FH   CODE     ---       _check_enc_data
*DEL*:00000000H   CODE     ---       _CLOCK_UART_ClearModeRegister
      010089A2H   CODE     ---       _CLOCK_UART_SetDividerRegister
*DEL*:00000000H   CODE     ---       _CLOCK_UART_SetModeRegister
*DEL*:00000000H   CODE     ---       _CLOCK_UART_SetSourceRegister
*DEL*:00000000H   CODE     ---       _CLOCK_UART_StandbyPower
      0100983EH   CODE     ---       _commWrite
      010097B1H   CODE     ---       _commWrite_old_id
      0100B002H   CODE     ---       _COUNTER_ENC_SetInterruptMode
      0100B020H   CODE     ---       _COUNTER_ENC_WriteCompare
*DEL*:00000000H   CODE     ---       _COUNTER_ENC_WriteControlRegister
      0100B00EH   CODE     ---       _COUNTER_ENC_WriteCounter
      0100B01AH   CODE     ---       _COUNTER_ENC_WritePeriod
*DEL*:00000000H   CODE     ---       _CyBusClk_SetDivider
      0100A712H   CODE     NEAR LAB  _cyconfigcpy
      0100A93DH   CODE     NEAR LAB  _cyconfigcpycode
*DEL*:00000000H   CODE     ---       _CyCpuClk_SetDivider
*DEL*:00000000H   CODE     NEAR LAB  _CyDelay
      0100A600H   CODE     NEAR LAB  _CyDelayCycles
      0100A89CH   CODE     NEAR LAB  _CyDelayUs
*DEL*:00000000H   CODE     ---       _CyDmacClearError
LX51 LINKER/LOCATER V4.64.0.0                                                         01/11/2017  18:17:27  PAGE 30


*DEL*:00000000H   CODE     ---       _CyDmaChDisable
      0100A32AH   CODE     ---       _CyDmaChEnable
*DEL*:00000000H   CODE     ---       _CyDmaChFree
*DEL*:00000000H   CODE     ---       _CyDmaChGetRequest
      0100A48BH   CODE     ---       _CyDmaChPriority
*DEL*:00000000H   CODE     ---       _CyDmaChRoundRobin
      01009B69H   CODE     ---       _CyDmaChSetConfiguration
      01009BE2H   CODE     ---       _CyDmaChSetExtendedAddress
      0100AA67H   CODE     ---       _CyDmaChSetInitialTd
*DEL*:00000000H   CODE     ---       _CyDmaChSetRequest
*DEL*:00000000H   CODE     ---       _CyDmaChStatus
*DEL*:00000000H   CODE     ---       _CyDmaClearPendingDrq
*DEL*:00000000H   CODE     ---       _CyDmaTdFree
*DEL*:00000000H   CODE     ---       _CyDmaTdGetAddress
*DEL*:00000000H   CODE     ---       _CyDmaTdGetConfiguration
      01009C5AH   CODE     ---       _CyDmaTdSetAddress
      01009A67H   CODE     ---       _CyDmaTdSetConfiguration
*DEL*:00000000H   CODE     ---       _CyEnableInts
      0100AB20H   CODE     NEAR LAB  _CyExitCriticalSection
*DEL*:00000000H   CODE     ---       _CyFlash_SetWaitCycles
*DEL*:00000000H   CODE     ---       _CyGetUniqueId
*DEL*:00000000H   CODE     ---       _CyILO_SetPowerMode
*DEL*:00000000H   CODE     ---       _CyILO_SetSource
*DEL*:00000000H   CODE     ---       _CyIMO_SetFreq
*DEL*:00000000H   CODE     ---       _CyIMO_SetSource
*DEL*:00000000H   CODE     ---       _CyIMO_Start
*DEL*:00000000H   CODE     ---       _CyIntGetPriority
*DEL*:00000000H   CODE     ---       _CyIntGetState
*DEL*:00000000H   CODE     ---       _CyIntGetVector
      0100AAEEH   CODE     ---       _CyIntSetPriority
      0100A196H   CODE     ---       _CyIntSetVector
*DEL*:00000000H   CODE     ---       _CyMasterClk_SetDivider
*DEL*:00000000H   CODE     ---       _CyMasterClk_SetSource
*DEL*:00000000H   CODE     NEAR LAB  _cymemzero
*DEL*:00000000H   CODE     ---       _CyPLL_OUT_SetPQ
*DEL*:00000000H   CODE     ---       _CyPLL_OUT_SetSource
*DEL*:00000000H   CODE     ---       _CyPLL_OUT_Start
*DEL*:00000000H   CODE     ---       _CyPmAltAct
*DEL*:00000000H   CODE     ---       _CyPmCtwSetInterval
*DEL*:00000000H   CODE     ---       _CyPmFtwSetInterval
*DEL*:00000000H   CODE     ---       _CyPmHibernateEx
*DEL*:00000000H   CODE     ---       _CyPmReadStatus
*DEL*:00000000H   CODE     ---       _CyPmSleep
      0100AD7CH   CODE     NEAR LAB  _cyread16
      0100AD7EH   CODE     NEAR LAB  _cyread16_nodpx
      0100ACF1H   CODE     NEAR LAB  _cyread24
      0100ACF3H   CODE     NEAR LAB  _cyread24_nodpx
*DEL*:00000000H   CODE     NEAR LAB  _cyread32
*DEL*:00000002H   CODE     NEAR LAB  _cyread32_nodpx
      0100AE84H   CODE     NEAR LAB  _cyread8
      0100AE86H   CODE     NEAR LAB  _cyread8_nodpx
*DEL*:00000000H   CODE     ---       _CySetFlashEEBuffer
*DEL*:00000000H   CODE     ---       _CySpcEraseSector
      0100A86CH   CODE     ---       _CySpcGetTemp
*DEL*:00000000H   CODE     ---       _CySpcLoadMultiByte
      01009DBCH   CODE     ---       _CySpcLoadRow
*DEL*:00000000H   CODE     ---       _CySpcLoadRowFull
      01009FD9H   CODE     ---       _CySpcReadData
      0100A1EAH   CODE     ---       _CySpcWriteRow
*DEL*:00000000H   CODE     ---       _CyUsbClk_SetSource
*DEL*:00000000H   CODE     ---       _CyVdLvAnalogEnable
*DEL*:00000000H   CODE     ---       _CyVdLvDigitEnable
*DEL*:00000000H   CODE     ---       _CyVdStickyStatus
*DEL*:00000000H   CODE     ---       _CyWdtStart
      0100AD8BH   CODE     NEAR LAB  _cywrite16
LX51 LINKER/LOCATER V4.64.0.0                                                         01/11/2017  18:17:27  PAGE 31


      0100AD8DH   CODE     NEAR LAB  _cywrite16_nodpx
*DEL*:00000000H   CODE     NEAR LAB  _cywrite24
*DEL*:00000002H   CODE     NEAR LAB  _cywrite24_nodpx
*DEL*:00000000H   CODE     NEAR LAB  _cywrite32
*DEL*:00000002H   CODE     NEAR LAB  _cywrite32_nodpx
      0100AE90H   CODE     NEAR LAB  _cywrite8
      0100AE92H   CODE     NEAR LAB  _cywrite8_nodpx
*DEL*:00000000H   CODE     ---       _CyWriteRowData
*DEL*:00000000H   CODE     ---       _CyWriteRowFull
*DEL*:00000000H   CODE     ---       _CyXTAL_32KHZ_SetPowerMode
*DEL*:00000000H   CODE     ---       _CyXTAL_SetFbVoltage
*DEL*:00000000H   CODE     ---       _CyXTAL_SetStartup
*DEL*:00000000H   CODE     ---       _CyXTAL_SetWdVoltage
*DEL*:00000000H   CODE     ---       _CyXTAL_Start
      0100A375H   CODE     ---       _DMA_DmaInitialize
      01002604H   CODE     NEAR LAB  _dma_wait
*DEL*:00000000H   CODE     ---       _EEPROM_ByteWritePos
*DEL*:00000000H   CODE     ---       _EEPROM_EraseSector
*DEL*:00000000H   CODE     ---       _EEPROM_ReadByte
*DEL*:00000000H   CODE     ---       _EEPROM_StartErase
*DEL*:00000000H   CODE     ---       _EEPROM_StartWrite
      0100936AH   CODE     ---       _EEPROM_Write
*DEL*:00000000H   CODE     ---       _EEPROM_WriteByte
      010076CFH   CODE     ---       _encoder_reading
*DEL*:00000000H   CODE     ---       _FF_STATUS_WriteMask
      01009CD2H   CODE     ---       _filter_i1
      01009D47H   CODE     ---       _filter_i2
*DEL*:00000000H   CODE     ---       _filter_vel_1
*DEL*:00000000H   CODE     ---       _filter_vel_2
*DEL*:00000000H   CODE     ---       _filter_vel_3
      0100B04AH   CODE     ---       _FTDI_ENABLE_REG_Write
      010038F3H   CODE     ---       _get_param_list
*DEL*:00000000H   CODE     ---       _get_pwm_sign_1
*DEL*:00000000H   CODE     ---       _get_pwm_sign_2
      0100AABCH   CODE     ---       _infoGet
      0100261AH   CODE     ---       _infoPrepare
      0100AEF6H   CODE     ---       _ISR_RS485_RX_SetPriority
      0100AD9AH   CODE     ---       _ISR_RS485_RX_SetVector
      0100AA0AH   CODE     ---       _ISR_RS485_RX_StartEx
      0100AF0AH   CODE     ---       _ISR_WATCHDOG_SetPriority
      0100ADB6H   CODE     ---       _ISR_WATCHDOG_SetVector
      0100AA29H   CODE     ---       _ISR_WATCHDOG_StartEx
      0100A779H   CODE     ---       _LCRChecksum
      01009449H   CODE     ---       _memStore
      010049E3H   CODE     ---       _motor_control
      0100AFF6H   CODE     ---       _MOTOR_DIR_Write
      0100B044H   CODE     ---       _MOTOR_ON_OFF_Write
      0100B03EH   CODE     ---       _MY_TIMER_SetInterruptMode
*DEL*:00000000H   CODE     ---       _MY_TIMER_WriteControlRegister
      0100AE18H   CODE     ---       _MY_TIMER_WriteCounter
      0100AE0AH   CODE     ---       _MY_TIMER_WritePeriod
      0100B038H   CODE     ---       _PACER_TIMER_SetInterruptMode
*DEL*:00000000H   CODE     ---       _PACER_TIMER_WriteControlRegister
      0100ADFCH   CODE     ---       _PACER_TIMER_WriteCounter
      0100ADEEH   CODE     ---       _PACER_TIMER_WritePeriod
      0100B068H   CODE     ---       _POWER_ON_LED_REG_Write
      01006F76H   CODE     ---       _PRINTF
      0100A8F0H   CODE     ---       _PUTCHAR
      0100AFCCH   CODE     ---       _PWM_MOTORS_WriteCompare1
      0100AFD2H   CODE     ---       _PWM_MOTORS_WriteCompare2
*DEL*:00000000H   CODE     ---       _PWM_MOTORS_WriteControlRegister
      0100AFC0H   CODE     ---       _PWM_MOTORS_WriteCounter
      0100AFC6H   CODE     ---       _PWM_MOTORS_WritePeriod
      0100AFFCH   CODE     ---       _RESET_COUNTERS_Write
      0100B032H   CODE     ---       _RESET_FF_Write
LX51 LINKER/LOCATER V4.64.0.0                                                         01/11/2017  18:17:27  PAGE 32


      0100B050H   CODE     ---       _RS485_CTS_Write
      0100AB92H   CODE     ---       _sendAcknowledgment
*DEL*:00000000H   CODE     ---       _SetAnalogRoutingPumps
*DEL*:00000000H   CODE     ---       _SHIFTREG_ENC_1_GetFIFOStatus
      0100AD27H   CODE     ---       _SHIFTREG_ENC_1_SetIntMode
*DEL*:00000000H   CODE     ---       _SHIFTREG_ENC_1_WriteRegValue
*DEL*:00000000H   CODE     ---       _SHIFTREG_ENC_2_GetFIFOStatus
      0100AD38H   CODE     ---       _SHIFTREG_ENC_2_SetIntMode
*DEL*:00000000H   CODE     ---       _SHIFTREG_ENC_2_WriteRegValue
*DEL*:00000000H   CODE     ---       _SHIFTREG_ENC_3_GetFIFOStatus
      0100AD16H   CODE     ---       _SHIFTREG_ENC_3_SetIntMode
*DEL*:00000000H   CODE     ---       _SHIFTREG_ENC_3_WriteRegValue
*DEL*:00000000H   CODE     ---       _SHIFTREG_ENC_4_GetFIFOStatus
      0100AD49H   CODE     ---       _SHIFTREG_ENC_4_SetIntMode
*DEL*:00000000H   CODE     ---       _SHIFTREG_ENC_4_WriteRegValue
*DEL*:00000000H   CODE     ---       _SHIFTREG_ENC_5_GetFIFOStatus
      0100AD5AH   CODE     ---       _SHIFTREG_ENC_5_SetIntMode
*DEL*:00000000H   CODE     ---       _SHIFTREG_ENC_5_WriteRegValue
*DEL*:00000000H   CODE     ---       _SHIFTREG_ENC_6_GetFIFOStatus
      0100AD6BH   CODE     ---       _SHIFTREG_ENC_6_SetIntMode
*DEL*:00000000H   CODE     ---       _SHIFTREG_ENC_6_WriteRegValue
      01006F70H   CODE     ---       _SPRINTF
      01009F0AH   CODE     ---       _strcat
      0100ABD1H   CODE     ---       _STRLEN
*DEL*:00000000H   CODE     ---       _UART_RS485_PutArray
      0100AE5DH   CODE     ---       _UART_RS485_PutChar
*DEL*:00000000H   CODE     ---       _UART_RS485_PutCRLF
      0100A6DEH   CODE     ---       _UART_RS485_PutString
*DEL*:00000000H   CODE     ---       _UART_RS485_SendBreak
*DEL*:00000000H   CODE     ---       _UART_RS485_SetRxAddress1
*DEL*:00000000H   CODE     ---       _UART_RS485_SetRxAddress2
*DEL*:00000000H   CODE     ---       _UART_RS485_SetRxAddressMode
*DEL*:00000000H   CODE     ---       _UART_RS485_SetRxInterruptMode
*DEL*:00000000H   CODE     ---       _UART_RS485_SetTxAddressMode
*DEL*:00000000H   CODE     ---       _UART_RS485_SetTxInterruptMode
*DEL*:00000000H   CODE     ---       _UART_RS485_WriteControlRegister
*DEL*:00000000H   CODE     ---       _UART_RS485_WriteTxData
      0100AFE4H   CODE     ---       _WATCHDOG_COUNTER_SetInterruptMode
*DEL*:00000000H   CODE     ---       _WATCHDOG_COUNTER_WriteControlRegister
      0100AA85H   CODE     ---       _WATCHDOG_COUNTER_WriteCounter
      0100ADA8H   CODE     ---       _WATCHDOG_COUNTER_WritePeriod
      0100AFDEH   CODE     ---       _WATCHDOG_ENABLER_Write
      0100AFD8H   CODE     ---       _WATCHDOG_REFRESH_Write
*SFR* 000000D0H.6 DATA     BIT       AC
*SFR* 000000E0H   DATA     BYTE      ACC
      0100BC46H   CONST    ---       ADC_AMux__addrTable
      0100BC4AH   CONST    ---       ADC_AMux__maskTable
      0100A9C9H   CODE     ---       ADC_AMux_Start
      02000B72H   XDATA    ---       ADC_buf
      02000D46H   XDATA    BYTE      ADC_Config
      02000D51H   XDATA    BYTE      ADC_convDone
      02000D52H   XDATA    LONG      ADC_CountsPerVolt
      01009957H   CODE     ---       ADC_Enable
      0100AF5AH   CODE     ---       ADC_Ext_CP_Clk_GetDividerRegister
*DEL*:00000000H   CODE     ---       ADC_Ext_CP_Clk_GetModeRegister
      0100AF86H   CODE     ---       ADC_Ext_CP_Clk_GetSourceRegister
*DEL*:00000000H   CODE     ---       ADC_Ext_CP_Clk_Start
*DEL*:00000000H   CODE     ---       ADC_Ext_CP_Clk_Stop
*DEL*:00000000H   CODE     ---       ADC_Ext_CP_Clk_StopBlock
*DEL*:00000000H   CODE     ---       ADC_GetResult16
*DEL*:00000000H   CODE     ---       ADC_GetResult32
*DEL*:00000000H   CODE     ---       ADC_GetResult8
      010094FBH   CODE     ---       ADC_Init
      02000D47H   XDATA    BYTE      ADC_initVar
      0100B091H   CODE     ---       ADC_ISR1
LX51 LINKER/LOCATER V4.64.0.0                                                         01/11/2017  18:17:27  PAGE 33


      0100B092H   CODE     ---       ADC_ISR2
      0100B093H   CODE     ---       ADC_ISR3
      0100B094H   CODE     ---       ADC_ISR4
      02000D48H   XDATA    LONG      ADC_Offset
*DEL*:00000000H   CODE     ---       ADC_Read16
*DEL*:00000000H   CODE     ---       ADC_Read32
*DEL*:00000000H   CODE     ---       ADC_Read8
*DEL*:00000000H   CODE     ---       ADC_ReadGCOR
*DEL*:00000000H   CODE     ---       ADC_SOC_Read
      0100AAD5H   CODE     ---       ADC_Start
*DEL*:00000000H   CODE     ---       ADC_StartConvert
      02000D4DH   XDATA    BYTE      ADC_started
*DEL*:00000000H   CODE     ---       ADC_STATUS_InterruptDisable
*DEL*:00000000H   CODE     ---       ADC_STATUS_InterruptEnable
      0100B05CH   CODE     ---       ADC_STATUS_Read
*DEL*:00000000H   CODE     ---       ADC_STATUS_ReadMask
*DEL*:00000000H   CODE     ---       ADC_Stop
      02000D4CH   XDATA    BYTE      ADC_stopConversion
*DEL*:00000000H   CODE     ---       ADC_StopConvert
      0100AF64H   CODE     ---       ADC_theACLK_GetDividerRegister
*DEL*:00000000H   CODE     ---       ADC_theACLK_GetModeRegister
*DEL*:00000000H   CODE     ---       ADC_theACLK_GetPhaseRegister
      0100AF8EH   CODE     ---       ADC_theACLK_GetSourceRegister
*DEL*:00000000H   CODE     ---       ADC_theACLK_Start
*DEL*:00000000H   CODE     ---       ADC_theACLK_Stop
*DEL*:00000000H   CODE     ---       ADC_theACLK_StopBlock
      01008D28H   CODE     ---       analog_read_end
*SFR* 000000F0H   DATA     BYTE      B
      0100AF32H   CODE     ---       Bootloadable_Load
      02000937H   XDATA    ---       c_mem
      010079F0H   CODE     ---       calibration
      02000A64H   XDATA    BYTE      calibration_flag
      0100AF00H   CODE     ---       CLOCK_UART_GetDividerRegister
*DEL*:00000000H   CODE     ---       CLOCK_UART_GetModeRegister
      0100A5F8H   CODE     ---       CLOCK_UART_GetSourceRegister
*DEL*:00000000H   CODE     ---       CLOCK_UART_Start
*DEL*:00000000H   CODE     ---       CLOCK_UART_Stop
*DEL*:00000000H   CODE     ---       CLOCK_UART_StopBlock
      01009183H   CODE     ---       cmd_activate
      0100A5BEH   CODE     ---       cmd_get_activate
      01008713H   CODE     ---       cmd_get_counters
      0100970BH   CODE     ---       cmd_get_curr_and_meas
      0100A094H   CODE     ---       cmd_get_currents
      01009E2FH   CODE     ---       cmd_get_inputs
      01009AEEH   CODE     ---       cmd_get_measurements
      01009F75H   CODE     ---       cmd_get_velocities
      0100A963H   CODE     ---       cmd_ping
      0100A9EAH   CODE     ---       cmd_set_baudrate
      01007BCFH   CODE     ---       cmd_set_inputs
      01008415H   CODE     ---       cmd_set_pos_stiff
      0100A44AH   CODE     ---       cmd_set_watchdog
      0100738EH   CODE     ---       cmd_store_params
      010080FEH   CODE     ---       commProcess
      0100AE50H   CODE     ---       COUNTER_ENC_ClearFIFO
      0100AF76H   CODE     ---       COUNTER_ENC_Enable
      0100A6A9H   CODE     ---       COUNTER_ENC_Init
      02000D77H   XDATA    BYTE      COUNTER_ENC_initVar
      0100B014H   CODE     ---       COUNTER_ENC_ReadCapture
*DEL*:00000000H   CODE     ---       COUNTER_ENC_ReadCompare
*DEL*:00000000H   CODE     ---       COUNTER_ENC_ReadControlRegister
*DEL*:00000000H   CODE     ---       COUNTER_ENC_ReadCounter
*DEL*:00000000H   CODE     ---       COUNTER_ENC_ReadPeriod
      0100B008H   CODE     ---       COUNTER_ENC_ReadStatusRegister
      0100AC33H   CODE     ---       COUNTER_ENC_Start
*DEL*:00000000H   CODE     ---       COUNTER_ENC_Stop
LX51 LINKER/LOCATER V4.64.0.0                                                         01/11/2017  18:17:27  PAGE 34


*SFR* 000000D0H.7 DATA     BIT       CY
      02000D61H   XDATA    DWORD     cydelay_32k_ms
      02000D5CH   XDATA    DWORD     cydelay_freq_hz
      02000D57H   XDATA    DWORD     cydelay_freq_khz
      02000D5BH   XDATA    BYTE      cydelay_freq_mhz
*DEL*:00000000H   CODE     ---       CyDisableInts
      0100A673H   CODE     ---       CyDmacConfigure
*DEL*:00000000H   CODE     ---       CyDmacError
*DEL*:00000000H   CODE     ---       CyDmacErrorAddress
*DEL*:00000000H   CODE     ---       CyDmaChAlloc
      0100A4CBH   CODE     ---       CyDmaTdAllocate
*DEL*:00000000H   CODE     ---       CyDmaTdFreeCount
*DEL*:00000000H   CODE     ---       CyEEPROM_ReadRelease
*DEL*:00000000H   CODE     ---       CyEEPROM_ReadReserve
      0100A7DCH   CODE     ---       CyEEPROM_Start
*DEL*:00000000H   CODE     ---       CyEEPROM_Stop
      0100ABA7H   CODE     NEAR LAB  CyEnterCriticalSection
      01009073H   CODE     ---       cyfitter_cfg
*DEL*:00000000H   CODE     ---       CyFlash_Start
*DEL*:00000000H   CODE     ---       CyFlash_Stop
*DEL*:00000000H   CODE     ---       CyILO_Disable33K
*DEL*:00000000H   CODE     ---       CyILO_Enable33K
*DEL*:00000000H   CODE     ---       CyILO_Start100K
*DEL*:00000000H   CODE     ---       CyILO_Start1K
*DEL*:00000000H   CODE     ---       CyILO_Stop100K
*DEL*:00000000H   CODE     ---       CyILO_Stop1K
*DEL*:00000000H   CODE     ---       CyIMO_DisableDoubler
*DEL*:00000000H   CODE     ---       CyIMO_EnableDoubler
*DEL*:00000000H   CODE     ---       CyIMO_Stop
*DEL*:00000000H   CODE     ---       CyPLL_OUT_Stop
*DEL*:00000000H   CODE     ---       CyPmHibernate
*DEL*:00000000H   CODE     ---       CyPmOppsSet
*DEL*:00000000H   CODE     ---       CyPmRestoreClocks
*DEL*:00000000H   CODE     ---       CyPmSaveClocks
      02000D60H   XDATA    BYTE      CyResetStatus
      0100AB38H   CODE     ---       CySetTemp
      0100AF7EH   CODE     ---       CySoftwareReset
      0100AAA1H   CODE     ---       CySpcGetAlgorithm
      0100AA48H   CODE     ---       CySpcLock
      0100ABBCH   CODE     ---       CySpcStart
*DEL*:00000000H   CODE     ---       CySpcStop
      0100AE9CH   CODE     ---       CySpcUnlock
*DEL*:00000000H   CODE     ---       CyVdHvAnalogDisable
*DEL*:00000000H   CODE     ---       CyVdHvAnalogEnable
*DEL*:00000000H   CODE     ---       CyVdLvAnalogDisable
*DEL*:00000000H   CODE     ---       CyVdLvDigitDisable
*DEL*:00000000H   CODE     ---       CyVdRealTimeStatus
*DEL*:00000000H   CODE     ---       CyWdtClear
*DEL*:00000000H   CODE     ---       CyXTAL_32KHZ_ReadStatus
*DEL*:00000000H   CODE     ---       CyXTAL_32KHZ_Start
*DEL*:00000000H   CODE     ---       CyXTAL_32KHZ_Stop
*DEL*:00000000H   CODE     ---       CyXTAL_DisableErrStatus
*DEL*:00000000H   CODE     ---       CyXTAL_DisableFaultRecovery
*DEL*:00000000H   CODE     ---       CyXTAL_EnableErrStatus
*DEL*:00000000H   CODE     ---       CyXTAL_EnableFaultRecovery
*DEL*:00000000H   CODE     ---       CyXTAL_ReadStatus
*DEL*:00000000H   CODE     ---       CyXTAL_Stop
      02000BECH   XDATA    BYTE      dev_pwm_limit
      02000AB3H   XDATA    LONG      dev_tension
      02000D6EH   XDATA    ---       dieTemperature
      02000D7CH   XDATA    BYTE      DMA_DmaHandle
*DEL*:00000000H   CODE     ---       DMA_DmaRelease
*SFR* 00000083H   DATA     BYTE      DPH
*SFR* 00000085H   DATA     BYTE      DPH1
*SFR* 00000082H   DATA     BYTE      DPL
LX51 LINKER/LOCATER V4.64.0.0                                                         01/11/2017  18:17:27  PAGE 35


*SFR* 00000084H   DATA     BYTE      DPL1
*SFR* 00000086H   DATA     BYTE      DPS
*SFR* 00000093H   DATA     BYTE      DPX
*SFR* 00000095H   DATA     BYTE      DPX1
*SFR* 000000A8H.7 DATA     BIT       EA
      02000935H   XDATA    ---       EEPROM_ADDR
      0100AFB9H   CODE     ---       EEPROM_Enable
*DEL*:00000000H   CODE     ---       EEPROM_Query
      0100B080H   CODE     ---       EEPROM_Start
*DEL*:00000000H   CODE     ---       EEPROM_Stop
      0100B084H   CODE     ---       EEPROM_UpdateTemperature
*SFR* 000000D0H.5 DATA     BIT       F0
*SFR* 000000D0H.1 DATA     BIT       F1
*DEL*:00000000H   CODE     ---       FF_STATUS_InterruptDisable
*DEL*:00000000H   CODE     ---       FF_STATUS_InterruptEnable
      0100AFF0H   CODE     ---       FF_STATUS_Read
*DEL*:00000000H   CODE     ---       FF_STATUS_ReadMask
*DEL*:00000000H   CODE     ---       FTDI_ENABLE_REG_Read
      01008F62H   CODE     ---       function_scheduler
      02000BC4H   XDATA    ---       g_count
      02000B7AH   XDATA    ---       g_meas
      02000A65H   XDATA    ---       g_measOld
      020009DAH   XDATA    ---       g_mem
      020009C1H   XDATA    ---       g_ref
      02000B55H   XDATA    ---       g_refNew
      02000AB7H   XDATA    ---       g_refOld
      02000AD0H   XDATA    ---       g_rx
*SFR* 000000A8H   DATA     BYTE      IE
      00000021H.4 BIT      BIT       interrupt_flag
      01008C01H   CODE     ---       interrupt_manager
*DEL*:00000000H   CODE     ---       ISR_RS485_RX_ClearPending
      0100AFA4H   CODE     ---       ISR_RS485_RX_Disable
      0100AF9DH   CODE     ---       ISR_RS485_RX_Enable
      0100B08BH   CODE     ---       ISR_RS485_RX_ExInterrupt
*DEL*:00000000H   CODE     ---       ISR_RS485_RX_GetPriority
*DEL*:00000000H   CODE     ---       ISR_RS485_RX_GetState
*DEL*:00000000H   CODE     ---       ISR_RS485_RX_GetVector
      0100A89AH   CODE     ---       ISR_RS485_RX_Interrupt
*DEL*:00000000H   CODE     ---       ISR_RS485_RX_SetPending
*DEL*:00000000H   CODE     ---       ISR_RS485_RX_Start
*DEL*:00000000H   CODE     ---       ISR_RS485_RX_Stop
*DEL*:00000000H   CODE     ---       ISR_WATCHDOG_ClearPending
      0100AFB2H   CODE     ---       ISR_WATCHDOG_Disable
      0100AFABH   CODE     ---       ISR_WATCHDOG_Enable
*DEL*:00000000H   CODE     ---       ISR_WATCHDOG_GetPriority
*DEL*:00000000H   CODE     ---       ISR_WATCHDOG_GetState
*DEL*:00000000H   CODE     ---       ISR_WATCHDOG_GetVector
      0100B088H   CODE     ---       ISR_WATCHDOG_Handler
      0100A89BH   CODE     ---       ISR_WATCHDOG_Interrupt
*DEL*:00000000H   CODE     ---       ISR_WATCHDOG_SetPending
*DEL*:00000000H   CODE     ---       ISR_WATCHDOG_Start
*DEL*:00000000H   CODE     ---       ISR_WATCHDOG_Stop
      01007D97H   CODE     ---       main
      01008293H   CODE     ---       memInit
      0100A2DDH   CODE     ---       memRecall
      0100A3BFH   CODE     ---       memRestore
*DEL*:00000000H   CODE     ---       MOTOR_DIR_Read
*DEL*:00000000H   CODE     ---       MOTOR_ON_OFF_Read
*SFR* 000000EAH   DATA     BYTE      MXAX
      0100AB7CH   CODE     ---       MY_TIMER_Enable
      0100A582H   CODE     ---       MY_TIMER_Init
      02000D7BH   XDATA    BYTE      MY_TIMER_initVar
*DEL*:00000000H   CODE     ---       MY_TIMER_ReadCapture
*DEL*:00000000H   CODE     ---       MY_TIMER_ReadControlRegister
      0100AC92H   CODE     ---       MY_TIMER_ReadCounter
LX51 LINKER/LOCATER V4.64.0.0                                                         01/11/2017  18:17:27  PAGE 36


*DEL*:00000000H   CODE     ---       MY_TIMER_ReadPeriod
*DEL*:00000000H   CODE     ---       MY_TIMER_ReadStatusRegister
*DEL*:00000000H   CODE     ---       MY_TIMER_SoftwareCapture
      0100AC7FH   CODE     ---       MY_TIMER_Start
*DEL*:00000000H   CODE     ---       MY_TIMER_Stop
*SFR* 000000D0H.2 DATA     BIT       OV
*SFR* 000000D0H   DATA     BIT       P
*SFR* 000000A0H   DATA     BYTE      P2AX
      0100AB66H   CODE     ---       PACER_TIMER_Enable
      0100A546H   CODE     ---       PACER_TIMER_Init
      02000D7AH   XDATA    BYTE      PACER_TIMER_initVar
*DEL*:00000000H   CODE     ---       PACER_TIMER_ReadCapture
*DEL*:00000000H   CODE     ---       PACER_TIMER_ReadControlRegister
*DEL*:00000000H   CODE     ---       PACER_TIMER_ReadCounter
*DEL*:00000000H   CODE     ---       PACER_TIMER_ReadPeriod
*DEL*:00000000H   CODE     ---       PACER_TIMER_ReadStatusRegister
*DEL*:00000000H   CODE     ---       PACER_TIMER_SoftwareCapture
      0100AC6CH   CODE     ---       PACER_TIMER_Start
*DEL*:00000000H   CODE     ---       PACER_TIMER_Stop
*DEL*:00000000H   CODE     ---       POWER_ON_LED_REG_Read
*SFR* 000000D0H   DATA     BYTE      PSW
      0100AF96H   CODE     ---       pwm_limit_search
      0100AF6EH   CODE     ---       PWM_MOTORS_Enable
      0100A917H   CODE     ---       PWM_MOTORS_Init
      02000D74H   XDATA    BYTE      PWM_MOTORS_initVar
*DEL*:00000000H   CODE     ---       PWM_MOTORS_ReadCapture
*DEL*:00000000H   CODE     ---       PWM_MOTORS_ReadCompare1
*DEL*:00000000H   CODE     ---       PWM_MOTORS_ReadCompare2
*DEL*:00000000H   CODE     ---       PWM_MOTORS_ReadControlRegister
*DEL*:00000000H   CODE     ---       PWM_MOTORS_ReadCounter
*DEL*:00000000H   CODE     ---       PWM_MOTORS_ReadPeriod
      0100ABFAH   CODE     ---       PWM_MOTORS_Start
*DEL*:00000000H   CODE     ---       PWM_MOTORS_Stop
      02000B78H   XDATA    ---       pwm_sign
      0100A142H   CODE     ---       reset_counters
*DEL*:00000000H   CODE     ---       RESET_COUNTERS_Read
*DEL*:00000000H   CODE     ---       RESET_FF_Read
      00000021H.2 BIT      BIT       reset_last_value_flag
*SFR* 000000D0H.3 DATA     BIT       RS0
*SFR* 000000D0H.4 DATA     BIT       RS1
*DEL*:00000000H   CODE     ---       RS485_CTS_Read
      010098CBH   CODE     ---       setZeros
*SFR* 00000080H   DATA     BYTE      SFRPRT0DR
*SFR* 00000089H   DATA     BYTE      SFRPRT0PS
*SFR* 0000008AH   DATA     BYTE      SFRPRT0SEL
*SFR* 000000E8H   DATA     BYTE      SFRPRT12DR
*SFR* 000000E9H   DATA     BYTE      SFRPRT12PS
*SFR* 000000F2H   DATA     BYTE      SFRPRT12SEL
*SFR* 000000F8H   DATA     BYTE      SFRPRT15DR
*SFR* 000000F9H   DATA     BYTE      SFRPRT15PS
*SFR* 000000FAH   DATA     BYTE      SFRPRT15SEL
*SFR* 00000090H   DATA     BYTE      SFRPRT1DR
*SFR* 00000091H   DATA     BYTE      SFRPRT1PS
*SFR* 000000A2H   DATA     BYTE      SFRPRT1SEL
*SFR* 00000098H   DATA     BYTE      SFRPRT2DR
*SFR* 00000099H   DATA     BYTE      SFRPRT2PS
*SFR* 0000009AH   DATA     BYTE      SFRPRT2SEL
*SFR* 000000B0H   DATA     BYTE      SFRPRT3DR
*SFR* 000000B1H   DATA     BYTE      SFRPRT3PS
*SFR* 000000B2H   DATA     BYTE      SFRPRT3SEL
*SFR* 000000C0H   DATA     BYTE      SFRPRT4DR
*SFR* 000000C1H   DATA     BYTE      SFRPRT4PS
*SFR* 000000C2H   DATA     BYTE      SFRPRT4SEL
*SFR* 000000C8H   DATA     BYTE      SFRPRT5DR
*SFR* 000000C9H   DATA     BYTE      SFRPRT5PS
LX51 LINKER/LOCATER V4.64.0.0                                                         01/11/2017  18:17:27  PAGE 37


*SFR* 000000CAH   DATA     BYTE      SFRPRT5SEL
*SFR* 000000D8H   DATA     BYTE      SFRPRT6DR
*SFR* 000000D9H   DATA     BYTE      SFRPRT6PS
*SFR* 000000DAH   DATA     BYTE      SFRPRT6SEL
*DEL*:00000000H   CODE     ---       SHIFTREG_ENC_1_DisableInt
      0100AEBFH   CODE     ---       SHIFTREG_ENC_1_Enable
      0100ADD2H   CODE     ---       SHIFTREG_ENC_1_EnableInt
*DEL*:00000000H   CODE     ---       SHIFTREG_ENC_1_GetIntStatus
      0100B026H   CODE     ---       SHIFTREG_ENC_1_Init
      02000D78H   XDATA    BYTE      SHIFTREG_ENC_1_initVar
      0100AF1EH   CODE     ---       SHIFTREG_ENC_1_ReadData
*DEL*:00000000H   CODE     ---       SHIFTREG_ENC_1_ReadRegValue
      0100AC46H   CODE     ---       SHIFTREG_ENC_1_Start
*DEL*:00000000H   CODE     ---       SHIFTREG_ENC_1_Stop
*DEL*:00000000H   CODE     ---       SHIFTREG_ENC_2_DisableInt
      0100AECAH   CODE     ---       SHIFTREG_ENC_2_Enable
      0100ADE0H   CODE     ---       SHIFTREG_ENC_2_EnableInt
*DEL*:00000000H   CODE     ---       SHIFTREG_ENC_2_GetIntStatus
      0100B02CH   CODE     ---       SHIFTREG_ENC_2_Init
      02000D79H   XDATA    BYTE      SHIFTREG_ENC_2_initVar
      0100AF28H   CODE     ---       SHIFTREG_ENC_2_ReadData
*DEL*:00000000H   CODE     ---       SHIFTREG_ENC_2_ReadRegValue
      0100AC59H   CODE     ---       SHIFTREG_ENC_2_Start
*DEL*:00000000H   CODE     ---       SHIFTREG_ENC_2_Stop
*DEL*:00000000H   CODE     ---       SHIFTREG_ENC_3_DisableInt
      0100AEB4H   CODE     ---       SHIFTREG_ENC_3_Enable
      0100ADC4H   CODE     ---       SHIFTREG_ENC_3_EnableInt
*DEL*:00000000H   CODE     ---       SHIFTREG_ENC_3_GetIntStatus
      0100AFEAH   CODE     ---       SHIFTREG_ENC_3_Init
      02000D76H   XDATA    BYTE      SHIFTREG_ENC_3_initVar
      0100AF14H   CODE     ---       SHIFTREG_ENC_3_ReadData
*DEL*:00000000H   CODE     ---       SHIFTREG_ENC_3_ReadRegValue
      0100AC20H   CODE     ---       SHIFTREG_ENC_3_Start
*DEL*:00000000H   CODE     ---       SHIFTREG_ENC_3_Stop
*DEL*:00000000H   CODE     ---       SHIFTREG_ENC_4_DisableInt
      0100AED5H   CODE     ---       SHIFTREG_ENC_4_Enable
      0100AE26H   CODE     ---       SHIFTREG_ENC_4_EnableInt
*DEL*:00000000H   CODE     ---       SHIFTREG_ENC_4_GetIntStatus
      0100B06EH   CODE     ---       SHIFTREG_ENC_4_Init
      02000D7DH   XDATA    BYTE      SHIFTREG_ENC_4_initVar
      0100AF3CH   CODE     ---       SHIFTREG_ENC_4_ReadData
*DEL*:00000000H   CODE     ---       SHIFTREG_ENC_4_ReadRegValue
      0100ACB8H   CODE     ---       SHIFTREG_ENC_4_Start
*DEL*:00000000H   CODE     ---       SHIFTREG_ENC_4_Stop
*DEL*:00000000H   CODE     ---       SHIFTREG_ENC_5_DisableInt
      0100AEE0H   CODE     ---       SHIFTREG_ENC_5_Enable
      0100AE34H   CODE     ---       SHIFTREG_ENC_5_EnableInt
*DEL*:00000000H   CODE     ---       SHIFTREG_ENC_5_GetIntStatus
      0100B074H   CODE     ---       SHIFTREG_ENC_5_Init
      02000D7EH   XDATA    BYTE      SHIFTREG_ENC_5_initVar
      0100AF46H   CODE     ---       SHIFTREG_ENC_5_ReadData
*DEL*:00000000H   CODE     ---       SHIFTREG_ENC_5_ReadRegValue
      0100ACCBH   CODE     ---       SHIFTREG_ENC_5_Start
*DEL*:00000000H   CODE     ---       SHIFTREG_ENC_5_Stop
*DEL*:00000000H   CODE     ---       SHIFTREG_ENC_6_DisableInt
      0100AEEBH   CODE     ---       SHIFTREG_ENC_6_Enable
      0100AE42H   CODE     ---       SHIFTREG_ENC_6_EnableInt
*DEL*:00000000H   CODE     ---       SHIFTREG_ENC_6_GetIntStatus
      0100B07AH   CODE     ---       SHIFTREG_ENC_6_Init
      02000D7FH   XDATA    BYTE      SHIFTREG_ENC_6_initVar
      0100AF50H   CODE     ---       SHIFTREG_ENC_6_ReadData
*DEL*:00000000H   CODE     ---       SHIFTREG_ENC_6_ReadRegValue
      0100ACDEH   CODE     ---       SHIFTREG_ENC_6_Start
*DEL*:00000000H   CODE     ---       SHIFTREG_ENC_6_Stop
*SFR* 00000081H   DATA     BYTE      SP
LX51 LINKER/LOCATER V4.64.0.0                                                         01/11/2017  18:17:27  PAGE 38


      02000D81H   XDATA    BYTE      SpcLockState
      01008E45H   CODE     NEAR LAB  STARTUP1
      00000021H.5 BIT      BIT       tension_valid
      02000AAFH   XDATA    DWORD     timer_value
      02000B6EH   XDATA    DWORD     timer_value0
      0100A83DH   CODE     ---       UART_RS485_ClearRxBuffer
      0100AD04H   CODE     ---       UART_RS485_ClearTxBuffer
      0100A985H   CODE     ---       UART_RS485_Enable
      02000D45H   XDATA    BYTE      UART_RS485_errorStatus
*DEL*:00000000H   CODE     ---       UART_RS485_GetByte
      0100A039H   CODE     ---       UART_RS485_GetChar
      0100A28EH   CODE     ---       UART_RS485_GetRxBufferSize
*DEL*:00000000H   CODE     ---       UART_RS485_GetTxBufferSize
      0100A746H   CODE     ---       UART_RS485_Init
      02000D43H   XDATA    BYTE      UART_RS485_initVar
*DEL*:00000000H   CODE     ---       UART_RS485_ReadControlRegister
*DEL*:00000000H   CODE     ---       UART_RS485_ReadRxData
      0100ABE6H   CODE     ---       UART_RS485_ReadRxStatus
      0100B056H   CODE     ---       UART_RS485_ReadTxStatus
      02000D22H   XDATA    ---       UART_RS485_rxBuffer
      02000D20H   XDATA    BYTE      UART_RS485_rxBufferLoopDetect
      02000D44H   XDATA    BYTE      UART_RS485_rxBufferOverflow
      02000D21H   XDATA    BYTE      UART_RS485_rxBufferRead
      02000D42H   XDATA    BYTE      UART_RS485_rxBufferWrite
      010095ACH   CODE     ---       UART_RS485_RXISR
      0100ACA5H   CODE     ---       UART_RS485_Start
      0100A9A7H   CODE     ---       UART_RS485_Stop
      0100AB50H   CODE     ---       WATCHDOG_COUNTER_Enable
      0100A63BH   CODE     ---       WATCHDOG_COUNTER_Init
      02000D75H   XDATA    BYTE      WATCHDOG_COUNTER_initVar
*DEL*:00000000H   CODE     ---       WATCHDOG_COUNTER_ReadCapture
*DEL*:00000000H   CODE     ---       WATCHDOG_COUNTER_ReadControlRegister
*DEL*:00000000H   CODE     ---       WATCHDOG_COUNTER_ReadCounter
*DEL*:00000000H   CODE     ---       WATCHDOG_COUNTER_ReadPeriod
*DEL*:00000000H   CODE     ---       WATCHDOG_COUNTER_ReadStatusRegister
      0100AC0DH   CODE     ---       WATCHDOG_COUNTER_Start
*DEL*:00000000H   CODE     ---       WATCHDOG_COUNTER_Stop
*DEL*:00000000H   CODE     ---       WATCHDOG_ENABLER_Read
      00000021H.3 BIT      BIT       watchdog_flag
*DEL*:00000000H   CODE     ---       WATCHDOG_REFRESH_Read



SYMBOL TABLE OF MODULE:  .\DP8051_Keil_951\Release\qbmove_adv_firmware.omf (COMMAND_PROCESSING)

      VALUE       REP       CLASS    TYPE      SYMBOL NAME
      ====================================================
      ---         MODULE    ---      ---       COMMAND_PROCESSING
      02000935H   PUBLIC    XDATA    ---       EEPROM_ADDR
      0100738EH   PUBLIC    CODE     ---       cmd_store_params
      01008713H   PUBLIC    CODE     ---       cmd_get_counters
      0100A9EAH   PUBLIC    CODE     ---       cmd_set_baudrate
      0100A963H   PUBLIC    CODE     ---       cmd_ping
      01009E2FH   PUBLIC    CODE     ---       cmd_get_inputs
      0100A44AH   PUBLIC    CODE     ---       cmd_set_watchdog
      0100A5BEH   PUBLIC    CODE     ---       cmd_get_activate
      01009F75H   PUBLIC    CODE     ---       cmd_get_velocities
      0100970BH   PUBLIC    CODE     ---       cmd_get_curr_and_meas
      0100A094H   PUBLIC    CODE     ---       cmd_get_currents
      01008415H   PUBLIC    CODE     ---       cmd_set_pos_stiff
      01007BCFH   PUBLIC    CODE     ---       cmd_set_inputs
      01009183H   PUBLIC    CODE     ---       cmd_activate
      01009AEEH   PUBLIC    CODE     ---       cmd_get_measurements
      01008293H   PUBLIC    CODE     ---       memInit
      0100A3BFH   PUBLIC    CODE     ---       memRestore
LX51 LINKER/LOCATER V4.64.0.0                                                         01/11/2017  18:17:27  PAGE 39


      0100A2DDH   PUBLIC    CODE     ---       memRecall
      01009449H   PUBLIC    CODE     ---       _memStore
      0100AB92H   PUBLIC    CODE     ---       _sendAcknowledgment
      0100983EH   PUBLIC    CODE     ---       _commWrite
      02000003H   PUBLIC    XDATA    BYTE      ?_commWrite_old_id?BYTE
      010097B1H   PUBLIC    CODE     ---       _commWrite_old_id
      0100261AH   PUBLIC    CODE     ---       _infoPrepare
      010038F3H   PUBLIC    CODE     ---       _get_param_list
      010098CBH   PUBLIC    CODE     ---       setZeros
      0100AABCH   PUBLIC    CODE     ---       _infoGet
      010080FEH   PUBLIC    CODE     ---       commProcess
      000000CAH   SFRSYM    DATA     BYTE      SFRPRT5SEL
      000000DAH   SFRSYM    DATA     BYTE      SFRPRT6SEL
      000000D0H.6 SFRSYM    DATA     BIT       AC
      000000A8H.7 SFRSYM    DATA     BIT       EA
      000000A8H   SFRSYM    DATA     BYTE      IE
      00000085H   SFRSYM    DATA     BYTE      DPH1
      00000084H   SFRSYM    DATA     BYTE      DPL1
      000000D0H.7 SFRSYM    DATA     BIT       CY
      000000A0H   SFRSYM    DATA     BYTE      P2AX
      00000095H   SFRSYM    DATA     BYTE      DPX1
      00000081H   SFRSYM    DATA     BYTE      SP
      000000D0H.2 SFRSYM    DATA     BIT       OV
      00000080H   SFRSYM    DATA     BYTE      SFRPRT0DR
      00000090H   SFRSYM    DATA     BYTE      SFRPRT1DR
      000000F2H   SFRSYM    DATA     BYTE      SFRPRT12SEL
      00000098H   SFRSYM    DATA     BYTE      SFRPRT2DR
      000000B0H   SFRSYM    DATA     BYTE      SFRPRT3DR
      000000C0H   SFRSYM    DATA     BYTE      SFRPRT4DR
      000000FAH   SFRSYM    DATA     BYTE      SFRPRT15SEL
      000000C8H   SFRSYM    DATA     BYTE      SFRPRT5DR
      000000D8H   SFRSYM    DATA     BYTE      SFRPRT6DR
      00000089H   SFRSYM    DATA     BYTE      SFRPRT0PS
      00000091H   SFRSYM    DATA     BYTE      SFRPRT1PS
      00000099H   SFRSYM    DATA     BYTE      SFRPRT2PS
      000000B1H   SFRSYM    DATA     BYTE      SFRPRT3PS
      000000C1H   SFRSYM    DATA     BYTE      SFRPRT4PS
      000000C9H   SFRSYM    DATA     BYTE      SFRPRT5PS
      000000D9H   SFRSYM    DATA     BYTE      SFRPRT6PS
      000000EAH   SFRSYM    DATA     BYTE      MXAX
      000000F0H   SFRSYM    DATA     BYTE      B
      000000E0H   SFRSYM    DATA     BYTE      ACC
      000000D0H   SFRSYM    DATA     BIT       P
      000000D0H.3 SFRSYM    DATA     BIT       RS0
      000000D0H.4 SFRSYM    DATA     BIT       RS1
      00000083H   SFRSYM    DATA     BYTE      DPH
      000000E8H   SFRSYM    DATA     BYTE      SFRPRT12DR
      00000082H   SFRSYM    DATA     BYTE      DPL
      000000F8H   SFRSYM    DATA     BYTE      SFRPRT15DR
      00000086H   SFRSYM    DATA     BYTE      DPS
      000000E9H   SFRSYM    DATA     BYTE      SFRPRT12PS
      00000093H   SFRSYM    DATA     BYTE      DPX
      000000F9H   SFRSYM    DATA     BYTE      SFRPRT15PS
      000000D0H.5 SFRSYM    DATA     BIT       F0
      000000D0H.1 SFRSYM    DATA     BIT       F1
      0000008AH   SFRSYM    DATA     BYTE      SFRPRT0SEL
      000000D0H   SFRSYM    DATA     BYTE      PSW
      000000A2H   SFRSYM    DATA     BYTE      SFRPRT1SEL
      0000009AH   SFRSYM    DATA     BYTE      SFRPRT2SEL
      000000B2H   SFRSYM    DATA     BYTE      SFRPRT3SEL
      000000C2H   SFRSYM    DATA     BYTE      SFRPRT4SEL
      010067DAH   SYMBOL    CODE     ---       _?ix1000
      010068D5H   SYMBOL    CODE     ---       _?ix1010
      010067E9H   SYMBOL    CODE     ---       _?ix1001
      010068F2H   SYMBOL    CODE     ---       _?ix1011
LX51 LINKER/LOCATER V4.64.0.0                                                         01/11/2017  18:17:27  PAGE 40


      01006805H   SYMBOL    CODE     ---       _?ix1002
      0100690DH   SYMBOL    CODE     ---       _?ix1012
      01006820H   SYMBOL    CODE     ---       _?ix1003
      01006921H   SYMBOL    CODE     ---       _?ix1013
      0100683CH   SYMBOL    CODE     ---       _?ix1004
      01006955H   SYMBOL    CODE     ---       _?ix1014
      01006857H   SYMBOL    CODE     ---       _?ix1005
      010069B8H   SYMBOL    CODE     ---       _?ix1015
      0100687EH   SYMBOL    CODE     ---       _?ix1006
      0100688FH   SYMBOL    CODE     ---       _?ix1007
      010068A8H   SYMBOL    CODE     ---       _?ix1008
      010068B9H   SYMBOL    CODE     ---       _?ix1009

      010080FEH   BLOCK     CODE     ---       LVL=0
      010080FEH   BLOCK     CODE     NEAR LAB  LVL=1
      02000002H   SYMBOL    XDATA    BYTE      rx_cmd
      ---         BLOCKEND  ---      ---       LVL=1
      010080FEH   LINE      CODE     ---       #38
      010080FEH   LINE      CODE     ---       #42
      01008106H   LINE      CODE     ---       #46
      01008131H   LINE      CODE     ---       #48
      01008137H   LINE      CODE     ---       #50
      01008137H   LINE      CODE     ---       #52
      01008184H   LINE      CODE     ---       #55
      01008184H   LINE      CODE     ---       #56
      01008187H   LINE      CODE     ---       #57
      0100818AH   LINE      CODE     ---       #61
      0100818AH   LINE      CODE     ---       #62
      0100818DH   LINE      CODE     ---       #63
      01008190H   LINE      CODE     ---       #67
      01008190H   LINE      CODE     ---       #68
      01008193H   LINE      CODE     ---       #69
      01008196H   LINE      CODE     ---       #73
      01008196H   LINE      CODE     ---       #74
      01008199H   LINE      CODE     ---       #75
      0100819CH   LINE      CODE     ---       #79
      0100819CH   LINE      CODE     ---       #80
      0100819FH   LINE      CODE     ---       #81
      010081A2H   LINE      CODE     ---       #85
      010081A2H   LINE      CODE     ---       #86
      010081A5H   LINE      CODE     ---       #87
      010081A8H   LINE      CODE     ---       #91
      010081A8H   LINE      CODE     ---       #92
      010081ABH   LINE      CODE     ---       #93
      010081AEH   LINE      CODE     ---       #96
      010081AEH   LINE      CODE     ---       #97
      010081B1H   LINE      CODE     ---       #98
      010081B4H   LINE      CODE     ---       #102
      010081B4H   LINE      CODE     ---       #103
      010081B7H   LINE      CODE     ---       #104
      010081BAH   LINE      CODE     ---       #108
      010081BAH   LINE      CODE     ---       #109
      010081BDH   LINE      CODE     ---       #110
      010081C0H   LINE      CODE     ---       #114
      010081C0H   LINE      CODE     ---       #115
      010081C3H   LINE      CODE     ---       #116
      010081C6H   LINE      CODE     ---       #120
      010081C6H   LINE      CODE     ---       #121
      010081D1H   LINE      CODE     ---       #122
      010081DFH   LINE      CODE     ---       #123
      010081E2H   LINE      CODE     ---       #127
      010081E2H   LINE      CODE     ---       #128
      010081E5H   LINE      CODE     ---       #129
      010081F3H   LINE      CODE     ---       #130
      010081F6H   LINE      CODE     ---       #134
LX51 LINKER/LOCATER V4.64.0.0                                                         01/11/2017  18:17:27  PAGE 41


      010081F6H   LINE      CODE     ---       #135
      01008201H   LINE      CODE     ---       #136
      0100820FH   LINE      CODE     ---       #137
      01008211H   LINE      CODE     ---       #141
      01008211H   LINE      CODE     ---       #142
      01008214H   LINE      CODE     ---       #143
      01008216H   LINE      CODE     ---       #147
      01008216H   LINE      CODE     ---       #148
      01008219H   LINE      CODE     ---       #149
      0100821BH   LINE      CODE     ---       #153
      0100821BH   LINE      CODE     ---       #154
      01008225H   LINE      CODE     ---       #155
      0100822AH   LINE      CODE     ---       #156
      0100822CH   LINE      CODE     ---       #157
      01008231H   LINE      CODE     ---       #158
      01008231H   LINE      CODE     ---       #159
      01008233H   LINE      CODE     ---       #163
      01008233H   LINE      CODE     ---       #164
      01008239H   LINE      CODE     ---       #165
      0100823EH   LINE      CODE     ---       #166
      01008240H   LINE      CODE     ---       #167
      01008245H   LINE      CODE     ---       #168
      01008245H   LINE      CODE     ---       #169
      01008247H   LINE      CODE     ---       #173
      01008247H   LINE      CODE     ---       #174
      0100824DH   LINE      CODE     ---       #175
      01008252H   LINE      CODE     ---       #176
      01008254H   LINE      CODE     ---       #177
      01008259H   LINE      CODE     ---       #178
      01008259H   LINE      CODE     ---       #179
      0100825BH   LINE      CODE     ---       #182
      0100825BH   LINE      CODE     ---       #183
      01008260H   LINE      CODE     ---       #184
      0100826AH   LINE      CODE     ---       #185
      0100826FH   LINE      CODE     ---       #186
      01008279H   LINE      CODE     ---       #187
      0100827CH   LINE      CODE     ---       #188
      0100827EH   LINE      CODE     ---       #191
      0100827EH   LINE      CODE     ---       #192
      01008284H   LINE      CODE     ---       #193
      01008288H   LINE      CODE     ---       #194
      0100828AH   LINE      CODE     ---       #197
      0100828AH   LINE      CODE     ---       #198
      0100828DH   LINE      CODE     ---       #199
      0100828DH   LINE      CODE     ---       #202
      0100828DH   LINE      CODE     ---       #203
      0100828DH   LINE      CODE     ---       #205
      0100828DH   LINE      CODE     ---       #206
      01008292H   LINE      CODE     ---       #207
      ---         BLOCKEND  ---      ---       LVL=0

      0100AABCH   BLOCK     CODE     ---       LVL=0
      00000006H   SYMBOL    DATA     WORD      info_type
      0100AABCH   BLOCK     CODE     NEAR LAB  LVL=1
      02000003H   SYMBOL    XDATA    ---       packet_string
      ---         BLOCKEND  ---      ---       LVL=1
      0100AABCH   LINE      CODE     ---       #213
      0100AABCH   LINE      CODE     ---       #218
      0100AAC2H   LINE      CODE     ---       #219
      0100AAC2H   LINE      CODE     ---       #220
      0100AACBH   LINE      CODE     ---       #221
      0100AAD4H   LINE      CODE     ---       #222
      0100AAD4H   LINE      CODE     ---       #223
      0100AAD4H   LINE      CODE     ---       #224
      0100AAD4H   LINE      CODE     ---       #225
LX51 LINKER/LOCATER V4.64.0.0                                                         01/11/2017  18:17:27  PAGE 42


      0100AAD4H   LINE      CODE     ---       #226
      ---         BLOCKEND  ---      ---       LVL=0

      010098CBH   BLOCK     CODE     ---       LVL=0
      010098CBH   BLOCK     CODE     NEAR LAB  LVL=1
      02000003H   SYMBOL    XDATA    BYTE      i
      ---         BLOCKEND  ---      ---       LVL=1
      010098CBH   LINE      CODE     ---       #232
      010098CBH   LINE      CODE     ---       #233
      010098CBH   LINE      CODE     ---       #236
      010098DAH   LINE      CODE     ---       #237
      01009903H   LINE      CODE     ---       #238
      0100993BH   LINE      CODE     ---       #240
      01009947H   LINE      CODE     ---       #241
      0100994FH   LINE      CODE     ---       #242
      01009951H   LINE      CODE     ---       #244
      01009956H   LINE      CODE     ---       #245
      ---         BLOCKEND  ---      ---       LVL=0

      010038F3H   BLOCK     CODE     ---       LVL=0
      02000003H   SYMBOL    XDATA    WORD      index
      010038FBH   BLOCK     CODE     NEAR LAB  LVL=1
      020004B6H   SYMBOL    XDATA    ---       packet_data
      02000005H   SYMBOL    XDATA    WORD      packet_lenght
      0000006EH   SYMBOL    DATA     WORD      i
      02000007H   SYMBOL    XDATA    BYTE      string_lenght
      02000008H   SYMBOL    XDATA    LONG      aux_int
      0200000CH   SYMBOL    XDATA    ---       id_str
      0200001BH   SYMBOL    XDATA    ---       pos_pid_str
      02000037H   SYMBOL    XDATA    ---       curr_pid_str
      02000052H   SYMBOL    XDATA    ---       startup_str
      0200006EH   SYMBOL    XDATA    ---       input_str
      02000089H   SYMBOL    XDATA    ---       contr_str
      020000B0H   SYMBOL    XDATA    ---       res_str
      020000C1H   SYMBOL    XDATA    ---       m_off_str
      020000DAH   SYMBOL    XDATA    ---       mult_str
      020000EBH   SYMBOL    XDATA    ---       pos_lim_flag_str
      02000107H   SYMBOL    XDATA    ---       pos_lim_str
      02000124H   SYMBOL    XDATA    ---       max_step_str
      0200013FH   SYMBOL    XDATA    ---       curr_limit_str
      02000153H   SYMBOL    XDATA    ---       input_mode_menu
      02000187H   SYMBOL    XDATA    ---       control_mode_menu
      020001EAH   SYMBOL    XDATA    ---       yes_no_menu
      00000070H   SYMBOL    DATA     BYTE      id_str_len
      00000071H   SYMBOL    DATA     BYTE      pos_pid_str_len
      00000072H   SYMBOL    DATA     BYTE      curr_pid_str_len
      00000073H   SYMBOL    DATA     BYTE      res_str_len
      00000074H   SYMBOL    DATA     BYTE      m_off_str_len
      00000075H   SYMBOL    DATA     BYTE      mult_str_len
      00000076H   SYMBOL    DATA     BYTE      pos_lim_str_len
      00000077H   SYMBOL    DATA     BYTE      curr_limit_str_len
      00000078H   SYMBOL    DATA     BYTE      input_mode_menu_len
      00000079H   SYMBOL    DATA     BYTE      control_mode_menu_len
      0000007AH   SYMBOL    DATA     BYTE      yes_no_menu_len
      ---         BLOCKEND  ---      ---       LVL=1
      010038F3H   LINE      CODE     ---       #251
      010038FBH   LINE      CODE     ---       #252
      010038FBH   LINE      CODE     ---       #255
      01003903H   LINE      CODE     ---       #263
      01003916H   LINE      CODE     ---       #264
      01003929H   LINE      CODE     ---       #265
      0100393CH   LINE      CODE     ---       #266
      0100394FH   LINE      CODE     ---       #267
      01003962H   LINE      CODE     ---       #268
      01003975H   LINE      CODE     ---       #269
LX51 LINKER/LOCATER V4.64.0.0                                                         01/11/2017  18:17:27  PAGE 43


      01003988H   LINE      CODE     ---       #270
      0100399BH   LINE      CODE     ---       #271
      010039AEH   LINE      CODE     ---       #272
      010039C1H   LINE      CODE     ---       #273
      010039D4H   LINE      CODE     ---       #274
      010039E7H   LINE      CODE     ---       #275
      010039FAH   LINE      CODE     ---       #278
      01003A0DH   LINE      CODE     ---       #279
      01003A20H   LINE      CODE     ---       #280
      01003A33H   LINE      CODE     ---       #283
      01003A3EH   LINE      CODE     ---       #284
      01003A49H   LINE      CODE     ---       #285
      01003A54H   LINE      CODE     ---       #287
      01003A5FH   LINE      CODE     ---       #288
      01003A6AH   LINE      CODE     ---       #289
      01003A75H   LINE      CODE     ---       #291
      01003A80H   LINE      CODE     ---       #292
      01003A8BH   LINE      CODE     ---       #294
      01003A96H   LINE      CODE     ---       #295
      01003AA1H   LINE      CODE     ---       #296
      01003AACH   LINE      CODE     ---       #298
      01003AB2H   LINE      CODE     ---       #299
      01003AB5H   LINE      CODE     ---       #301
      01003AFDH   LINE      CODE     ---       #302
      01003AFDH   LINE      CODE     ---       #305
      01003B03H   LINE      CODE     ---       #306
      01003B06H   LINE      CODE     ---       #307
      01003B0EH   LINE      CODE     ---       #308
      01003B1AH   LINE      CODE     ---       #309
      01003B46H   LINE      CODE     ---       #313
      01003B4CH   LINE      CODE     ---       #314
      01003B50H   LINE      CODE     ---       #315
      01003B5DH   LINE      CODE     ---       #316
      01003B7FH   LINE      CODE     ---       #317
      01003BA1H   LINE      CODE     ---       #318
      01003BC3H   LINE      CODE     ---       #319
      01003BC5H   LINE      CODE     ---       #320
      01003BC5H   LINE      CODE     ---       #321
      01003BE7H   LINE      CODE     ---       #322
      01003C09H   LINE      CODE     ---       #323
      01003C2BH   LINE      CODE     ---       #324
      01003C2BH   LINE      CODE     ---       #325
      01003C37H   LINE      CODE     ---       #326
      01003C63H   LINE      CODE     ---       #330
      01003C69H   LINE      CODE     ---       #331
      01003C6DH   LINE      CODE     ---       #332
      01003C7AH   LINE      CODE     ---       #333
      01003C9CH   LINE      CODE     ---       #334
      01003CBEH   LINE      CODE     ---       #335
      01003CE0H   LINE      CODE     ---       #336
      01003CE2H   LINE      CODE     ---       #337
      01003CE2H   LINE      CODE     ---       #338
      01003D04H   LINE      CODE     ---       #339
      01003D26H   LINE      CODE     ---       #340
      01003D48H   LINE      CODE     ---       #341
      01003D48H   LINE      CODE     ---       #342
      01003D54H   LINE      CODE     ---       #343
      01003D80H   LINE      CODE     ---       #347
      01003D85H   LINE      CODE     ---       #348
      01003D88H   LINE      CODE     ---       #349
      01003D90H   LINE      CODE     ---       #350
      01003D95H   LINE      CODE     ---       #351
      01003DACH   LINE      CODE     ---       #352
      01003DB2H   LINE      CODE     ---       #353
      01003DB4H   LINE      CODE     ---       #354
LX51 LINKER/LOCATER V4.64.0.0                                                         01/11/2017  18:17:27  PAGE 44


      01003DB4H   LINE      CODE     ---       #355
      01003DCBH   LINE      CODE     ---       #356
      01003DD1H   LINE      CODE     ---       #357
      01003DD1H   LINE      CODE     ---       #358
      01003DE0H   LINE      CODE     ---       #359
      01003E0EH   LINE      CODE     ---       #361
      01003E1EH   LINE      CODE     ---       #366
      01003E23H   LINE      CODE     ---       #367
      01003E26H   LINE      CODE     ---       #368
      01003E2EH   LINE      CODE     ---       #369
      01003E37H   LINE      CODE     ---       #370
      01003E37H   LINE      CODE     ---       #371
      01003E4EH   LINE      CODE     ---       #372
      01003E54H   LINE      CODE     ---       #373
      01003E56H   LINE      CODE     ---       #374
      01003E56H   LINE      CODE     ---       #375
      01003E6DH   LINE      CODE     ---       #376
      01003E73H   LINE      CODE     ---       #377
      01003E73H   LINE      CODE     ---       #378
      01003E73H   LINE      CODE     ---       #379
      01003E82H   LINE      CODE     ---       #380
      01003EB0H   LINE      CODE     ---       #382
      01003EC0H   LINE      CODE     ---       #386
      01003EC5H   LINE      CODE     ---       #387
      01003EC8H   LINE      CODE     ---       #388
      01003ED0H   LINE      CODE     ---       #389
      01003EEFH   LINE      CODE     ---       #390
      01003EEFH   LINE      CODE     ---       #391
      01003F06H   LINE      CODE     ---       #392
      01003F0CH   LINE      CODE     ---       #393
      01003F0FH   LINE      CODE     ---       #394
      01003F0FH   LINE      CODE     ---       #395
      01003F26H   LINE      CODE     ---       #396
      01003F2CH   LINE      CODE     ---       #397
      01003F2EH   LINE      CODE     ---       #398
      01003F2EH   LINE      CODE     ---       #399
      01003F45H   LINE      CODE     ---       #400
      01003F4BH   LINE      CODE     ---       #401
      01003F4DH   LINE      CODE     ---       #402
      01003F4DH   LINE      CODE     ---       #403
      01003F64H   LINE      CODE     ---       #404
      01003F6AH   LINE      CODE     ---       #405
      01003F6CH   LINE      CODE     ---       #406
      01003F6CH   LINE      CODE     ---       #407
      01003F83H   LINE      CODE     ---       #408
      01003F89H   LINE      CODE     ---       #409
      01003F8BH   LINE      CODE     ---       #410
      01003F8BH   LINE      CODE     ---       #411
      01003FA2H   LINE      CODE     ---       #412
      01003FA8H   LINE      CODE     ---       #413
      01003FA8H   LINE      CODE     ---       #414
      01003FA8H   LINE      CODE     ---       #415
      01003FB7H   LINE      CODE     ---       #416
      01003FE5H   LINE      CODE     ---       #418
      01003FF5H   LINE      CODE     ---       #422
      01003FF9H   LINE      CODE     ---       #423
      01003FFDH   LINE      CODE     ---       #424
      0100400DH   LINE      CODE     ---       #425
      01004033H   LINE      CODE     ---       #426
      0100403FH   LINE      CODE     ---       #427
      0100406BH   LINE      CODE     ---       #431
      01004071H   LINE      CODE     ---       #432
      01004075H   LINE      CODE     ---       #433
      01004085H   LINE      CODE     ---       #434
      010040D4H   LINE      CODE     ---       #435
LX51 LINKER/LOCATER V4.64.0.0                                                         01/11/2017  18:17:27  PAGE 45


      010040DEH   LINE      CODE     ---       #436
      010040EAH   LINE      CODE     ---       #437
      01004116H   LINE      CODE     ---       #441
      0100411CH   LINE      CODE     ---       #442
      0100411FH   LINE      CODE     ---       #443
      0100412FH   LINE      CODE     ---       #444
      01004183H   LINE      CODE     ---       #445
      0100418FH   LINE      CODE     ---       #446
      010041BBH   LINE      CODE     ---       #450
      010041C0H   LINE      CODE     ---       #451
      010041C3H   LINE      CODE     ---       #452
      010041CBH   LINE      CODE     ---       #453
      010041D0H   LINE      CODE     ---       #454
      010041E7H   LINE      CODE     ---       #455
      010041EDH   LINE      CODE     ---       #456
      010041EFH   LINE      CODE     ---       #457
      010041EFH   LINE      CODE     ---       #458
      01004206H   LINE      CODE     ---       #459
      0100420CH   LINE      CODE     ---       #460
      0100420CH   LINE      CODE     ---       #461
      0100421BH   LINE      CODE     ---       #462
      01004249H   LINE      CODE     ---       #464
      01004259H   LINE      CODE     ---       #468
      0100425FH   LINE      CODE     ---       #469
      01004262H   LINE      CODE     ---       #470
      01004275H   LINE      CODE     ---       #471
      010042D1H   LINE      CODE     ---       #472
      0100432DH   LINE      CODE     ---       #473
      01004338H   LINE      CODE     ---       #474
      01004344H   LINE      CODE     ---       #475
      01004370H   LINE      CODE     ---       #479
      01004376H   LINE      CODE     ---       #480
      0100437AH   LINE      CODE     ---       #481
      0100438EH   LINE      CODE     ---       #482
      010043A2H   LINE      CODE     ---       #483
      010043B9H   LINE      CODE     ---       #484
      010043DFH   LINE      CODE     ---       #488
      010043E5H   LINE      CODE     ---       #489
      010043E9H   LINE      CODE     ---       #490
      010043F8H   LINE      CODE     ---       #491
      01004404H   LINE      CODE     ---       #492
      01004430H   LINE      CODE     ---       #496
      0100443CH   LINE      CODE     ---       #497
      01004468H   LINE      CODE     ---       #499
      01004474H   LINE      CODE     ---       #500
      010044A0H   LINE      CODE     ---       #502
      010044ACH   LINE      CODE     ---       #503
      010044D8H   LINE      CODE     ---       #506
      010044FCH   LINE      CODE     ---       #507
      01004505H   LINE      CODE     ---       #508
      01004508H   LINE      CODE     ---       #509
      01004509H   LINE      CODE     ---       #512
      01004509H   LINE      CODE     ---       #513
      01004511H   LINE      CODE     ---       #514
      01004512H   LINE      CODE     ---       #517
      01004512H   LINE      CODE     ---       #518
      0100451FH   LINE      CODE     ---       #519
      01004540H   LINE      CODE     ---       #520
      01004561H   LINE      CODE     ---       #521
      01004582H   LINE      CODE     ---       #522
      01004583H   LINE      CODE     ---       #523
      01004583H   LINE      CODE     ---       #524
      010045A4H   LINE      CODE     ---       #525
      010045C5H   LINE      CODE     ---       #526
      010045E6H   LINE      CODE     ---       #527
LX51 LINKER/LOCATER V4.64.0.0                                                         01/11/2017  18:17:27  PAGE 46


      010045E6H   LINE      CODE     ---       #528
      010045E7H   LINE      CODE     ---       #531
      010045E7H   LINE      CODE     ---       #532
      010045F4H   LINE      CODE     ---       #533
      01004615H   LINE      CODE     ---       #534
      01004636H   LINE      CODE     ---       #535
      01004657H   LINE      CODE     ---       #536
      01004658H   LINE      CODE     ---       #537
      01004658H   LINE      CODE     ---       #538
      01004679H   LINE      CODE     ---       #539
      0100469AH   LINE      CODE     ---       #540
      010046BBH   LINE      CODE     ---       #541
      010046BBH   LINE      CODE     ---       #542
      010046BCH   LINE      CODE     ---       #545
      010046BCH   LINE      CODE     ---       #546
      010046C4H   LINE      CODE     ---       #547
      010046C5H   LINE      CODE     ---       #550
      010046C5H   LINE      CODE     ---       #551
      010046CDH   LINE      CODE     ---       #552
      010046CEH   LINE      CODE     ---       #555
      010046CEH   LINE      CODE     ---       #556
      010046D6H   LINE      CODE     ---       #557
      010046D7H   LINE      CODE     ---       #560
      010046D7H   LINE      CODE     ---       #561
      010046EAH   LINE      CODE     ---       #562
      01004710H   LINE      CODE     ---       #563
      01004710H   LINE      CODE     ---       #566
      01004710H   LINE      CODE     ---       #567
      01004723H   LINE      CODE     ---       #568
      0100476DH   LINE      CODE     ---       #569
      0100479FH   LINE      CODE     ---       #571
      010047ADH   LINE      CODE     ---       #572
      010047B8H   LINE      CODE     ---       #573
      010047BAH   LINE      CODE     ---       #574
      010047BBH   LINE      CODE     ---       #577
      010047BBH   LINE      CODE     ---       #578
      010047CEH   LINE      CODE     ---       #579
      01004822H   LINE      CODE     ---       #580
      01004822H   LINE      CODE     ---       #583
      01004822H   LINE      CODE     ---       #584
      0100482AH   LINE      CODE     ---       #585
      0100482BH   LINE      CODE     ---       #588
      0100482BH   LINE      CODE     ---       #589
      0100483EH   LINE      CODE     ---       #590
      01004888H   LINE      CODE     ---       #591
      010048D5H   LINE      CODE     ---       #593
      01004907H   LINE      CODE     ---       #594
      01004945H   LINE      CODE     ---       #595
      01004950H   LINE      CODE     ---       #596
      01004950H   LINE      CODE     ---       #599
      01004950H   LINE      CODE     ---       #600
      01004964H   LINE      CODE     ---       #601
      0100497DH   LINE      CODE     ---       #602
      01004991H   LINE      CODE     ---       #604
      010049A5H   LINE      CODE     ---       #605
      010049BEH   LINE      CODE     ---       #606
      010049D2H   LINE      CODE     ---       #607
      010049D3H   LINE      CODE     ---       #610
      010049D3H   LINE      CODE     ---       #611
      010049E2H   LINE      CODE     ---       #612
      010049E2H   LINE      CODE     ---       #613
      010049E2H   LINE      CODE     ---       #614
      ---         BLOCKEND  ---      ---       LVL=0

      0100261AH   BLOCK     CODE     ---       LVL=0
LX51 LINKER/LOCATER V4.64.0.0                                                         01/11/2017  18:17:27  PAGE 47


      0200044FH   SYMBOL    XDATA    ---       info_string
      01002625H   BLOCK     CODE     NEAR LAB  LVL=1
      02000452H   SYMBOL    XDATA    INT       i
      02000454H   SYMBOL    XDATA    ---       str
      ---         BLOCKEND  ---      ---       LVL=1
      0100261AH   LINE      CODE     ---       #621
      01002625H   LINE      CODE     ---       #622
      01002625H   LINE      CODE     ---       #626
      0100263DH   LINE      CODE     ---       #627
      01002659H   LINE      CODE     ---       #628
      01002675H   LINE      CODE     ---       #629
      01002691H   LINE      CODE     ---       #630
      010026ADH   LINE      CODE     ---       #632
      010026C9H   LINE      CODE     ---       #633
      010026EDH   LINE      CODE     ---       #634
      01002709H   LINE      CODE     ---       #635
      01002727H   LINE      CODE     ---       #636
      01002743H   LINE      CODE     ---       #637
      01002767H   LINE      CODE     ---       #638
      01002783H   LINE      CODE     ---       #639
      0100279FH   LINE      CODE     ---       #641
      010027BBH   LINE      CODE     ---       #642
      010027D7H   LINE      CODE     ---       #644
      010027EEH   LINE      CODE     ---       #645
      010027EEH   LINE      CODE     ---       #646
      010027EEH   LINE      CODE     ---       #647
      0100280AH   LINE      CODE     ---       #648
      0100280CH   LINE      CODE     ---       #650
      0100280CH   LINE      CODE     ---       #651
      01002828H   LINE      CODE     ---       #652
      0100282AH   LINE      CODE     ---       #654
      0100282AH   LINE      CODE     ---       #655
      01002846H   LINE      CODE     ---       #656
      01002848H   LINE      CODE     ---       #658
      01002848H   LINE      CODE     ---       #659
      01002848H   LINE      CODE     ---       #660
      01002864H   LINE      CODE     ---       #661
      01002864H   LINE      CODE     ---       #662
      01002864H   LINE      CODE     ---       #664
      0100287FH   LINE      CODE     ---       #665
      01002887H   LINE      CODE     ---       #666
      010028C7H   LINE      CODE     ---       #667
      010028E3H   LINE      CODE     ---       #668
      010028E6H   LINE      CODE     ---       #669
      010028E6H   LINE      CODE     ---       #670
      010028EEH   LINE      CODE     ---       #671
      0100292EH   LINE      CODE     ---       #672
      0100294AH   LINE      CODE     ---       #673
      0100294DH   LINE      CODE     ---       #674
      0100294DH   LINE      CODE     ---       #675
      0100295EH   LINE      CODE     ---       #676
      010029D4H   LINE      CODE     ---       #677
      010029F0H   LINE      CODE     ---       #678
      010029F2H   LINE      CODE     ---       #679
      010029F2H   LINE      CODE     ---       #680
      01002A4DH   LINE      CODE     ---       #681
      01002A69H   LINE      CODE     ---       #682
      01002A69H   LINE      CODE     ---       #683
      01002A69H   LINE      CODE     ---       #684
      01002A69H   LINE      CODE     ---       #685
      01002A7AH   LINE      CODE     ---       #686
      01002A96H   LINE      CODE     ---       #688
      01002AADH   LINE      CODE     ---       #689
      01002AB5H   LINE      CODE     ---       #690
      01002ACEH   LINE      CODE     ---       #692
LX51 LINKER/LOCATER V4.64.0.0                                                         01/11/2017  18:17:27  PAGE 48


      01002AE5H   LINE      CODE     ---       #693
      01002B01H   LINE      CODE     ---       #696
      01002B1DH   LINE      CODE     ---       #697
      01002B39H   LINE      CODE     ---       #698
      01002B54H   LINE      CODE     ---       #699
      01002BC0H   LINE      CODE     ---       #700
      01002BDCH   LINE      CODE     ---       #701
      01002BF8H   LINE      CODE     ---       #702
      01002C09H   LINE      CODE     ---       #703
      01002C34H   LINE      CODE     ---       #704
      01002C50H   LINE      CODE     ---       #705
      01002C6CH   LINE      CODE     ---       #707
      01002C97H   LINE      CODE     ---       #708
      01002CB3H   LINE      CODE     ---       #709
      01002CCFH   LINE      CODE     ---       #711
      01002CFAH   LINE      CODE     ---       #712
      01002D16H   LINE      CODE     ---       #713
      01002D32H   LINE      CODE     ---       #716
      01002D4EH   LINE      CODE     ---       #718
      01002D6AH   LINE      CODE     ---       #719
      01002D7EH   LINE      CODE     ---       #720
      01002DB7H   LINE      CODE     ---       #721
      01002DD3H   LINE      CODE     ---       #722
      01002E0CH   LINE      CODE     ---       #723
      01002E28H   LINE      CODE     ---       #724
      01002E61H   LINE      CODE     ---       #725
      01002E7DH   LINE      CODE     ---       #726
      01002E80H   LINE      CODE     ---       #727
      01002E80H   LINE      CODE     ---       #728
      01002EB9H   LINE      CODE     ---       #729
      01002ED5H   LINE      CODE     ---       #730
      01002F0EH   LINE      CODE     ---       #731
      01002F2AH   LINE      CODE     ---       #732
      01002F63H   LINE      CODE     ---       #733
      01002F7FH   LINE      CODE     ---       #734
      01002F7FH   LINE      CODE     ---       #736
      01002F9BH   LINE      CODE     ---       #737
      01002FAFH   LINE      CODE     ---       #738
      01002FE8H   LINE      CODE     ---       #739
      01003004H   LINE      CODE     ---       #740
      0100303DH   LINE      CODE     ---       #741
      01003059H   LINE      CODE     ---       #742
      01003092H   LINE      CODE     ---       #743
      010030AEH   LINE      CODE     ---       #744
      010030B1H   LINE      CODE     ---       #745
      010030B1H   LINE      CODE     ---       #746
      010030EAH   LINE      CODE     ---       #747
      01003106H   LINE      CODE     ---       #748
      0100313FH   LINE      CODE     ---       #749
      0100315BH   LINE      CODE     ---       #750
      01003194H   LINE      CODE     ---       #751
      010031B0H   LINE      CODE     ---       #752
      010031B0H   LINE      CODE     ---       #755
      010031CCH   LINE      CODE     ---       #757
      010031D3H   LINE      CODE     ---       #758
      010031F1H   LINE      CODE     ---       #760
      0100320DH   LINE      CODE     ---       #762
      01003217H   LINE      CODE     ---       #763
      01003217H   LINE      CODE     ---       #764
      01003233H   LINE      CODE     ---       #765
      01003235H   LINE      CODE     ---       #766
      01003235H   LINE      CODE     ---       #767
      01003251H   LINE      CODE     ---       #768
      01003251H   LINE      CODE     ---       #769
      01003251H   LINE      CODE     ---       #771
LX51 LINKER/LOCATER V4.64.0.0                                                         01/11/2017  18:17:27  PAGE 49


      0100326DH   LINE      CODE     ---       #772
      0100328DH   LINE      CODE     ---       #773
      0100328DH   LINE      CODE     ---       #774
      010032A9H   LINE      CODE     ---       #775
      010032ACH   LINE      CODE     ---       #776
      010032ACH   LINE      CODE     ---       #777
      010032C8H   LINE      CODE     ---       #778
      010032CAH   LINE      CODE     ---       #779
      010032CAH   LINE      CODE     ---       #780
      010032E6H   LINE      CODE     ---       #781
      010032E8H   LINE      CODE     ---       #782
      010032E8H   LINE      CODE     ---       #783
      01003304H   LINE      CODE     ---       #784
      01003306H   LINE      CODE     ---       #785
      01003306H   LINE      CODE     ---       #786
      01003322H   LINE      CODE     ---       #787
      01003324H   LINE      CODE     ---       #788
      01003324H   LINE      CODE     ---       #789
      01003340H   LINE      CODE     ---       #790
      01003340H   LINE      CODE     ---       #791
      01003340H   LINE      CODE     ---       #795
      0100335CH   LINE      CODE     ---       #796
      01003377H   LINE      CODE     ---       #797
      01003377H   LINE      CODE     ---       #798
      010033B6H   LINE      CODE     ---       #799
      010033D2H   LINE      CODE     ---       #800
      010033EEH   LINE      CODE     ---       #801
      010033FFH   LINE      CODE     ---       #804
      0100341BH   LINE      CODE     ---       #805
      01003437H   LINE      CODE     ---       #806
      01003437H   LINE      CODE     ---       #807
      0100343DH   LINE      CODE     ---       #808
      010034A9H   LINE      CODE     ---       #810
      01003510H   LINE      CODE     ---       #811
      0100352CH   LINE      CODE     ---       #812
      01003548H   LINE      CODE     ---       #813
      01003559H   LINE      CODE     ---       #815
      01003575H   LINE      CODE     ---       #816
      01003590H   LINE      CODE     ---       #817
      01003590H   LINE      CODE     ---       #818
      010035E1H   LINE      CODE     ---       #819
      010035FDH   LINE      CODE     ---       #820
      01003619H   LINE      CODE     ---       #821
      0100362AH   LINE      CODE     ---       #823
      0100364EH   LINE      CODE     ---       #824
      0100366AH   LINE      CODE     ---       #825
      01003686H   LINE      CODE     ---       #827
      010036A1H   LINE      CODE     ---       #828
      01003708H   LINE      CODE     ---       #829
      01003724H   LINE      CODE     ---       #831
      01003778H   LINE      CODE     ---       #832
      01003794H   LINE      CODE     ---       #833
      010037A5H   LINE      CODE     ---       #835
      010037E0H   LINE      CODE     ---       #836
      010037FCH   LINE      CODE     ---       #837
      01003818H   LINE      CODE     ---       #839
      0100383EH   LINE      CODE     ---       #840
      0100385AH   LINE      CODE     ---       #841
      01003876H   LINE      CODE     ---       #843
      010038BAH   LINE      CODE     ---       #844
      010038D6H   LINE      CODE     ---       #845
      010038F2H   LINE      CODE     ---       #846
      ---         BLOCKEND  ---      ---       LVL=0

      010097B1H   BLOCK     CODE     ---       LVL=0
LX51 LINKER/LOCATER V4.64.0.0                                                         01/11/2017  18:17:27  PAGE 50


      02000003H   SYMBOL    XDATA    ---       packet_data
      02000006H   SYMBOL    XDATA    WORD      packet_lenght
      02000008H   SYMBOL    XDATA    BYTE      old_id
      010097C2H   BLOCK     CODE     NEAR LAB  LVL=1
      00000072H   SYMBOL    DATA     WORD      index
      ---         BLOCKEND  ---      ---       LVL=1
      010097B1H   LINE      CODE     ---       #852
      010097C2H   LINE      CODE     ---       #853
      010097C2H   LINE      CODE     ---       #857
      010097C7H   LINE      CODE     ---       #858
      010097CCH   LINE      CODE     ---       #861
      010097D4H   LINE      CODE     ---       #866
      010097DEH   LINE      CODE     ---       #868
      010097F2H   LINE      CODE     ---       #869
      0100980AH   LINE      CODE     ---       #870
      01009814H   LINE      CODE     ---       #872
      01009819H   LINE      CODE     ---       #874
      01009833H   LINE      CODE     ---       #876
      01009838H   LINE      CODE     ---       #877
      0100983DH   LINE      CODE     ---       #878
      ---         BLOCKEND  ---      ---       LVL=0

      0100983EH   BLOCK     CODE     ---       LVL=0
      02000214H   SYMBOL    XDATA    ---       packet_data
      02000217H   SYMBOL    XDATA    WORD      packet_lenght
      0100984FH   BLOCK     CODE     NEAR LAB  LVL=1
      0000007BH   SYMBOL    DATA     WORD      index
      ---         BLOCKEND  ---      ---       LVL=1
      0100983EH   LINE      CODE     ---       #880
      0100984FH   LINE      CODE     ---       #881
      0100984FH   LINE      CODE     ---       #885
      01009854H   LINE      CODE     ---       #886
      01009859H   LINE      CODE     ---       #889
      01009861H   LINE      CODE     ---       #892
      0100986BH   LINE      CODE     ---       #895
      0100987FH   LINE      CODE     ---       #896
      010098A1H   LINE      CODE     ---       #898
      010098A6H   LINE      CODE     ---       #900
      010098C0H   LINE      CODE     ---       #902
      010098C5H   LINE      CODE     ---       #903
      010098CAH   LINE      CODE     ---       #904
      ---         BLOCKEND  ---      ---       LVL=0

      0100AB92H   BLOCK     CODE     ---       LVL=0
      00000007H   SYMBOL    DATA     BYTE      value
      0100AB92H   BLOCK     CODE     NEAR LAB  LVL=1
      00000004H   SYMBOL    DATA     INT       packet_lenght
      02000004H   SYMBOL    XDATA    ---       packet_data
      ---         BLOCKEND  ---      ---       LVL=1
      0100AB92H   LINE      CODE     ---       #910
      0100AB92H   LINE      CODE     ---       #912
      0100AB96H   LINE      CODE     ---       #915
      0100AB9BH   LINE      CODE     ---       #916
      0100AB9DH   LINE      CODE     ---       #918
      0100ABA6H   LINE      CODE     ---       #919
      ---         BLOCKEND  ---      ---       LVL=0

      01009449H   BLOCK     CODE     ---       LVL=0
      02000003H   SYMBOL    XDATA    INT       displacement
      01009451H   BLOCK     CODE     NEAR LAB  LVL=1
      00000007H   SYMBOL    DATA     BYTE      writeStatus
      02000005H   SYMBOL    XDATA    INT       i
      02000007H   SYMBOL    XDATA    INT       pages
      02000009H   SYMBOL    XDATA    BYTE      ret_val
      ---         BLOCKEND  ---      ---       LVL=1
LX51 LINKER/LOCATER V4.64.0.0                                                         01/11/2017  18:17:27  PAGE 51


      01009449H   LINE      CODE     ---       #930
      01009451H   LINE      CODE     ---       #935
      01009457H   LINE      CODE     ---       #937
      0100945CH   LINE      CODE     ---       #938
      01009461H   LINE      CODE     ---       #941
      01009464H   LINE      CODE     ---       #943
      01009477H   LINE      CODE     ---       #945
      01009480H   LINE      CODE     ---       #947
      010094A3H   LINE      CODE     ---       #948
      010094C8H   LINE      CODE     ---       #949
      010094CBH   LINE      CODE     ---       #950
      010094D0H   LINE      CODE     ---       #951
      010094D2H   LINE      CODE     ---       #952
      010094D2H   LINE      CODE     ---       #953
      010094E2H   LINE      CODE     ---       #955
      010094F5H   LINE      CODE     ---       #957
      010094FAH   LINE      CODE     ---       #958
      ---         BLOCKEND  ---      ---       LVL=0

      0100A2DDH   BLOCK     CODE     ---       LVL=0
      0100A2DDH   BLOCK     CODE     NEAR LAB  LVL=1
      00000006H   SYMBOL    DATA     WORD      i
      ---         BLOCKEND  ---      ---       LVL=1
      0100A2DDH   LINE      CODE     ---       #969
      0100A2DDH   LINE      CODE     ---       #973
      0100A2E9H   LINE      CODE     ---       #974
      0100A30CH   LINE      CODE     ---       #977
      0100A312H   LINE      CODE     ---       #978
      0100A316H   LINE      CODE     ---       #980
      0100A329H   LINE      CODE     ---       #981
      ---         BLOCKEND  ---      ---       LVL=0

      0100A3BFH   BLOCK     CODE     ---       LVL=0
      0100A3BFH   BLOCK     CODE     NEAR LAB  LVL=1
      00000006H   SYMBOL    DATA     WORD      i
      ---         BLOCKEND  ---      ---       LVL=1
      0100A3BFH   LINE      CODE     ---       #992
      0100A3BFH   LINE      CODE     ---       #996
      0100A3CBH   LINE      CODE     ---       #997
      0100A3F5H   LINE      CODE     ---       #1000
      0100A3FBH   LINE      CODE     ---       #1001
      0100A3FFH   LINE      CODE     ---       #1003
      0100A405H   LINE      CODE     ---       #1004
      ---         BLOCKEND  ---      ---       LVL=0

      01008293H   BLOCK     CODE     ---       LVL=0
      01008293H   BLOCK     CODE     NEAR LAB  LVL=1
      00000003H   SYMBOL    DATA     BYTE      i
      ---         BLOCKEND  ---      ---       LVL=1
      01008293H   LINE      CODE     ---       #1014
      01008293H   LINE      CODE     ---       #1018
      01008299H   LINE      CODE     ---       #1019
      010082A5H   LINE      CODE     ---       #1020
      010082B0H   LINE      CODE     ---       #1021
      010082BEH   LINE      CODE     ---       #1022
      010082CAH   LINE      CODE     ---       #1023
      010082D5H   LINE      CODE     ---       #1024
      010082E0H   LINE      CODE     ---       #1026
      010082EEH   LINE      CODE     ---       #1027
      010082F9H   LINE      CODE     ---       #1028
      01008307H   LINE      CODE     ---       #1029
      01008314H   LINE      CODE     ---       #1030
      0100831FH   LINE      CODE     ---       #1031
      0100832CH   LINE      CODE     ---       #1033
      01008331H   LINE      CODE     ---       #1034
LX51 LINKER/LOCATER V4.64.0.0                                                         01/11/2017  18:17:27  PAGE 52


      01008333H   LINE      CODE     ---       #1035
      01008335H   LINE      CODE     ---       #1036
      0100833BH   LINE      CODE     ---       #1038
      01008341H   LINE      CODE     ---       #1040
      01008349H   LINE      CODE     ---       #1041
      01008362H   LINE      CODE     ---       #1042
      0100837AH   LINE      CODE     ---       #1043
      0100837DH   LINE      CODE     ---       #1045
      01008385H   LINE      CODE     ---       #1046
      01008385H   LINE      CODE     ---       #1047
      0100839DH   LINE      CODE     ---       #1048
      010083AAH   LINE      CODE     ---       #1049
      010083D0H   LINE      CODE     ---       #1050
      010083D3H   LINE      CODE     ---       #1053
      010083EBH   LINE      CODE     ---       #1055
      010083F5H   LINE      CODE     ---       #1058
      010083FBH   LINE      CODE     ---       #1061
      01008414H   LINE      CODE     ---       #1062
      ---         BLOCKEND  ---      ---       LVL=0

      01009AEEH   BLOCK     CODE     ---       LVL=0
      01009AEEH   BLOCK     CODE     NEAR LAB  LVL=1
      0000006EH   SYMBOL    DATA     BYTE      index
      02000003H   SYMBOL    XDATA    ---       packet_data
      ---         BLOCKEND  ---      ---       LVL=1
      01009AEEH   LINE      CODE     ---       #1071
      01009AEEH   LINE      CODE     ---       #1080
      01009AF4H   LINE      CODE     ---       #1082
      01009AFEH   LINE      CODE     ---       #1083
      01009B3DH   LINE      CODE     ---       #1087
      01009B4DH   LINE      CODE     ---       #1088
      01009B5AH   LINE      CODE     ---       #1090
      01009B68H   LINE      CODE     ---       #1092
      ---         BLOCKEND  ---      ---       LVL=0

      01009183H   BLOCK     CODE     ---       LVL=0
      01009183H   LINE      CODE     ---       #1095
      01009183H   LINE      CODE     ---       #1098
      0100918BH   LINE      CODE     ---       #1101
      0100919FH   LINE      CODE     ---       #1102
      0100919FH   LINE      CODE     ---       #1103
      010091B3H   LINE      CODE     ---       #1104
      010091C7H   LINE      CODE     ---       #1105
      010091C7H   LINE      CODE     ---       #1108
      01009266H   LINE      CODE     ---       #1111
      0100926BH   LINE      CODE     ---       #1114
      01009273H   LINE      CODE     ---       #1116
      01009281H   LINE      CODE     ---       #1117
      ---         BLOCKEND  ---      ---       LVL=0

      01007BCFH   BLOCK     CODE     ---       LVL=0
      01007BCFH   LINE      CODE     ---       #1119
      01007BCFH   LINE      CODE     ---       #1122
      01007BD7H   LINE      CODE     ---       #1123
      01007BEBH   LINE      CODE     ---       #1124
      01007BFFH   LINE      CODE     ---       #1126
      01007C02H   LINE      CODE     ---       #1127
      01007C02H   LINE      CODE     ---       #1128
      01007C06H   LINE      CODE     ---       #1129
      01007C1AH   LINE      CODE     ---       #1130
      01007C2EH   LINE      CODE     ---       #1132
      01007C30H   LINE      CODE     ---       #1133
      01007C30H   LINE      CODE     ---       #1135
      01007C44H   LINE      CODE     ---       #1136
      01007C64H   LINE      CODE     ---       #1138
LX51 LINKER/LOCATER V4.64.0.0                                                         01/11/2017  18:17:27  PAGE 53


      01007C78H   LINE      CODE     ---       #1139
      01007C98H   LINE      CODE     ---       #1140
      01007C98H   LINE      CODE     ---       #1141
      01007C98H   LINE      CODE     ---       #1144
      01007CB0H   LINE      CODE     ---       #1146
      01007CB0H   LINE      CODE     ---       #1148
      01007CD2H   LINE      CODE     ---       #1149
      01007CE6H   LINE      CODE     ---       #1150
      01007D08H   LINE      CODE     ---       #1151
      01007D1CH   LINE      CODE     ---       #1153
      01007D3EH   LINE      CODE     ---       #1154
      01007D52H   LINE      CODE     ---       #1155
      01007D74H   LINE      CODE     ---       #1156
      01007D88H   LINE      CODE     ---       #1157
      01007D88H   LINE      CODE     ---       #1158
      01007D96H   LINE      CODE     ---       #1159
      ---         BLOCKEND  ---      ---       LVL=0

      01008415H   BLOCK     CODE     ---       LVL=0
      01008415H   BLOCK     CODE     NEAR LAB  LVL=1
      0000006EH   SYMBOL    DATA     LONG      pos
      00000072H   SYMBOL    DATA     LONG      stiff
      ---         BLOCKEND  ---      ---       LVL=1
      01008415H   LINE      CODE     ---       #1161
      01008415H   LINE      CODE     ---       #1167
      01008429H   LINE      CODE     ---       #1168
      0100843BH   LINE      CODE     ---       #1171
      01008454H   LINE      CODE     ---       #1174
      01008489H   LINE      CODE     ---       #1175
      010084B3H   LINE      CODE     ---       #1177
      010084E4H   LINE      CODE     ---       #1178
      0100850BH   LINE      CODE     ---       #1183
      0100854AH   LINE      CODE     ---       #1186
      01008567H   LINE      CODE     ---       #1187
      01008585H   LINE      CODE     ---       #1189
      01008593H   LINE      CODE     ---       #1191
      ---         BLOCKEND  ---      ---       LVL=0

      0100A094H   BLOCK     CODE     ---       LVL=0
      0100A094H   BLOCK     CODE     NEAR LAB  LVL=1
      02000003H   SYMBOL    XDATA    ---       packet_data
      ---         BLOCKEND  ---      ---       LVL=1
      0100A094H   LINE      CODE     ---       #1193
      0100A094H   LINE      CODE     ---       #1201
      0100A09AH   LINE      CODE     ---       #1203
      0100A0ADH   LINE      CODE     ---       #1204
      0100A0C0H   LINE      CODE     ---       #1208
      0100A0D0H   LINE      CODE     ---       #1210
      0100A0DDH   LINE      CODE     ---       #1212
      0100A0EBH   LINE      CODE     ---       #1214
      ---         BLOCKEND  ---      ---       LVL=0

      0100970BH   BLOCK     CODE     ---       LVL=0
      0100970BH   BLOCK     CODE     NEAR LAB  LVL=1
      0000006EH   SYMBOL    DATA     BYTE      index
      02000003H   SYMBOL    XDATA    ---       packet_data
      ---         BLOCKEND  ---      ---       LVL=1
      0100970BH   LINE      CODE     ---       #1216
      0100970BH   LINE      CODE     ---       #1225
      01009711H   LINE      CODE     ---       #1228
      01009724H   LINE      CODE     ---       #1229
      01009737H   LINE      CODE     ---       #1232
      01009741H   LINE      CODE     ---       #1233
      01009785H   LINE      CODE     ---       #1237
      01009795H   LINE      CODE     ---       #1238
LX51 LINKER/LOCATER V4.64.0.0                                                         01/11/2017  18:17:27  PAGE 54


      010097A2H   LINE      CODE     ---       #1240
      010097B0H   LINE      CODE     ---       #1242
      ---         BLOCKEND  ---      ---       LVL=0

      01009F75H   BLOCK     CODE     ---       LVL=0
      01009F75H   BLOCK     CODE     NEAR LAB  LVL=1
      0000006EH   SYMBOL    DATA     BYTE      index
      02000003H   SYMBOL    XDATA    ---       packet_data
      ---         BLOCKEND  ---      ---       LVL=1
      01009F75H   LINE      CODE     ---       #1244
      01009F75H   LINE      CODE     ---       #1254
      01009F7BH   LINE      CODE     ---       #1256
      01009F85H   LINE      CODE     ---       #1257
      01009FADH   LINE      CODE     ---       #1261
      01009FBDH   LINE      CODE     ---       #1262
      01009FCAH   LINE      CODE     ---       #1264
      01009FD8H   LINE      CODE     ---       #1266
      ---         BLOCKEND  ---      ---       LVL=0

      0100A5BEH   BLOCK     CODE     ---       LVL=0
      0100A5BEH   BLOCK     CODE     NEAR LAB  LVL=1
      02000003H   SYMBOL    XDATA    ---       packet_data
      ---         BLOCKEND  ---      ---       LVL=1
      0100A5BEH   LINE      CODE     ---       #1268
      0100A5BEH   LINE      CODE     ---       #1273
      0100A5C4H   LINE      CODE     ---       #1276
      0100A5CCH   LINE      CODE     ---       #1279
      0100A5DCH   LINE      CODE     ---       #1282
      0100A5E9H   LINE      CODE     ---       #1284
      0100A5F7H   LINE      CODE     ---       #1286
      ---         BLOCKEND  ---      ---       LVL=0

      0100A44AH   BLOCK     CODE     ---       LVL=0
      0100A44AH   LINE      CODE     ---       #1288
      0100A44AH   LINE      CODE     ---       #1290
      0100A453H   LINE      CODE     ---       #1292
      0100A458H   LINE      CODE     ---       #1293
      0100A45DH   LINE      CODE     ---       #1294
      0100A45EH   LINE      CODE     ---       #1295
      0100A45EH   LINE      CODE     ---       #1297
      0100A467H   LINE      CODE     ---       #1298
      0100A46AH   LINE      CODE     ---       #1303
      0100A482H   LINE      CODE     ---       #1304
      0100A485H   LINE      CODE     ---       #1305
      0100A48AH   LINE      CODE     ---       #1306
      0100A48AH   LINE      CODE     ---       #1307
      ---         BLOCKEND  ---      ---       LVL=0

      01009E2FH   BLOCK     CODE     ---       LVL=0
      01009E2FH   BLOCK     CODE     NEAR LAB  LVL=1
      02000003H   SYMBOL    XDATA    ---       packet_data
      ---         BLOCKEND  ---      ---       LVL=1
      01009E2FH   LINE      CODE     ---       #1309
      01009E2FH   LINE      CODE     ---       #1317
      01009E35H   LINE      CODE     ---       #1319
      01009E54H   LINE      CODE     ---       #1320
      01009E73H   LINE      CODE     ---       #1324
      01009E83H   LINE      CODE     ---       #1326
      01009E90H   LINE      CODE     ---       #1328
      01009E9EH   LINE      CODE     ---       #1330
      ---         BLOCKEND  ---      ---       LVL=0

      0100A963H   BLOCK     CODE     ---       LVL=0
      0100A963H   BLOCK     CODE     NEAR LAB  LVL=1
      02000003H   SYMBOL    XDATA    ---       packet_data
LX51 LINKER/LOCATER V4.64.0.0                                                         01/11/2017  18:17:27  PAGE 55


      ---         BLOCKEND  ---      ---       LVL=1
      0100A963H   LINE      CODE     ---       #1332
      0100A963H   LINE      CODE     ---       #1337
      0100A968H   LINE      CODE     ---       #1340
      0100A96AH   LINE      CODE     ---       #1343
      0100A976H   LINE      CODE     ---       #1345
      0100A984H   LINE      CODE     ---       #1346
      ---         BLOCKEND  ---      ---       LVL=0

      0100A9EAH   BLOCK     CODE     ---       LVL=0
      0100A9EAH   LINE      CODE     ---       #1348
      0100A9EAH   LINE      CODE     ---       #1351
      0100A9F2H   LINE      CODE     ---       #1353
      0100A9F6H   LINE      CODE     ---       #1354
      0100A9F6H   LINE      CODE     ---       #1355
      0100A9FFH   LINE      CODE     ---       #1356
      0100AA00H   LINE      CODE     ---       #1357
      0100AA00H   LINE      CODE     ---       #1358
      0100AA09H   LINE      CODE     ---       #1359
      0100AA09H   LINE      CODE     ---       #1360
      ---         BLOCKEND  ---      ---       LVL=0

      01008713H   BLOCK     CODE     ---       LVL=0
      01008713H   BLOCK     CODE     NEAR LAB  LVL=1
      02000003H   SYMBOL    XDATA    ---       packet_data
      ---         BLOCKEND  ---      ---       LVL=1
      01008713H   LINE      CODE     ---       #1362
      01008713H   LINE      CODE     ---       #1368
      01008719H   LINE      CODE     ---       #1370
      01008728H   LINE      CODE     ---       #1371
      01008737H   LINE      CODE     ---       #1372
      01008746H   LINE      CODE     ---       #1373
      01008755H   LINE      CODE     ---       #1374
      01008764H   LINE      CODE     ---       #1375
      01008773H   LINE      CODE     ---       #1376
      01008782H   LINE      CODE     ---       #1377
      01008791H   LINE      CODE     ---       #1378
      010087A0H   LINE      CODE     ---       #1379
      010087AFH   LINE      CODE     ---       #1380
      010087BEH   LINE      CODE     ---       #1381
      010087CDH   LINE      CODE     ---       #1382
      010087DCH   LINE      CODE     ---       #1383
      010087EBH   LINE      CODE     ---       #1384
      010087FAH   LINE      CODE     ---       #1385
      01008809H   LINE      CODE     ---       #1386
      01008818H   LINE      CODE     ---       #1387
      01008827H   LINE      CODE     ---       #1388
      01008836H   LINE      CODE     ---       #1389
      01008845H   LINE      CODE     ---       #1391
      01008855H   LINE      CODE     ---       #1393
      01008862H   LINE      CODE     ---       #1395
      01008870H   LINE      CODE     ---       #1397
      ---         BLOCKEND  ---      ---       LVL=0

      0100738EH   BLOCK     CODE     ---       LVL=0
      0100738EH   BLOCK     CODE     NEAR LAB  LVL=1
      0000006EH   SYMBOL    DATA     BYTE      packet_lenght
      0000006FH   SYMBOL    DATA     ---       packet_data
      00000071H   SYMBOL    DATA     BYTE      old_id
      ---         BLOCKEND  ---      ---       LVL=1
      0100738EH   LINE      CODE     ---       #1398
      0100738EH   LINE      CODE     ---       #1400
      01007391H   LINE      CODE     ---       #1405
      0100739AH   LINE      CODE     ---       #1407
      010073BBH   LINE      CODE     ---       #1409
LX51 LINKER/LOCATER V4.64.0.0                                                         01/11/2017  18:17:27  PAGE 56


      010073E7H   LINE      CODE     ---       #1411
      01007413H   LINE      CODE     ---       #1412
      01007413H   LINE      CODE     ---       #1414
      01007434H   LINE      CODE     ---       #1416
      01007460H   LINE      CODE     ---       #1418
      0100748CH   LINE      CODE     ---       #1419
      0100748CH   LINE      CODE     ---       #1421
      010074AEH   LINE      CODE     ---       #1422
      01007505H   LINE      CODE     ---       #1424
      01007527H   LINE      CODE     ---       #1425
      0100757EH   LINE      CODE     ---       #1428
      01007587H   LINE      CODE     ---       #1429
      010075BBH   LINE      CODE     ---       #1430
      010075F1H   LINE      CODE     ---       #1432
      01007627H   LINE      CODE     ---       #1433
      0100765DH   LINE      CODE     ---       #1434
      0100765DH   LINE      CODE     ---       #1435
      0100765DH   LINE      CODE     ---       #1438
      0100766AH   LINE      CODE     ---       #1439
      0100766CH   LINE      CODE     ---       #1440
      01007675H   LINE      CODE     ---       #1441
      01007678H   LINE      CODE     ---       #1442
      0100767BH   LINE      CODE     ---       #1443
      0100768FH   LINE      CODE     ---       #1444
      01007691H   LINE      CODE     ---       #1445
      01007691H   LINE      CODE     ---       #1446
      01007694H   LINE      CODE     ---       #1447
      01007696H   LINE      CODE     ---       #1448
      010076A9H   LINE      CODE     ---       #1449
      010076A9H   LINE      CODE     ---       #1450
      010076ABH   LINE      CODE     ---       #1451
      010076ABH   LINE      CODE     ---       #1452
      010076B4H   LINE      CODE     ---       #1453
      010076BBH   LINE      CODE     ---       #1455
      010076C0H   LINE      CODE     ---       #1456
      010076C0H   LINE      CODE     ---       #1458
      010076CEH   LINE      CODE     ---       #1460
      ---         BLOCKEND  ---      ---       LVL=0

      ---         MODULE    ---      ---       GLOBALS
      02000BECH   PUBLIC    XDATA    BYTE      dev_pwm_limit
      00000021H.5 PUBLIC    BIT      BIT       tension_valid
      02000BC4H   PUBLIC    XDATA    ---       g_count
      00000021H.4 PUBLIC    BIT      BIT       interrupt_flag
      02000B7AH   PUBLIC    XDATA    ---       g_meas
      02000B78H   PUBLIC    XDATA    ---       pwm_sign
      02000B72H   PUBLIC    XDATA    ---       ADC_buf
      02000B6EH   PUBLIC    XDATA    DWORD     timer_value0
      00000021H.3 PUBLIC    BIT      BIT       watchdog_flag
      00000021H.2 PUBLIC    BIT      BIT       reset_last_value_flag
      02000B55H   PUBLIC    XDATA    ---       g_refNew
      02000AD0H   PUBLIC    XDATA    ---       g_rx
      02000AB7H   PUBLIC    XDATA    ---       g_refOld
      02000AB3H   PUBLIC    XDATA    LONG      dev_tension
      02000AAFH   PUBLIC    XDATA    DWORD     timer_value
      02000A65H   PUBLIC    XDATA    ---       g_measOld
      02000A64H   PUBLIC    XDATA    BYTE      calibration_flag
      020009DAH   PUBLIC    XDATA    ---       g_mem
      020009C1H   PUBLIC    XDATA    ---       g_ref
      02000937H   PUBLIC    XDATA    ---       c_mem
      000000CAH   SFRSYM    DATA     BYTE      SFRPRT5SEL
      000000DAH   SFRSYM    DATA     BYTE      SFRPRT6SEL
      000000D0H.6 SFRSYM    DATA     BIT       AC
      000000A8H.7 SFRSYM    DATA     BIT       EA
      000000A8H   SFRSYM    DATA     BYTE      IE
LX51 LINKER/LOCATER V4.64.0.0                                                         01/11/2017  18:17:27  PAGE 57


      00000085H   SFRSYM    DATA     BYTE      DPH1
      00000084H   SFRSYM    DATA     BYTE      DPL1
      000000D0H.7 SFRSYM    DATA     BIT       CY
      000000A0H   SFRSYM    DATA     BYTE      P2AX
      00000095H   SFRSYM    DATA     BYTE      DPX1
      00000081H   SFRSYM    DATA     BYTE      SP
      000000D0H.2 SFRSYM    DATA     BIT       OV
      00000080H   SFRSYM    DATA     BYTE      SFRPRT0DR
      00000090H   SFRSYM    DATA     BYTE      SFRPRT1DR
      000000F2H   SFRSYM    DATA     BYTE      SFRPRT12SEL
      00000098H   SFRSYM    DATA     BYTE      SFRPRT2DR
      000000B0H   SFRSYM    DATA     BYTE      SFRPRT3DR
      000000C0H   SFRSYM    DATA     BYTE      SFRPRT4DR
      000000FAH   SFRSYM    DATA     BYTE      SFRPRT15SEL
      000000C8H   SFRSYM    DATA     BYTE      SFRPRT5DR
      000000D8H   SFRSYM    DATA     BYTE      SFRPRT6DR
      00000089H   SFRSYM    DATA     BYTE      SFRPRT0PS
      00000091H   SFRSYM    DATA     BYTE      SFRPRT1PS
      00000099H   SFRSYM    DATA     BYTE      SFRPRT2PS
      000000B1H   SFRSYM    DATA     BYTE      SFRPRT3PS
      000000C1H   SFRSYM    DATA     BYTE      SFRPRT4PS
      000000C9H   SFRSYM    DATA     BYTE      SFRPRT5PS
      000000D9H   SFRSYM    DATA     BYTE      SFRPRT6PS
      000000EAH   SFRSYM    DATA     BYTE      MXAX
      000000F0H   SFRSYM    DATA     BYTE      B
      000000E0H   SFRSYM    DATA     BYTE      ACC
      000000D0H   SFRSYM    DATA     BIT       P
      000000D0H.3 SFRSYM    DATA     BIT       RS0
      000000D0H.4 SFRSYM    DATA     BIT       RS1
      00000083H   SFRSYM    DATA     BYTE      DPH
      000000E8H   SFRSYM    DATA     BYTE      SFRPRT12DR
      00000082H   SFRSYM    DATA     BYTE      DPL
      000000F8H   SFRSYM    DATA     BYTE      SFRPRT15DR
      00000086H   SFRSYM    DATA     BYTE      DPS
      000000E9H   SFRSYM    DATA     BYTE      SFRPRT12PS
      00000093H   SFRSYM    DATA     BYTE      DPX
      000000F9H   SFRSYM    DATA     BYTE      SFRPRT15PS
      000000D0H.5 SFRSYM    DATA     BIT       F0
      000000D0H.1 SFRSYM    DATA     BIT       F1
      0000008AH   SFRSYM    DATA     BYTE      SFRPRT0SEL
      000000D0H   SFRSYM    DATA     BYTE      PSW
      000000A2H   SFRSYM    DATA     BYTE      SFRPRT1SEL
      0000009AH   SFRSYM    DATA     BYTE      SFRPRT2SEL
      000000B2H   SFRSYM    DATA     BYTE      SFRPRT3SEL
      000000C2H   SFRSYM    DATA     BYTE      SFRPRT4SEL

      ---         MODULE    ---      ---       INTERRUPTIONS
      0100AF96H   PUBLIC    CODE     ---       pwm_limit_search
      010079F0H   PUBLIC    CODE     ---       calibration
      010076CFH   PUBLIC    CODE     ---       _encoder_reading
      01008D28H   PUBLIC    CODE     ---       analog_read_end
      010049E3H   PUBLIC    CODE     ---       _motor_control
      01008F62H   PUBLIC    CODE     ---       function_scheduler
      01008C01H   PUBLIC    CODE     ---       interrupt_manager
      0100B08BH   PUBLIC    CODE     ---       ISR_RS485_RX_ExInterrupt
      0100B088H   PUBLIC    CODE     ---       ISR_WATCHDOG_Handler
      000000CAH   SFRSYM    DATA     BYTE      SFRPRT5SEL
      000000DAH   SFRSYM    DATA     BYTE      SFRPRT6SEL
      000000D0H.6 SFRSYM    DATA     BIT       AC
      000000A8H.7 SFRSYM    DATA     BIT       EA
      000000A8H   SFRSYM    DATA     BYTE      IE
      00000085H   SFRSYM    DATA     BYTE      DPH1
      00000084H   SFRSYM    DATA     BYTE      DPL1
      000000D0H.7 SFRSYM    DATA     BIT       CY
      000000A0H   SFRSYM    DATA     BYTE      P2AX
LX51 LINKER/LOCATER V4.64.0.0                                                         01/11/2017  18:17:27  PAGE 58


      00000095H   SFRSYM    DATA     BYTE      DPX1
      00000081H   SFRSYM    DATA     BYTE      SP
      000000D0H.2 SFRSYM    DATA     BIT       OV
      00000080H   SFRSYM    DATA     BYTE      SFRPRT0DR
      00000090H   SFRSYM    DATA     BYTE      SFRPRT1DR
      000000F2H   SFRSYM    DATA     BYTE      SFRPRT12SEL
      00000098H   SFRSYM    DATA     BYTE      SFRPRT2DR
      000000B0H   SFRSYM    DATA     BYTE      SFRPRT3DR
      000000C0H   SFRSYM    DATA     BYTE      SFRPRT4DR
      000000FAH   SFRSYM    DATA     BYTE      SFRPRT15SEL
      000000C8H   SFRSYM    DATA     BYTE      SFRPRT5DR
      000000D8H   SFRSYM    DATA     BYTE      SFRPRT6DR
      00000089H   SFRSYM    DATA     BYTE      SFRPRT0PS
      00000091H   SFRSYM    DATA     BYTE      SFRPRT1PS
      00000099H   SFRSYM    DATA     BYTE      SFRPRT2PS
      000000B1H   SFRSYM    DATA     BYTE      SFRPRT3PS
      000000C1H   SFRSYM    DATA     BYTE      SFRPRT4PS
      000000C9H   SFRSYM    DATA     BYTE      SFRPRT5PS
      000000D9H   SFRSYM    DATA     BYTE      SFRPRT6PS
      000000EAH   SFRSYM    DATA     BYTE      MXAX
      000000F0H   SFRSYM    DATA     BYTE      B
      000000E0H   SFRSYM    DATA     BYTE      ACC
      000000D0H   SFRSYM    DATA     BIT       P
      000000D0H.3 SFRSYM    DATA     BIT       RS0
      000000D0H.4 SFRSYM    DATA     BIT       RS1
      00000083H   SFRSYM    DATA     BYTE      DPH
      000000E8H   SFRSYM    DATA     BYTE      SFRPRT12DR
      00000082H   SFRSYM    DATA     BYTE      DPL
      000000F8H   SFRSYM    DATA     BYTE      SFRPRT15DR
      00000086H   SFRSYM    DATA     BYTE      DPS
      000000E9H   SFRSYM    DATA     BYTE      SFRPRT12PS
      00000093H   SFRSYM    DATA     BYTE      DPX
      000000F9H   SFRSYM    DATA     BYTE      SFRPRT15PS
      000000D0H.5 SFRSYM    DATA     BIT       F0
      000000D0H.1 SFRSYM    DATA     BIT       F1
      0000008AH   SFRSYM    DATA     BYTE      SFRPRT0SEL
      000000D0H   SFRSYM    DATA     BYTE      PSW
      000000A2H   SFRSYM    DATA     BYTE      SFRPRT1SEL
      0000009AH   SFRSYM    DATA     BYTE      SFRPRT2SEL
      000000B2H   SFRSYM    DATA     BYTE      SFRPRT3SEL
      000000C2H   SFRSYM    DATA     BYTE      SFRPRT4SEL

      0100B088H   BLOCK     CODE     ---       LVL=0
      0100B088H   LINE      CODE     ---       #27
      0100B088H   LINE      CODE     ---       #31
      0100B08AH   LINE      CODE     ---       #33
      ---         BLOCKEND  ---      ---       LVL=0

      0100B08BH   BLOCK     CODE     ---       LVL=0
      0100B08BH   LINE      CODE     ---       #39
      0100B08BH   LINE      CODE     ---       #43
      0100B08DH   LINE      CODE     ---       #45
      ---         BLOCKEND  ---      ---       LVL=0

      01008C01H   BLOCK     CODE     ---       LVL=0
      01008C01H   BLOCK     CODE     NEAR LAB  LVL=1
      00000008H   SYMBOL    DATA     BYTE      state
      00000009H   SYMBOL    DATA     BYTE      data_packet_index
      0000000AH   SYMBOL    DATA     BYTE      data_packet_length
      02000BEDH   SYMBOL    XDATA    ---       data_packet_buffer
      0000000BH   SYMBOL    DATA     ---       rx_queue
      0000006CH   SYMBOL    DATA     BYTE      rx_data
      00000020H.0 SYMBOL    BIT      BIT       rx_data_type
      0000006DH   SYMBOL    DATA     BYTE      package_count
      ---         BLOCKEND  ---      ---       LVL=1
LX51 LINKER/LOCATER V4.64.0.0                                                         01/11/2017  18:17:27  PAGE 59


      01008C01H   LINE      CODE     ---       #62
      01008C01H   LINE      CODE     ---       #77
      01008C04H   LINE      CODE     ---       #83
      01008C17H   LINE      CODE     ---       #87
      01008C1CH   LINE      CODE     ---       #89
      01008C34H   LINE      CODE     ---       #91
      01008C34H   LINE      CODE     ---       #93
      01008C37H   LINE      CODE     ---       #94
      01008C3AH   LINE      CODE     ---       #95
      01008C3DH   LINE      CODE     ---       #98
      01008C47H   LINE      CODE     ---       #99
      01008C4AH   LINE      CODE     ---       #100
      01008C4CH   LINE      CODE     ---       #101
      01008C4EH   LINE      CODE     ---       #102
      01008C51H   LINE      CODE     ---       #103
      01008C53H   LINE      CODE     ---       #104
      01008C63H   LINE      CODE     ---       #107
      01008C68H   LINE      CODE     ---       #108
      01008C6AH   LINE      CODE     ---       #111
      01008C6AH   LINE      CODE     ---       #114
      01008C76H   LINE      CODE     ---       #115
      01008C7AH   LINE      CODE     ---       #117
      01008C7CH   LINE      CODE     ---       #119
      01008C7FH   LINE      CODE     ---       #120
      01008C82H   LINE      CODE     ---       #121
      01008C84H   LINE      CODE     ---       #124
      01008C84H   LINE      CODE     ---       #127
      01008C87H   LINE      CODE     ---       #129
      01008C8EH   LINE      CODE     ---       #130
      01008C91H   LINE      CODE     ---       #131
      01008C93H   LINE      CODE     ---       #132
      01008C9DH   LINE      CODE     ---       #133
      01008CA0H   LINE      CODE     ---       #134
      01008CA2H   LINE      CODE     ---       #135
      01008CA5H   LINE      CODE     ---       #136
      01008CA8H   LINE      CODE     ---       #138
      01008CABH   LINE      CODE     ---       #139
      01008CB1H   LINE      CODE     ---       #141
      01008CB4H   LINE      CODE     ---       #142
      01008CB4H   LINE      CODE     ---       #143
      01008CB7H   LINE      CODE     ---       #146
      01008CB7H   LINE      CODE     ---       #148
      01008CC5H   LINE      CODE     ---       #149
      01008CC7H   LINE      CODE     ---       #152
      01008CD1H   LINE      CODE     ---       #154
      01008CD4H   LINE      CODE     ---       #156
      01008CE7H   LINE      CODE     ---       #157
      01008CF0H   LINE      CODE     ---       #158
      01008CF6H   LINE      CODE     ---       #159
      01008CF9H   LINE      CODE     ---       #160
      01008CF9H   LINE      CODE     ---       #162
      01008CFCH   LINE      CODE     ---       #163
      01008CFEH   LINE      CODE     ---       #164
      01008D00H   LINE      CODE     ---       #165
      01008D02H   LINE      CODE     ---       #167
      01008D02H   LINE      CODE     ---       #168
      01008D05H   LINE      CODE     ---       #171
      01008D05H   LINE      CODE     ---       #172
      01008D0EH   LINE      CODE     ---       #173
      01008D10H   LINE      CODE     ---       #174
      01008D12H   LINE      CODE     ---       #175
      01008D17H   LINE      CODE     ---       #176
      01008D1CH   LINE      CODE     ---       #177
      01008D1FH   LINE      CODE     ---       #178
      01008D21H   LINE      CODE     ---       #179
LX51 LINKER/LOCATER V4.64.0.0                                                         01/11/2017  18:17:27  PAGE 60


      01008D21H   LINE      CODE     ---       #180
      01008D24H   LINE      CODE     ---       #181
      01008D24H   LINE      CODE     ---       #182
      01008D27H   LINE      CODE     ---       #183
      ---         BLOCKEND  ---      ---       LVL=0

      01008F62H   BLOCK     CODE     ---       LVL=0
      01008F62H   BLOCK     CODE     NEAR LAB  LVL=1
      02000C6DH   SYMBOL    XDATA    WORD      counter_calibration
      ---         BLOCKEND  ---      ---       LVL=1
      01008F62H   LINE      CODE     ---       #192
      01008F62H   LINE      CODE     ---       #196
      01008F6EH   LINE      CODE     ---       #200
      01008F73H   LINE      CODE     ---       #204
      01008F76H   LINE      CODE     ---       #205
      01008F78H   LINE      CODE     ---       #206
      01008F7BH   LINE      CODE     ---       #207
      01008F7BH   LINE      CODE     ---       #211
      01008F80H   LINE      CODE     ---       #215
      01008F83H   LINE      CODE     ---       #216
      01008F85H   LINE      CODE     ---       #217
      01008F88H   LINE      CODE     ---       #218
      01008F88H   LINE      CODE     ---       #220
      01008F8DH   LINE      CODE     ---       #224
      01008F90H   LINE      CODE     ---       #225
      01008F92H   LINE      CODE     ---       #226
      01008F95H   LINE      CODE     ---       #227
      01008F95H   LINE      CODE     ---       #229
      01008F9AH   LINE      CODE     ---       #233
      01008F9DH   LINE      CODE     ---       #234
      01008F9FH   LINE      CODE     ---       #235
      01008FA2H   LINE      CODE     ---       #236
      01008FA2H   LINE      CODE     ---       #238
      01008FA7H   LINE      CODE     ---       #242
      01008FAAH   LINE      CODE     ---       #243
      01008FACH   LINE      CODE     ---       #244
      01008FAFH   LINE      CODE     ---       #245
      01008FAFH   LINE      CODE     ---       #247
      01008FB4H   LINE      CODE     ---       #251
      01008FB7H   LINE      CODE     ---       #252
      01008FB9H   LINE      CODE     ---       #253
      01008FBCH   LINE      CODE     ---       #254
      01008FBCH   LINE      CODE     ---       #256
      01008FC1H   LINE      CODE     ---       #260
      01008FC4H   LINE      CODE     ---       #261
      01008FC6H   LINE      CODE     ---       #262
      01008FC9H   LINE      CODE     ---       #263
      01008FC9H   LINE      CODE     ---       #267
      01008FCEH   LINE      CODE     ---       #271
      01008FD1H   LINE      CODE     ---       #272
      01008FD3H   LINE      CODE     ---       #273
      01008FD6H   LINE      CODE     ---       #274
      01008FD6H   LINE      CODE     ---       #276
      01008FDBH   LINE      CODE     ---       #280
      01008FDEH   LINE      CODE     ---       #281
      01008FE0H   LINE      CODE     ---       #282
      01008FE3H   LINE      CODE     ---       #283
      01008FE3H   LINE      CODE     ---       #287
      01008FE6H   LINE      CODE     ---       #292
      01008FF2H   LINE      CODE     ---       #293
      01008FFEH   LINE      CODE     ---       #294
      01009001H   LINE      CODE     ---       #295
      01009008H   LINE      CODE     ---       #296
      01009008H   LINE      CODE     ---       #297
      01009016H   LINE      CODE     ---       #298
LX51 LINKER/LOCATER V4.64.0.0                                                         01/11/2017  18:17:27  PAGE 61


      01009016H   LINE      CODE     ---       #301
      01009019H   LINE      CODE     ---       #302
      0100901BH   LINE      CODE     ---       #303
      0100901EH   LINE      CODE     ---       #304
      0100901EH   LINE      CODE     ---       #309
      01009031H   LINE      CODE     ---       #310
      01009044H   LINE      CODE     ---       #313
      01009057H   LINE      CODE     ---       #315
      0100905AH   LINE      CODE     ---       #316
      0100905CH   LINE      CODE     ---       #317
      0100905FH   LINE      CODE     ---       #318
      0100905FH   LINE      CODE     ---       #320
      0100906BH   LINE      CODE     ---       #321
      01009072H   LINE      CODE     ---       #322
      ---         BLOCKEND  ---      ---       LVL=0

      010049E3H   BLOCK     CODE     ---       LVL=0
      00000007H   SYMBOL    DATA     BYTE      idx
      010049E3H   BLOCK     CODE     NEAR LAB  LVL=1
      00000023H   SYMBOL    DATA     BYTE      index
      00000024H   SYMBOL    DATA     LONG      curr_ref
      00000028H   SYMBOL    DATA     LONG      pwm_input
      0000002CH   SYMBOL    DATA     LONG      pos_error
      00000030H   SYMBOL    DATA     LONG      curr_error
      00000034H   SYMBOL    DATA     ---       defl_input
      0000003CH   SYMBOL    DATA     LONG      k_p
      00000040H   SYMBOL    DATA     LONG      k_i
      00000044H   SYMBOL    DATA     LONG      k_d
      00000048H   SYMBOL    DATA     LONG      k_p_c
      0000004CH   SYMBOL    DATA     LONG      k_i_c
      00000050H   SYMBOL    DATA     LONG      k_d_c
      00000054H   SYMBOL    DATA     LONG      k_p_dl
      00000058H   SYMBOL    DATA     LONG      k_i_dl
      0000005CH   SYMBOL    DATA     LONG      k_d_dl
      00000060H   SYMBOL    DATA     LONG      k_p_c_dl
      00000064H   SYMBOL    DATA     LONG      k_i_c_dl
      00000068H   SYMBOL    DATA     LONG      k_d_c_dl
      00000021H.6 SYMBOL    BIT      BIT       dirM0
      00000021H.7 SYMBOL    BIT      BIT       dirM1
      02000C6FH   SYMBOL    XDATA    ---       pos_error_sum
      02000C77H   SYMBOL    XDATA    ---       curr_error_sum
      02000C7FH   SYMBOL    XDATA    ---       prev_curr_err
      ---         BLOCKEND  ---      ---       LVL=1
      010049E3H   LINE      CODE     ---       #329
      010049E3H   LINE      CODE     ---       #331
      010049E5H   LINE      CODE     ---       #335
      010049EEH   LINE      CODE     ---       #341
      01004A03H   LINE      CODE     ---       #342
      01004A16H   LINE      CODE     ---       #343
      01004A29H   LINE      CODE     ---       #345
      01004A3CH   LINE      CODE     ---       #346
      01004A4FH   LINE      CODE     ---       #347
      01004A62H   LINE      CODE     ---       #349
      01004A75H   LINE      CODE     ---       #350
      01004A88H   LINE      CODE     ---       #351
      01004A9BH   LINE      CODE     ---       #353
      01004AAEH   LINE      CODE     ---       #354
      01004AC1H   LINE      CODE     ---       #355
      01004AD4H   LINE      CODE     ---       #364
      01004ADEH   LINE      CODE     ---       #367
      01004AE9H   LINE      CODE     ---       #369
      01004B09H   LINE      CODE     ---       #372
      01004B12H   LINE      CODE     ---       #373
      01004B4CH   LINE      CODE     ---       #374
      01004B78H   LINE      CODE     ---       #375
LX51 LINKER/LOCATER V4.64.0.0                                                         01/11/2017  18:17:27  PAGE 62


      01004BB2H   LINE      CODE     ---       #376
      01004BDEH   LINE      CODE     ---       #377
      01004BDEH   LINE      CODE     ---       #378
      01004BDEH   LINE      CODE     ---       #380
      01004C05H   LINE      CODE     ---       #381
      01004C05H   LINE      CODE     ---       #382
      01004C05H   LINE      CODE     ---       #384
      01004C0DH   LINE      CODE     ---       #388
      01004C51H   LINE      CODE     ---       #389
      01004C8CH   LINE      CODE     ---       #390
      01004C8EH   LINE      CODE     ---       #393
      01004CD1H   LINE      CODE     ---       #396
      01004D04H   LINE      CODE     ---       #398
      01004D07H   LINE      CODE     ---       #399
      01004D09H   LINE      CODE     ---       #400
      01004D0CH   LINE      CODE     ---       #401
      01004D0CH   LINE      CODE     ---       #404
      01004D34H   LINE      CODE     ---       #405
      01004D50H   LINE      CODE     ---       #406
      01004D50H   LINE      CODE     ---       #407
      01004D78H   LINE      CODE     ---       #408
      01004D92H   LINE      CODE     ---       #409
      01004D92H   LINE      CODE     ---       #411
      01004D95H   LINE      CODE     ---       #412
      01004D97H   LINE      CODE     ---       #413
      01004D9AH   LINE      CODE     ---       #414
      01004D9AH   LINE      CODE     ---       #416
      01004DA3H   LINE      CODE     ---       #418
      01004DB5H   LINE      CODE     ---       #420
      01004DD8H   LINE      CODE     ---       #421
      01004DFFH   LINE      CODE     ---       #423
      01004E1FH   LINE      CODE     ---       #424
      01004E1FH   LINE      CODE     ---       #426
      01004E22H   LINE      CODE     ---       #427
      01004E24H   LINE      CODE     ---       #428
      01004E27H   LINE      CODE     ---       #429
      01004E27H   LINE      CODE     ---       #432
      01004E3AH   LINE      CODE     ---       #433
      01004E7DH   LINE      CODE     ---       #436
      01004E90H   LINE      CODE     ---       #437
      01004EF3H   LINE      CODE     ---       #440
      01004EF6H   LINE      CODE     ---       #441
      01004EF8H   LINE      CODE     ---       #442
      01004EFBH   LINE      CODE     ---       #443
      01004EFBH   LINE      CODE     ---       #445
      01004EFFH   LINE      CODE     ---       #446
      01004F11H   LINE      CODE     ---       #447
      01004F16H   LINE      CODE     ---       #450
      01004F18H   LINE      CODE     ---       #452
      01004F1BH   LINE      CODE     ---       #453
      01004F2EH   LINE      CODE     ---       #454
      01004F33H   LINE      CODE     ---       #457
      01004F35H   LINE      CODE     ---       #459
      01004F35H   LINE      CODE     ---       #461
      01004F38H   LINE      CODE     ---       #463
      01004F38H   LINE      CODE     ---       #464
      01004F38H   LINE      CODE     ---       #466
      01004F43H   LINE      CODE     ---       #470
      01004F87H   LINE      CODE     ---       #471
      01004FC2H   LINE      CODE     ---       #472
      01004FC4H   LINE      CODE     ---       #474
      01005007H   LINE      CODE     ---       #476
      0100500AH   LINE      CODE     ---       #477
      0100500CH   LINE      CODE     ---       #478
      0100500FH   LINE      CODE     ---       #479
LX51 LINKER/LOCATER V4.64.0.0                                                         01/11/2017  18:17:27  PAGE 63


      0100500FH   LINE      CODE     ---       #481
      01005042H   LINE      CODE     ---       #483
      0100506AH   LINE      CODE     ---       #484
      01005086H   LINE      CODE     ---       #485
      01005086H   LINE      CODE     ---       #486
      010050AEH   LINE      CODE     ---       #487
      010050C8H   LINE      CODE     ---       #488
      010050C8H   LINE      CODE     ---       #492
      010050D1H   LINE      CODE     ---       #495
      010050E6H   LINE      CODE     ---       #496
      01005109H   LINE      CODE     ---       #497
      0100513CH   LINE      CODE     ---       #499
      01005168H   LINE      CODE     ---       #500
      01005168H   LINE      CODE     ---       #503
      0100517BH   LINE      CODE     ---       #504
      010051B3H   LINE      CODE     ---       #507
      010051C6H   LINE      CODE     ---       #508
      01005229H   LINE      CODE     ---       #510
      0100522CH   LINE      CODE     ---       #511
      0100522EH   LINE      CODE     ---       #512
      01005231H   LINE      CODE     ---       #513
      01005231H   LINE      CODE     ---       #516
      0100524DH   LINE      CODE     ---       #517
      01005263H   LINE      CODE     ---       #518
      01005263H   LINE      CODE     ---       #519
      01005285H   LINE      CODE     ---       #520
      0100529FH   LINE      CODE     ---       #521
      0100529FH   LINE      CODE     ---       #524
      010052CEH   LINE      CODE     ---       #525
      01005301H   LINE      CODE     ---       #527
      01005329H   LINE      CODE     ---       #528
      01005345H   LINE      CODE     ---       #529
      01005345H   LINE      CODE     ---       #530
      0100536DH   LINE      CODE     ---       #531
      01005387H   LINE      CODE     ---       #532
      01005387H   LINE      CODE     ---       #534
      0100538AH   LINE      CODE     ---       #535
      0100538CH   LINE      CODE     ---       #536
      0100538FH   LINE      CODE     ---       #537
      0100538FH   LINE      CODE     ---       #541
      01005398H   LINE      CODE     ---       #544
      010053AAH   LINE      CODE     ---       #545
      010053D0H   LINE      CODE     ---       #548
      010053E3H   LINE      CODE     ---       #549
      0100541BH   LINE      CODE     ---       #552
      0100542EH   LINE      CODE     ---       #553
      01005491H   LINE      CODE     ---       #555
      01005494H   LINE      CODE     ---       #556
      01005496H   LINE      CODE     ---       #557
      01005499H   LINE      CODE     ---       #558
      01005499H   LINE      CODE     ---       #561
      0100549DH   LINE      CODE     ---       #562
      010054AFH   LINE      CODE     ---       #563
      010054B3H   LINE      CODE     ---       #566
      010054B5H   LINE      CODE     ---       #568
      010054B7H   LINE      CODE     ---       #569
      010054B7H   LINE      CODE     ---       #570
      010054CAH   LINE      CODE     ---       #571
      010054CEH   LINE      CODE     ---       #574
      010054D0H   LINE      CODE     ---       #576
      010054D0H   LINE      CODE     ---       #578
      010054D3H   LINE      CODE     ---       #579
      010054D5H   LINE      CODE     ---       #580
      010054D8H   LINE      CODE     ---       #581
      010054D8H   LINE      CODE     ---       #584
LX51 LINKER/LOCATER V4.64.0.0                                                         01/11/2017  18:17:27  PAGE 64


      010054EDH   LINE      CODE     ---       #585
      010054FBH   LINE      CODE     ---       #586
      010054FBH   LINE      CODE     ---       #587
      01005512H   LINE      CODE     ---       #588
      0100551CH   LINE      CODE     ---       #589
      0100551CH   LINE      CODE     ---       #591
      0100551FH   LINE      CODE     ---       #593
      0100551FH   LINE      CODE     ---       #595
      0100552EH   LINE      CODE     ---       #598
      0100554FH   LINE      CODE     ---       #601
      0100556BH   LINE      CODE     ---       #602
      0100557FH   LINE      CODE     ---       #603
      01005581H   LINE      CODE     ---       #604
      01005581H   LINE      CODE     ---       #605
      010055A3H   LINE      CODE     ---       #606
      010055BDH   LINE      CODE     ---       #607
      010055BDH   LINE      CODE     ---       #609
      010055C0H   LINE      CODE     ---       #610
      010055C2H   LINE      CODE     ---       #611
      010055C5H   LINE      CODE     ---       #612
      010055C5H   LINE      CODE     ---       #615
      010055F4H   LINE      CODE     ---       #618
      01005627H   LINE      CODE     ---       #621
      0100564FH   LINE      CODE     ---       #622
      01005669H   LINE      CODE     ---       #623
      0100566BH   LINE      CODE     ---       #624
      0100566BH   LINE      CODE     ---       #625
      01005693H   LINE      CODE     ---       #626
      010056ADH   LINE      CODE     ---       #627
      010056ADH   LINE      CODE     ---       #629
      010056B0H   LINE      CODE     ---       #630
      010056B2H   LINE      CODE     ---       #631
      010056B5H   LINE      CODE     ---       #632
      010056B5H   LINE      CODE     ---       #635
      010056BEH   LINE      CODE     ---       #638
      010056D0H   LINE      CODE     ---       #639
      010056F6H   LINE      CODE     ---       #642
      01005709H   LINE      CODE     ---       #643
      01005746H   LINE      CODE     ---       #646
      01005759H   LINE      CODE     ---       #647
      010057A8H   LINE      CODE     ---       #649
      010057ABH   LINE      CODE     ---       #650
      010057ADH   LINE      CODE     ---       #651
      010057B0H   LINE      CODE     ---       #652
      010057B0H   LINE      CODE     ---       #655
      010057CAH   LINE      CODE     ---       #657
      010057CEH   LINE      CODE     ---       #658
      010057E0H   LINE      CODE     ---       #659
      010057E4H   LINE      CODE     ---       #662
      010057E6H   LINE      CODE     ---       #664
      010057E8H   LINE      CODE     ---       #665
      010057E8H   LINE      CODE     ---       #666
      010057FBH   LINE      CODE     ---       #667
      010057FFH   LINE      CODE     ---       #670
      01005801H   LINE      CODE     ---       #672
      01005801H   LINE      CODE     ---       #674
      01005804H   LINE      CODE     ---       #675
      01005806H   LINE      CODE     ---       #676
      01005809H   LINE      CODE     ---       #677
      01005809H   LINE      CODE     ---       #678
      01005809H   LINE      CODE     ---       #680
      0100580BH   LINE      CODE     ---       #682
      0100580BH   LINE      CODE     ---       #684
      0100582CH   LINE      CODE     ---       #687
      01005830H   LINE      CODE     ---       #688
LX51 LINKER/LOCATER V4.64.0.0                                                         01/11/2017  18:17:27  PAGE 65


      01005842H   LINE      CODE     ---       #689
      01005846H   LINE      CODE     ---       #692
      01005848H   LINE      CODE     ---       #694
      0100584AH   LINE      CODE     ---       #695
      0100584AH   LINE      CODE     ---       #696
      0100585DH   LINE      CODE     ---       #697
      01005861H   LINE      CODE     ---       #700
      01005863H   LINE      CODE     ---       #702
      01005863H   LINE      CODE     ---       #704
      01005863H   LINE      CODE     ---       #705
      01005863H   LINE      CODE     ---       #706
      01005863H   LINE      CODE     ---       #707
      01005863H   LINE      CODE     ---       #709
      01005866H   LINE      CODE     ---       #710
      01005868H   LINE      CODE     ---       #711
      0100586BH   LINE      CODE     ---       #712
      0100586BH   LINE      CODE     ---       #715
      0100587FH   LINE      CODE     ---       #716
      01005889H   LINE      CODE     ---       #717
      0100589EH   LINE      CODE     ---       #718
      010058A9H   LINE      CODE     ---       #720
      010058ACH   LINE      CODE     ---       #721
      010058AEH   LINE      CODE     ---       #722
      010058B1H   LINE      CODE     ---       #723
      010058B1H   LINE      CODE     ---       #726
      010058B9H   LINE      CODE     ---       #727
      010058F0H   LINE      CODE     ---       #731
      010058F3H   LINE      CODE     ---       #732
      010058F6H   LINE      CODE     ---       #733
      010058FDH   LINE      CODE     ---       #735
      01005902H   LINE      CODE     ---       #736
      01005904H   LINE      CODE     ---       #737
      01005904H   LINE      CODE     ---       #738
      01005907H   LINE      CODE     ---       #739
      0100590EH   LINE      CODE     ---       #741
      01005913H   LINE      CODE     ---       #742
      01005913H   LINE      CODE     ---       #744
      01005916H   LINE      CODE     ---       #745
      01005918H   LINE      CODE     ---       #746
      0100591BH   LINE      CODE     ---       #747
      0100591BH   LINE      CODE     ---       #749
      0100591FH   LINE      CODE     ---       #750
      0100593CH   LINE      CODE     ---       #751
      01005946H   LINE      CODE     ---       #752
      01005948H   LINE      CODE     ---       #753
      01005948H   LINE      CODE     ---       #754
      01005966H   LINE      CODE     ---       #755
      01005970H   LINE      CODE     ---       #756
      01005970H   LINE      CODE     ---       #758
      01005973H   LINE      CODE     ---       #759
      01005975H   LINE      CODE     ---       #760
      01005978H   LINE      CODE     ---       #761
      01005978H   LINE      CODE     ---       #762
      ---         BLOCKEND  ---      ---       LVL=0

      01008D28H   BLOCK     CODE     ---       LVL=0
      01008D28H   LINE      CODE     ---       #768
      01008D28H   LINE      CODE     ---       #789
      01008D2EH   LINE      CODE     ---       #790
      01008D31H   LINE      CODE     ---       #791
      01008D33H   LINE      CODE     ---       #792
      01008D36H   LINE      CODE     ---       #793
      01008D36H   LINE      CODE     ---       #794
      01008D38H   LINE      CODE     ---       #797
      01008D60H   LINE      CODE     ---       #799
LX51 LINKER/LOCATER V4.64.0.0                                                         01/11/2017  18:17:27  PAGE 66


      01008D63H   LINE      CODE     ---       #800
      01008D65H   LINE      CODE     ---       #801
      01008D68H   LINE      CODE     ---       #802
      01008D68H   LINE      CODE     ---       #806
      01008D84H   LINE      CODE     ---       #808
      01008D89H   LINE      CODE     ---       #811
      01008D8CH   LINE      CODE     ---       #815
      01008D8FH   LINE      CODE     ---       #816
      01008D91H   LINE      CODE     ---       #817
      01008D94H   LINE      CODE     ---       #818
      01008D94H   LINE      CODE     ---       #821
      01008DD5H   LINE      CODE     ---       #825
      01008DD8H   LINE      CODE     ---       #826
      01008DDAH   LINE      CODE     ---       #827
      01008DDDH   LINE      CODE     ---       #828
      01008DDDH   LINE      CODE     ---       #829
      01008E1EH   LINE      CODE     ---       #833
      01008E21H   LINE      CODE     ---       #834
      01008E23H   LINE      CODE     ---       #835
      01008E26H   LINE      CODE     ---       #836
      01008E26H   LINE      CODE     ---       #837
      01008E28H   LINE      CODE     ---       #838
      01008E29H   LINE      CODE     ---       #839
      01008E29H   LINE      CODE     ---       #841
      01008E2EH   LINE      CODE     ---       #843
      01008E39H   LINE      CODE     ---       #844
      01008E44H   LINE      CODE     ---       #845
      01008E44H   LINE      CODE     ---       #846
      ---         BLOCKEND  ---      ---       LVL=0

      010076CFH   BLOCK     CODE     ---       LVL=0
      00000007H   SYMBOL    DATA     BYTE      idx
      010076CFH   BLOCK     CODE     NEAR LAB  LVL=1
      00000023H   SYMBOL    DATA     BYTE      index
      00000003H   SYMBOL    DATA     BYTE      jj
      02000002H   SYMBOL    XDATA    DWORD     data_encoder
      02000006H   SYMBOL    XDATA    LONG      value_encoder
      0200000AH   SYMBOL    XDATA    LONG      aux
      02000C87H   SYMBOL    XDATA    ---       last_value_encoder
      02000C9FH   SYMBOL    XDATA    ---       error
      00000022H.0 SYMBOL    BIT      BIT       only_first_time
      ---         BLOCKEND  ---      ---       LVL=1
      010076CFH   LINE      CODE     ---       #853
      010076CFH   LINE      CODE     ---       #854
      010076CFH   LINE      CODE     ---       #855
      010076D1H   LINE      CODE     ---       #873
      010076DBH   LINE      CODE     ---       #876
      010076DEH   LINE      CODE     ---       #877
      010076E6H   LINE      CODE     ---       #878
      010076FEH   LINE      CODE     ---       #879
      01007700H   LINE      CODE     ---       #880
      01007700H   LINE      CODE     ---       #886
      01007718H   LINE      CODE     ---       #887
      01007718H   LINE      CODE     ---       #888
      0100772EH   LINE      CODE     ---       #889
      01007730H   LINE      CODE     ---       #890
      01007730H   LINE      CODE     ---       #891
      01007746H   LINE      CODE     ---       #892
      01007748H   LINE      CODE     ---       #893
      01007748H   LINE      CODE     ---       #894
      0100775EH   LINE      CODE     ---       #895
      01007760H   LINE      CODE     ---       #896
      01007760H   LINE      CODE     ---       #897
      01007776H   LINE      CODE     ---       #898
      01007778H   LINE      CODE     ---       #899
LX51 LINKER/LOCATER V4.64.0.0                                                         01/11/2017  18:17:27  PAGE 67


      01007778H   LINE      CODE     ---       #900
      0100778EH   LINE      CODE     ---       #901
      01007790H   LINE      CODE     ---       #902
      01007790H   LINE      CODE     ---       #903
      010077A6H   LINE      CODE     ---       #904
      010077A6H   LINE      CODE     ---       #905
      010077A6H   LINE      CODE     ---       #908
      010077B4H   LINE      CODE     ---       #910
      010077E0H   LINE      CODE     ---       #913
      01007815H   LINE      CODE     ---       #916
      01007818H   LINE      CODE     ---       #917
      01007838H   LINE      CODE     ---       #919
      0100783DH   LINE      CODE     ---       #920
      0100783FH   LINE      CODE     ---       #921
      0100783FH   LINE      CODE     ---       #924
      01007876H   LINE      CODE     ---       #944
      01007890H   LINE      CODE     ---       #945
      010078A0H   LINE      CODE     ---       #946
      010078A0H   LINE      CODE     ---       #947
      010078BCH   LINE      CODE     ---       #948
      010078CCH   LINE      CODE     ---       #949
      010078CCH   LINE      CODE     ---       #950
      010078E6H   LINE      CODE     ---       #951
      010078F4H   LINE      CODE     ---       #952
      01007908H   LINE      CODE     ---       #955
      01007908H   LINE      CODE     ---       #956
      01007908H   LINE      CODE     ---       #957
      01007908H   LINE      CODE     ---       #959
      01007915H   LINE      CODE     ---       #961
      01007935H   LINE      CODE     ---       #963
      01007971H   LINE      CODE     ---       #965
      01007997H   LINE      CODE     ---       #966
      010079CFH   LINE      CODE     ---       #968
      010079EFH   LINE      CODE     ---       #969
      010079EFH   LINE      CODE     ---       #990
      ---         BLOCKEND  ---      ---       LVL=0

      010079F0H   BLOCK     CODE     ---       LVL=0
      010079F0H   BLOCK     CODE     NEAR LAB  LVL=1
      02000CA5H   SYMBOL    XDATA    LONG      old_k_p
      02000CA9H   SYMBOL    XDATA    LONG      old_k_i
      02000CADH   SYMBOL    XDATA    LONG      old_k_d
      02000CB1H   SYMBOL    XDATA    BYTE      pause_counter
      ---         BLOCKEND  ---      ---       LVL=1
      010079F0H   LINE      CODE     ---       #997
      010079F0H   LINE      CODE     ---       #998
      010079F0H   LINE      CODE     ---       #1005
      01007A11H   LINE      CODE     ---       #1006
      01007A11H   LINE      CODE     ---       #1007
      01007A14H   LINE      CODE     ---       #1010
      01007A28H   LINE      CODE     ---       #1011
      01007A3CH   LINE      CODE     ---       #1012
      01007A50H   LINE      CODE     ---       #1015
      01007A5BH   LINE      CODE     ---       #1016
      01007A66H   LINE      CODE     ---       #1019
      01007A6EH   LINE      CODE     ---       #1020
      01007A73H   LINE      CODE     ---       #1021
      01007A73H   LINE      CODE     ---       #1024
      01007A79H   LINE      CODE     ---       #1025
      01007A7AH   LINE      CODE     ---       #1027
      01007A7AH   LINE      CODE     ---       #1028
      01007A80H   LINE      CODE     ---       #1030
      01007A88H   LINE      CODE     ---       #1031
      01007A89H   LINE      CODE     ---       #1034
      01007A95H   LINE      CODE     ---       #1035
LX51 LINKER/LOCATER V4.64.0.0                                                         01/11/2017  18:17:27  PAGE 68


      01007AA0H   LINE      CODE     ---       #1036
      01007AADH   LINE      CODE     ---       #1038
      01007AB3H   LINE      CODE     ---       #1039
      01007AB3H   LINE      CODE     ---       #1040
      01007AB4H   LINE      CODE     ---       #1042
      01007AB4H   LINE      CODE     ---       #1044
      01007AD3H   LINE      CODE     ---       #1045
      01007AF6H   LINE      CODE     ---       #1048
      01007B2EH   LINE      CODE     ---       #1050
      01007B41H   LINE      CODE     ---       #1053
      01007B55H   LINE      CODE     ---       #1054
      01007B69H   LINE      CODE     ---       #1055
      01007B7DH   LINE      CODE     ---       #1058
      01007B88H   LINE      CODE     ---       #1059
      01007B93H   LINE      CODE     ---       #1062
      01007B99H   LINE      CODE     ---       #1063
      01007B99H   LINE      CODE     ---       #1064
      01007B9AH   LINE      CODE     ---       #1066
      01007B9AH   LINE      CODE     ---       #1067
      01007BA0H   LINE      CODE     ---       #1069
      01007BA5H   LINE      CODE     ---       #1070
      01007BA6H   LINE      CODE     ---       #1072
      01007BACH   LINE      CODE     ---       #1073
      01007BACH   LINE      CODE     ---       #1074
      01007BADH   LINE      CODE     ---       #1076
      01007BADH   LINE      CODE     ---       #1078
      01007BB5H   LINE      CODE     ---       #1079
      01007BB9H   LINE      CODE     ---       #1080
      01007BB9H   LINE      CODE     ---       #1083
      01007BC0H   LINE      CODE     ---       #1084
      01007BC6H   LINE      CODE     ---       #1086
      01007BCBH   LINE      CODE     ---       #1088
      01007BCEH   LINE      CODE     ---       #1089
      01007BCEH   LINE      CODE     ---       #1091
      01007BCEH   LINE      CODE     ---       #1092
      01007BCEH   LINE      CODE     ---       #1093
      01007BCEH   LINE      CODE     ---       #1094
      01007BCEH   LINE      CODE     ---       #1095
      ---         BLOCKEND  ---      ---       LVL=0

      0100AF96H   BLOCK     CODE     ---       LVL=0
      0100AF96H   LINE      CODE     ---       #1103
      0100AF96H   LINE      CODE     ---       #1104
      0100AF9CH   LINE      CODE     ---       #1105
      ---         BLOCKEND  ---      ---       LVL=0

      ---         MODULE    ---      ---       MAIN
      01007D97H   PUBLIC    CODE     ---       main
      000000CAH   SFRSYM    DATA     BYTE      SFRPRT5SEL
      000000DAH   SFRSYM    DATA     BYTE      SFRPRT6SEL
      000000D0H.6 SFRSYM    DATA     BIT       AC
      000000A8H.7 SFRSYM    DATA     BIT       EA
      000000A8H   SFRSYM    DATA     BYTE      IE
      00000085H   SFRSYM    DATA     BYTE      DPH1
      00000084H   SFRSYM    DATA     BYTE      DPL1
      000000D0H.7 SFRSYM    DATA     BIT       CY
      000000A0H   SFRSYM    DATA     BYTE      P2AX
      00000095H   SFRSYM    DATA     BYTE      DPX1
      00000081H   SFRSYM    DATA     BYTE      SP
      000000D0H.2 SFRSYM    DATA     BIT       OV
      00000080H   SFRSYM    DATA     BYTE      SFRPRT0DR
      00000090H   SFRSYM    DATA     BYTE      SFRPRT1DR
      000000F2H   SFRSYM    DATA     BYTE      SFRPRT12SEL
      00000098H   SFRSYM    DATA     BYTE      SFRPRT2DR
      000000B0H   SFRSYM    DATA     BYTE      SFRPRT3DR
LX51 LINKER/LOCATER V4.64.0.0                                                         01/11/2017  18:17:27  PAGE 69


      000000C0H   SFRSYM    DATA     BYTE      SFRPRT4DR
      000000FAH   SFRSYM    DATA     BYTE      SFRPRT15SEL
      000000C8H   SFRSYM    DATA     BYTE      SFRPRT5DR
      000000D8H   SFRSYM    DATA     BYTE      SFRPRT6DR
      00000089H   SFRSYM    DATA     BYTE      SFRPRT0PS
      00000091H   SFRSYM    DATA     BYTE      SFRPRT1PS
      00000099H   SFRSYM    DATA     BYTE      SFRPRT2PS
      000000B1H   SFRSYM    DATA     BYTE      SFRPRT3PS
      000000C1H   SFRSYM    DATA     BYTE      SFRPRT4PS
      000000C9H   SFRSYM    DATA     BYTE      SFRPRT5PS
      000000D9H   SFRSYM    DATA     BYTE      SFRPRT6PS
      000000EAH   SFRSYM    DATA     BYTE      MXAX
      000000F0H   SFRSYM    DATA     BYTE      B
      000000E0H   SFRSYM    DATA     BYTE      ACC
      000000D0H   SFRSYM    DATA     BIT       P
      000000D0H.3 SFRSYM    DATA     BIT       RS0
      000000D0H.4 SFRSYM    DATA     BIT       RS1
      00000083H   SFRSYM    DATA     BYTE      DPH
      000000E8H   SFRSYM    DATA     BYTE      SFRPRT12DR
      00000082H   SFRSYM    DATA     BYTE      DPL
      000000F8H   SFRSYM    DATA     BYTE      SFRPRT15DR
      00000086H   SFRSYM    DATA     BYTE      DPS
      000000E9H   SFRSYM    DATA     BYTE      SFRPRT12PS
      00000093H   SFRSYM    DATA     BYTE      DPX
      000000F9H   SFRSYM    DATA     BYTE      SFRPRT15PS
      000000D0H.5 SFRSYM    DATA     BIT       F0
      000000D0H.1 SFRSYM    DATA     BIT       F1
      0000008AH   SFRSYM    DATA     BYTE      SFRPRT0SEL
      000000D0H   SFRSYM    DATA     BYTE      PSW
      000000A2H   SFRSYM    DATA     BYTE      SFRPRT1SEL
      0000009AH   SFRSYM    DATA     BYTE      SFRPRT2SEL
      000000B2H   SFRSYM    DATA     BYTE      SFRPRT3SEL
      000000C2H   SFRSYM    DATA     BYTE      SFRPRT4SEL

      01007D97H   BLOCK     CODE     ---       LVL=0
      01007D97H   BLOCK     CODE     NEAR LAB  LVL=1
      00000003H   SYMBOL    DATA     BYTE      i
      02000000H   SYMBOL    XDATA    BYTE      DMA_Chan
      02000001H   SYMBOL    XDATA    ---       DMA_TD
      ---         BLOCKEND  ---      ---       LVL=1
      01007D97H   LINE      CODE     ---       #48
      01007D97H   LINE      CODE     ---       #62
      01007D9AH   LINE      CODE     ---       #63
      01007D9DH   LINE      CODE     ---       #67
      01007DA6H   LINE      CODE     ---       #68
      01007DABH   LINE      CODE     ---       #72
      01007DAEH   LINE      CODE     ---       #73
      01007DB1H   LINE      CODE     ---       #74
      01007DB4H   LINE      CODE     ---       #76
      01007DB7H   LINE      CODE     ---       #77
      01007DBAH   LINE      CODE     ---       #79
      01007DC1H   LINE      CODE     ---       #83
      01007DC4H   LINE      CODE     ---       #85
      01007DCBH   LINE      CODE     ---       #89
      01007DCEH   LINE      CODE     ---       #90
      01007DD3H   LINE      CODE     ---       #91
      01007DD8H   LINE      CODE     ---       #92
      01007DDDH   LINE      CODE     ---       #93
      01007DE2H   LINE      CODE     ---       #98
      01007DE5H   LINE      CODE     ---       #99
      01007DE8H   LINE      CODE     ---       #100
      01007DEBH   LINE      CODE     ---       #101
      01007DEEH   LINE      CODE     ---       #102
      01007DF1H   LINE      CODE     ---       #103
      01007DF4H   LINE      CODE     ---       #104
LX51 LINKER/LOCATER V4.64.0.0                                                         01/11/2017  18:17:27  PAGE 70


      01007DF7H   LINE      CODE     ---       #113
      01007DFAH   LINE      CODE     ---       #114
      01007DFFH   LINE      CODE     ---       #117
      01007E14H   LINE      CODE     ---       #118
      01007E1CH   LINE      CODE     ---       #119
      01007E2CH   LINE      CODE     ---       #120
      01007E43H   LINE      CODE     ---       #121
      01007E4EH   LINE      CODE     ---       #123
      01007E58H   LINE      CODE     ---       #125
      01007E5DH   LINE      CODE     ---       #129
      01007E60H   LINE      CODE     ---       #130
      01007E63H   LINE      CODE     ---       #132
      01007E6BH   LINE      CODE     ---       #136
      01007E74H   LINE      CODE     ---       #139
      01007E7CH   LINE      CODE     ---       #140
      01007E94H   LINE      CODE     ---       #143
      01007E9CH   LINE      CODE     ---       #144
      01007EB2H   LINE      CODE     ---       #145
      01007EBEH   LINE      CODE     ---       #146
      01007EC0H   LINE      CODE     ---       #148
      01007ED3H   LINE      CODE     ---       #150
      01007EDBH   LINE      CODE     ---       #152
      01007EDEH   LINE      CODE     ---       #154
      01007EE3H   LINE      CODE     ---       #157
      01007EEAH   LINE      CODE     ---       #158
      01007EEEH   LINE      CODE     ---       #161
      01007EF6H   LINE      CODE     ---       #164
      01007EFBH   LINE      CODE     ---       #165
      01007EFDH   LINE      CODE     ---       #167
      01007F01H   LINE      CODE     ---       #168
      01007F03H   LINE      CODE     ---       #172
      01007F09H   LINE      CODE     ---       #173
      01007F10H   LINE      CODE     ---       #175
      01007F15H   LINE      CODE     ---       #179
      01007F15H   LINE      CODE     ---       #180
      01007F15H   LINE      CODE     ---       #182
      01007F1AH   LINE      CODE     ---       #185
      01007F1DH   LINE      CODE     ---       #188
      01007F23H   LINE      CODE     ---       #190
      01007F26H   LINE      CODE     ---       #192
      01007F2BH   LINE      CODE     ---       #194
      01007F2DH   LINE      CODE     ---       #195
      01007F2FH   LINE      CODE     ---       #197
      01007F32H   LINE      CODE     ---       #198
      01007F34H   LINE      CODE     ---       #200
      01007F34H   LINE      CODE     ---       #201
      01007F37H   LINE      CODE     ---       #203
      01007F3CH   LINE      CODE     ---       #205
      01007F41H   LINE      CODE     ---       #206
      01007F41H   LINE      CODE     ---       #207
      01007F41H   LINE      CODE     ---       #208
      01007F43H   LINE      CODE     ---       #211
      01007F48H   LINE      CODE     ---       #214
      01007F50H   LINE      CODE     ---       #216
      01007F57H   LINE      CODE     ---       #217
      01007F5AH   LINE      CODE     ---       #218
      01007F5CH   LINE      CODE     ---       #219
      01007F5CH   LINE      CODE     ---       #220
      ---         BLOCKEND  ---      ---       LVL=0

      ---         MODULE    ---      ---       UTILS
      0100A142H   PUBLIC    CODE     ---       reset_counters
      0100A779H   PUBLIC    CODE     ---       _LCRChecksum
      01009E9FH   PUBLIC    CODE     ---       _check_enc_data
      01009D47H   PUBLIC    CODE     ---       _filter_i2
LX51 LINKER/LOCATER V4.64.0.0                                                         01/11/2017  18:17:27  PAGE 71


      01009CD2H   PUBLIC    CODE     ---       _filter_i1
      000000CAH   SFRSYM    DATA     BYTE      SFRPRT5SEL
      000000DAH   SFRSYM    DATA     BYTE      SFRPRT6SEL
      000000D0H.6 SFRSYM    DATA     BIT       AC
      000000A8H.7 SFRSYM    DATA     BIT       EA
      000000A8H   SFRSYM    DATA     BYTE      IE
      00000085H   SFRSYM    DATA     BYTE      DPH1
      00000084H   SFRSYM    DATA     BYTE      DPL1
      000000D0H.7 SFRSYM    DATA     BIT       CY
      000000A0H   SFRSYM    DATA     BYTE      P2AX
      00000095H   SFRSYM    DATA     BYTE      DPX1
      00000081H   SFRSYM    DATA     BYTE      SP
      000000D0H.2 SFRSYM    DATA     BIT       OV
      00000080H   SFRSYM    DATA     BYTE      SFRPRT0DR
      00000090H   SFRSYM    DATA     BYTE      SFRPRT1DR
      000000F2H   SFRSYM    DATA     BYTE      SFRPRT12SEL
      00000098H   SFRSYM    DATA     BYTE      SFRPRT2DR
      000000B0H   SFRSYM    DATA     BYTE      SFRPRT3DR
      000000C0H   SFRSYM    DATA     BYTE      SFRPRT4DR
      000000FAH   SFRSYM    DATA     BYTE      SFRPRT15SEL
      000000C8H   SFRSYM    DATA     BYTE      SFRPRT5DR
      000000D8H   SFRSYM    DATA     BYTE      SFRPRT6DR
      00000089H   SFRSYM    DATA     BYTE      SFRPRT0PS
      00000091H   SFRSYM    DATA     BYTE      SFRPRT1PS
      00000099H   SFRSYM    DATA     BYTE      SFRPRT2PS
      000000B1H   SFRSYM    DATA     BYTE      SFRPRT3PS
      000000C1H   SFRSYM    DATA     BYTE      SFRPRT4PS
      000000C9H   SFRSYM    DATA     BYTE      SFRPRT5PS
      000000D9H   SFRSYM    DATA     BYTE      SFRPRT6PS
      000000EAH   SFRSYM    DATA     BYTE      MXAX
      000000F0H   SFRSYM    DATA     BYTE      B
      000000E0H   SFRSYM    DATA     BYTE      ACC
      000000D0H   SFRSYM    DATA     BIT       P
      000000D0H.3 SFRSYM    DATA     BIT       RS0
      000000D0H.4 SFRSYM    DATA     BIT       RS1
      00000083H   SFRSYM    DATA     BYTE      DPH
      000000E8H   SFRSYM    DATA     BYTE      SFRPRT12DR
      00000082H   SFRSYM    DATA     BYTE      DPL
      000000F8H   SFRSYM    DATA     BYTE      SFRPRT15DR
      00000086H   SFRSYM    DATA     BYTE      DPS
      000000E9H   SFRSYM    DATA     BYTE      SFRPRT12PS
      00000093H   SFRSYM    DATA     BYTE      DPX
      000000F9H   SFRSYM    DATA     BYTE      SFRPRT15PS
      000000D0H.5 SFRSYM    DATA     BIT       F0
      000000D0H.1 SFRSYM    DATA     BIT       F1
      0000008AH   SFRSYM    DATA     BYTE      SFRPRT0SEL
      000000D0H   SFRSYM    DATA     BYTE      PSW
      000000A2H   SFRSYM    DATA     BYTE      SFRPRT1SEL
      0000009AH   SFRSYM    DATA     BYTE      SFRPRT2SEL
      000000B2H   SFRSYM    DATA     BYTE      SFRPRT3SEL
      000000C2H   SFRSYM    DATA     BYTE      SFRPRT4SEL

      01009CD2H   BLOCK     CODE     ---       LVL=0
      00000004H   SYMBOL    DATA     LONG      new_value
      01009CD2H   BLOCK     CODE     NEAR LAB  LVL=1
      02000CF5H   SYMBOL    XDATA    LONG      old_value
      02000CF9H   SYMBOL    XDATA    LONG      aux
      ---         BLOCKEND  ---      ---       LVL=1
      01009CD2H   LINE      CODE     ---       #22
      01009CD2H   LINE      CODE     ---       #26
      01009D1FH   LINE      CODE     ---       #28
      01009D33H   LINE      CODE     ---       #30
      01009D46H   LINE      CODE     ---       #31
      ---         BLOCKEND  ---      ---       LVL=0

LX51 LINKER/LOCATER V4.64.0.0                                                         01/11/2017  18:17:27  PAGE 72


      01009D47H   BLOCK     CODE     ---       LVL=0
      00000004H   SYMBOL    DATA     LONG      new_value
      01009D47H   BLOCK     CODE     NEAR LAB  LVL=1
      02000CFDH   SYMBOL    XDATA    LONG      old_value
      02000D01H   SYMBOL    XDATA    LONG      aux
      ---         BLOCKEND  ---      ---       LVL=1
      01009D47H   LINE      CODE     ---       #33
      01009D47H   LINE      CODE     ---       #37
      01009D94H   LINE      CODE     ---       #39
      01009DA8H   LINE      CODE     ---       #41
      01009DBBH   LINE      CODE     ---       #42
      ---         BLOCKEND  ---      ---       LVL=0
      00000004H   SYMBOL    DATA     LONG      new_value
      02000D05H   SYMBOL    XDATA    LONG      old_value
      02000D09H   SYMBOL    XDATA    LONG      aux
      00000004H   SYMBOL    DATA     LONG      new_value
      02000D0DH   SYMBOL    XDATA    LONG      old_value
      02000D11H   SYMBOL    XDATA    LONG      aux
      00000004H   SYMBOL    DATA     LONG      new_value
      02000D15H   SYMBOL    XDATA    LONG      old_value
      02000D19H   SYMBOL    XDATA    LONG      aux

      01009E9FH   BLOCK     CODE     ---       LVL=0
      00000001H   SYMBOL    DATA     ---       value
      01009E9FH   BLOCK     CODE     NEAR LAB  LVL=1
      00000010H   SYMBOL    IDATA    ---       p
      00000024H   SYMBOL    DATA     BYTE      a
      ---         BLOCKEND  ---      ---       LVL=1
      01009E9FH   LINE      CODE     ---       #88
      01009E9FH   LINE      CODE     ---       #90
      01009EA9H   LINE      CODE     ---       #91
      01009EAEH   LINE      CODE     ---       #93
      01009EC2H   LINE      CODE     ---       #94
      01009ED6H   LINE      CODE     ---       #95
      01009EEAH   LINE      CODE     ---       #96
      01009EF7H   LINE      CODE     ---       #98
      01009F09H   LINE      CODE     ---       #100
      ---         BLOCKEND  ---      ---       LVL=0

      0100A779H   BLOCK     CODE     ---       LVL=0
      02000214H   SYMBOL    XDATA    ---       data_array
      00000005H   SYMBOL    DATA     BYTE      data_length
      0100A784H   BLOCK     CODE     NEAR LAB  LVL=1
      0000007BH   SYMBOL    DATA     BYTE      i
      0000007CH   SYMBOL    DATA     BYTE      checksum
      ---         BLOCKEND  ---      ---       LVL=1
      0100A779H   LINE      CODE     ---       #109
      0100A784H   LINE      CODE     ---       #112
      0100A787H   LINE      CODE     ---       #114
      0100A78FH   LINE      CODE     ---       #115
      0100A7A8H   LINE      CODE     ---       #117
      0100A7AAH   LINE      CODE     ---       #118
      ---         BLOCKEND  ---      ---       LVL=0

      0100A142H   BLOCK     CODE     ---       LVL=0
      0100A142H   LINE      CODE     ---       #123
      0100A142H   LINE      CODE     ---       #124
      0100A142H   LINE      CODE     ---       #125
      0100A149H   LINE      CODE     ---       #126
      0100A14DH   LINE      CODE     ---       #127
      0100A151H   LINE      CODE     ---       #128
      0100A155H   LINE      CODE     ---       #129
      0100A159H   LINE      CODE     ---       #130
      0100A15DH   LINE      CODE     ---       #131
      0100A161H   LINE      CODE     ---       #132
LX51 LINKER/LOCATER V4.64.0.0                                                         01/11/2017  18:17:27  PAGE 73


      0100A165H   LINE      CODE     ---       #133
      0100A169H   LINE      CODE     ---       #134
      0100A16DH   LINE      CODE     ---       #135
      0100A171H   LINE      CODE     ---       #136
      0100A175H   LINE      CODE     ---       #137
      0100A179H   LINE      CODE     ---       #138
      0100A17DH   LINE      CODE     ---       #139
      0100A181H   LINE      CODE     ---       #140
      0100A185H   LINE      CODE     ---       #141
      0100A189H   LINE      CODE     ---       #142
      0100A18DH   LINE      CODE     ---       #143
      0100A191H   LINE      CODE     ---       #144
      0100A195H   LINE      CODE     ---       #145
      ---         BLOCKEND  ---      ---       LVL=0
      02000D1DH   SYMBOL    XDATA    CHAR      prev_sign
      02000D1EH   SYMBOL    XDATA    CHAR      prev_sign

      ---         MODULE    ---      ---       ISR_RS485_RX
      0100AFA4H   PUBLIC    CODE     ---       ISR_RS485_RX_Disable
      0100AF9DH   PUBLIC    CODE     ---       ISR_RS485_RX_Enable
      0100AEF6H   PUBLIC    CODE     ---       _ISR_RS485_RX_SetPriority
      0100AD9AH   PUBLIC    CODE     ---       _ISR_RS485_RX_SetVector
      0100A89AH   PUBLIC    CODE     ---       ISR_RS485_RX_Interrupt
      0100AA0AH   PUBLIC    CODE     ---       _ISR_RS485_RX_StartEx
      000000CAH   SFRSYM    DATA     BYTE      SFRPRT5SEL
      000000DAH   SFRSYM    DATA     BYTE      SFRPRT6SEL
      000000D0H.6 SFRSYM    DATA     BIT       AC
      000000A8H.7 SFRSYM    DATA     BIT       EA
      000000A8H   SFRSYM    DATA     BYTE      IE
      00000085H   SFRSYM    DATA     BYTE      DPH1
      00000084H   SFRSYM    DATA     BYTE      DPL1
      000000D0H.7 SFRSYM    DATA     BIT       CY
      000000A0H   SFRSYM    DATA     BYTE      P2AX
      00000095H   SFRSYM    DATA     BYTE      DPX1
      00000081H   SFRSYM    DATA     BYTE      SP
      000000D0H.2 SFRSYM    DATA     BIT       OV
      00000080H   SFRSYM    DATA     BYTE      SFRPRT0DR
      00000090H   SFRSYM    DATA     BYTE      SFRPRT1DR
      000000F2H   SFRSYM    DATA     BYTE      SFRPRT12SEL
      00000098H   SFRSYM    DATA     BYTE      SFRPRT2DR
      000000B0H   SFRSYM    DATA     BYTE      SFRPRT3DR
      000000C0H   SFRSYM    DATA     BYTE      SFRPRT4DR
      000000FAH   SFRSYM    DATA     BYTE      SFRPRT15SEL
      000000C8H   SFRSYM    DATA     BYTE      SFRPRT5DR
      000000D8H   SFRSYM    DATA     BYTE      SFRPRT6DR
      00000089H   SFRSYM    DATA     BYTE      SFRPRT0PS
      00000091H   SFRSYM    DATA     BYTE      SFRPRT1PS
      00000099H   SFRSYM    DATA     BYTE      SFRPRT2PS
      000000B1H   SFRSYM    DATA     BYTE      SFRPRT3PS
      000000C1H   SFRSYM    DATA     BYTE      SFRPRT4PS
      000000C9H   SFRSYM    DATA     BYTE      SFRPRT5PS
      000000D9H   SFRSYM    DATA     BYTE      SFRPRT6PS
      000000EAH   SFRSYM    DATA     BYTE      MXAX
      000000F0H   SFRSYM    DATA     BYTE      B
      000000E0H   SFRSYM    DATA     BYTE      ACC
      000000D0H   SFRSYM    DATA     BIT       P
      000000D0H.3 SFRSYM    DATA     BIT       RS0
      000000D0H.4 SFRSYM    DATA     BIT       RS1
      00000083H   SFRSYM    DATA     BYTE      DPH
      000000E8H   SFRSYM    DATA     BYTE      SFRPRT12DR
      00000082H   SFRSYM    DATA     BYTE      DPL
      000000F8H   SFRSYM    DATA     BYTE      SFRPRT15DR
      00000086H   SFRSYM    DATA     BYTE      DPS
      000000E9H   SFRSYM    DATA     BYTE      SFRPRT12PS
      00000093H   SFRSYM    DATA     BYTE      DPX
LX51 LINKER/LOCATER V4.64.0.0                                                         01/11/2017  18:17:27  PAGE 74


      000000F9H   SFRSYM    DATA     BYTE      SFRPRT15PS
      000000D0H.5 SFRSYM    DATA     BIT       F0
      000000D0H.1 SFRSYM    DATA     BIT       F1
      0000008AH   SFRSYM    DATA     BYTE      SFRPRT0SEL
      000000D0H   SFRSYM    DATA     BYTE      PSW
      000000A2H   SFRSYM    DATA     BYTE      SFRPRT1SEL
      0000009AH   SFRSYM    DATA     BYTE      SFRPRT2SEL
      000000B2H   SFRSYM    DATA     BYTE      SFRPRT3SEL
      000000C2H   SFRSYM    DATA     BYTE      SFRPRT4SEL

      0100AA0AH   BLOCK     CODE     ---       LVL=0
      02000002H   SYMBOL    XDATA    ---       address
      0100AA0AH   LINE      CODE     ---       #94
      0100AA12H   LINE      CODE     ---       #95
      0100AA12H   LINE      CODE     ---       #97
      0100AA15H   LINE      CODE     ---       #100
      0100AA20H   LINE      CODE     ---       #103
      0100AA25H   LINE      CODE     ---       #106
      0100AA28H   LINE      CODE     ---       #107
      ---         BLOCKEND  ---      ---       LVL=0

      0100A89AH   BLOCK     CODE     ---       LVL=0
      0100A89AH   LINE      CODE     ---       #151
      0100A89AH   LINE      CODE     ---       #168
      ---         BLOCKEND  ---      ---       LVL=0

      0100AD9AH   BLOCK     CODE     ---       LVL=0
      00000006H   SYMBOL    DATA     ---       address
      0100AD9AH   LINE      CODE     ---       #198
      0100AD9AH   LINE      CODE     ---       #199
      0100AD9AH   LINE      CODE     ---       #200
      0100ADA7H   LINE      CODE     ---       #201
      ---         BLOCKEND  ---      ---       LVL=0

      0100AEF6H   BLOCK     CODE     ---       LVL=0
      00000007H   SYMBOL    DATA     BYTE      priority
      0100AEF6H   LINE      CODE     ---       #248
      0100AEF6H   LINE      CODE     ---       #249
      0100AEF6H   LINE      CODE     ---       #250
      0100AEFFH   LINE      CODE     ---       #251
      ---         BLOCKEND  ---      ---       LVL=0
      00000007H   SYMBOL    DATA     BYTE      priority

      0100AF9DH   BLOCK     CODE     ---       LVL=0
      0100AF9DH   LINE      CODE     ---       #297
      0100AF9DH   LINE      CODE     ---       #298
      0100AF9DH   LINE      CODE     ---       #300
      0100AFA3H   LINE      CODE     ---       #301
      ---         BLOCKEND  ---      ---       LVL=0

      0100AFA4H   BLOCK     CODE     ---       LVL=0
      0100AFA4H   LINE      CODE     ---       #339
      0100AFA4H   LINE      CODE     ---       #340
      0100AFA4H   LINE      CODE     ---       #342
      0100AFAAH   LINE      CODE     ---       #343
      ---         BLOCKEND  ---      ---       LVL=0

      ---         MODULE    ---      ---       CLOCK_UART
      0100A5F8H   PUBLIC    CODE     ---       CLOCK_UART_GetSourceRegister
      0100AF00H   PUBLIC    CODE     ---       CLOCK_UART_GetDividerRegister
      010089A2H   PUBLIC    CODE     ---       _CLOCK_UART_SetDividerRegister
      00000007H   SYMBOL    DATA     BYTE      state

      010089A2H   BLOCK     CODE     ---       LVL=0
      02000003H   SYMBOL    XDATA    WORD      clkDivider
LX51 LINKER/LOCATER V4.64.0.0                                                         01/11/2017  18:17:27  PAGE 75


      02000005H   SYMBOL    XDATA    BYTE      restart
      010089ADH   BLOCK     CODE     NEAR LAB  LVL=1
      02000006H   SYMBOL    XDATA    BYTE      enabled
      02000007H   SYMBOL    XDATA    BYTE      currSrc
      02000008H   SYMBOL    XDATA    WORD      oldDivider
      ---         BLOCKEND  ---      ---       LVL=1
      010089A2H   LINE      CODE     ---       #193
      010089ADH   LINE      CODE     ---       #195
      010089ADH   LINE      CODE     ---       #198
      010089B5H   LINE      CODE     ---       #199
      010089C0H   LINE      CODE     ---       #201
      010089D2H   LINE      CODE     ---       #202
      010089D2H   LINE      CODE     ---       #203
      010089DCH   LINE      CODE     ---       #205
      010089EDH   LINE      CODE     ---       #206
      010089EDH   LINE      CODE     ---       #208
      010089F1H   LINE      CODE     ---       #209
      010089F1H   LINE      CODE     ---       #213
      010089FAH   LINE      CODE     ---       #214
      01008A01H   LINE      CODE     ---       #215
      01008A02H   LINE      CODE     ---       #217
      01008A02H   LINE      CODE     ---       #220
      01008A09H   LINE      CODE     ---       #221
      01008A1AH   LINE      CODE     ---       #222
      01008A1AH   LINE      CODE     ---       #223
      01008A1BH   LINE      CODE     ---       #225
      01008A1BH   LINE      CODE     ---       #227
      01008A21H   LINE      CODE     ---       #228
      01008A21H   LINE      CODE     ---       #229
      01008A26H   LINE      CODE     ---       #236
      01008A2BH   LINE      CODE     ---       #237
      01008A30H   LINE      CODE     ---       #240
      01008A37H   LINE      CODE     ---       #243
      01008A49H   LINE      CODE     ---       #244
      01008A49H   LINE      CODE     ---       #246
      01008A5AH   LINE      CODE     ---       #247
      01008A60H   LINE      CODE     ---       #250
      01008A68H   LINE      CODE     ---       #253
      01008A6FH   LINE      CODE     ---       #257
      01008A74H   LINE      CODE     ---       #259
      01008A74H   LINE      CODE     ---       #260
      01008A74H   LINE      CODE     ---       #263
      01008A7CH   LINE      CODE     ---       #264
      01008A7CH   LINE      CODE     ---       #266
      01008A8DH   LINE      CODE     ---       #268
      01008AA0H   LINE      CODE     ---       #269
      01008AAAH   LINE      CODE     ---       #270
      01008AABH   LINE      CODE     ---       #272
      01008AABH   LINE      CODE     ---       #274
      01008ABCH   LINE      CODE     ---       #275
      01008AD1H   LINE      CODE     ---       #276
      01008AD1H   LINE      CODE     ---       #277
      01008AD1H   LINE      CODE     ---       #278
      01008AD1H   LINE      CODE     ---       #279
      ---         BLOCKEND  ---      ---       LVL=0

      0100AF00H   BLOCK     CODE     ---       LVL=0
      0100AF00H   LINE      CODE     ---       #297
      0100AF00H   LINE      CODE     ---       #298
      0100AF00H   LINE      CODE     ---       #299
      0100AF09H   LINE      CODE     ---       #300
      ---         BLOCKEND  ---      ---       LVL=0
      00000007H   SYMBOL    DATA     BYTE      modeBitMask
      00000007H   SYMBOL    DATA     BYTE      modeBitMask
      00000007H   SYMBOL    DATA     BYTE      oldSrc
LX51 LINKER/LOCATER V4.64.0.0                                                         01/11/2017  18:17:27  PAGE 76



      0100A5F8H   BLOCK     CODE     ---       LVL=0
      0100A5F8H   LINE      CODE     ---       #464
      0100A5F8H   LINE      CODE     ---       #465
      0100A5F8H   LINE      CODE     ---       #466
      0100A5FFH   LINE      CODE     ---       #467
      ---         BLOCKEND  ---      ---       LVL=0

      ---         MODULE    ---      ---       PWM_MOTORS
      02000D74H   PUBLIC    XDATA    BYTE      PWM_MOTORS_initVar
      0100AFD2H   PUBLIC    CODE     ---       _PWM_MOTORS_WriteCompare2
      0100AFCCH   PUBLIC    CODE     ---       _PWM_MOTORS_WriteCompare1
      0100AFC6H   PUBLIC    CODE     ---       _PWM_MOTORS_WritePeriod
      0100AFC0H   PUBLIC    CODE     ---       _PWM_MOTORS_WriteCounter
      0100AF6EH   PUBLIC    CODE     ---       PWM_MOTORS_Enable
      0100A917H   PUBLIC    CODE     ---       PWM_MOTORS_Init
      0100ABFAH   PUBLIC    CODE     ---       PWM_MOTORS_Start
      000000CAH   SFRSYM    DATA     BYTE      SFRPRT5SEL
      000000DAH   SFRSYM    DATA     BYTE      SFRPRT6SEL
      000000D0H.6 SFRSYM    DATA     BIT       AC
      000000A8H.7 SFRSYM    DATA     BIT       EA
      000000A8H   SFRSYM    DATA     BYTE      IE
      00000085H   SFRSYM    DATA     BYTE      DPH1
      00000084H   SFRSYM    DATA     BYTE      DPL1
      000000D0H.7 SFRSYM    DATA     BIT       CY
      000000A0H   SFRSYM    DATA     BYTE      P2AX
      00000095H   SFRSYM    DATA     BYTE      DPX1
      00000081H   SFRSYM    DATA     BYTE      SP
      000000D0H.2 SFRSYM    DATA     BIT       OV
      00000080H   SFRSYM    DATA     BYTE      SFRPRT0DR
      00000090H   SFRSYM    DATA     BYTE      SFRPRT1DR
      000000F2H   SFRSYM    DATA     BYTE      SFRPRT12SEL
      00000098H   SFRSYM    DATA     BYTE      SFRPRT2DR
      000000B0H   SFRSYM    DATA     BYTE      SFRPRT3DR
      000000C0H   SFRSYM    DATA     BYTE      SFRPRT4DR
      000000FAH   SFRSYM    DATA     BYTE      SFRPRT15SEL
      000000C8H   SFRSYM    DATA     BYTE      SFRPRT5DR
      000000D8H   SFRSYM    DATA     BYTE      SFRPRT6DR
      00000089H   SFRSYM    DATA     BYTE      SFRPRT0PS
      00000091H   SFRSYM    DATA     BYTE      SFRPRT1PS
      00000099H   SFRSYM    DATA     BYTE      SFRPRT2PS
      000000B1H   SFRSYM    DATA     BYTE      SFRPRT3PS
      000000C1H   SFRSYM    DATA     BYTE      SFRPRT4PS
      000000C9H   SFRSYM    DATA     BYTE      SFRPRT5PS
      000000D9H   SFRSYM    DATA     BYTE      SFRPRT6PS
      000000EAH   SFRSYM    DATA     BYTE      MXAX
      000000F0H   SFRSYM    DATA     BYTE      B
      000000E0H   SFRSYM    DATA     BYTE      ACC
      000000D0H   SFRSYM    DATA     BIT       P
      000000D0H.3 SFRSYM    DATA     BIT       RS0
      000000D0H.4 SFRSYM    DATA     BIT       RS1
      00000083H   SFRSYM    DATA     BYTE      DPH
      000000E8H   SFRSYM    DATA     BYTE      SFRPRT12DR
      00000082H   SFRSYM    DATA     BYTE      DPL
      000000F8H   SFRSYM    DATA     BYTE      SFRPRT15DR
      00000086H   SFRSYM    DATA     BYTE      DPS
      000000E9H   SFRSYM    DATA     BYTE      SFRPRT12PS
      00000093H   SFRSYM    DATA     BYTE      DPX
      000000F9H   SFRSYM    DATA     BYTE      SFRPRT15PS
      000000D0H.5 SFRSYM    DATA     BIT       F0
      000000D0H.1 SFRSYM    DATA     BIT       F1
      0000008AH   SFRSYM    DATA     BYTE      SFRPRT0SEL
      000000D0H   SFRSYM    DATA     BYTE      PSW
      000000A2H   SFRSYM    DATA     BYTE      SFRPRT1SEL
      0000009AH   SFRSYM    DATA     BYTE      SFRPRT2SEL
LX51 LINKER/LOCATER V4.64.0.0                                                         01/11/2017  18:17:27  PAGE 77


      000000B2H   SFRSYM    DATA     BYTE      SFRPRT3SEL
      000000C2H   SFRSYM    DATA     BYTE      SFRPRT4SEL

      0100ABFAH   BLOCK     CODE     ---       LVL=0
      0100ABFAH   LINE      CODE     ---       #55
      0100ABFAH   LINE      CODE     ---       #56
      0100ABFAH   LINE      CODE     ---       #58
      0100AC00H   LINE      CODE     ---       #59
      0100AC00H   LINE      CODE     ---       #60
      0100AC03H   LINE      CODE     ---       #61
      0100AC09H   LINE      CODE     ---       #62
      0100AC09H   LINE      CODE     ---       #63
      0100AC0CH   LINE      CODE     ---       #65
      ---         BLOCKEND  ---      ---       LVL=0

      0100A917H   BLOCK     CODE     ---       LVL=0
      0100A917H   BLOCK     CODE     NEAR LAB  LVL=1
      00000007H   SYMBOL    DATA     BYTE      ctrl
      ---         BLOCKEND  ---      ---       LVL=1
      0100A917H   LINE      CODE     ---       #84
      0100A917H   LINE      CODE     ---       #85
      0100A917H   LINE      CODE     ---       #118
      0100A91EH   LINE      CODE     ---       #120
      0100A921H   LINE      CODE     ---       #126
      0100A928H   LINE      CODE     ---       #133
      0100A92DH   LINE      CODE     ---       #136
      0100A932H   LINE      CODE     ---       #141
      0100A937H   LINE      CODE     ---       #142
      0100A93CH   LINE      CODE     ---       #179
      ---         BLOCKEND  ---      ---       LVL=0

      0100AF6EH   BLOCK     CODE     ---       LVL=0
      0100AF6EH   LINE      CODE     ---       #199
      0100AF6EH   LINE      CODE     ---       #200
      0100AF6EH   LINE      CODE     ---       #209
      0100AF75H   LINE      CODE     ---       #211
      ---         BLOCKEND  ---      ---       LVL=0

      0100AFC0H   BLOCK     CODE     ---       LVL=0
      00000007H   SYMBOL    DATA     BYTE      counter
      0100AFC0H   LINE      CODE     ---       #403
      0100AFC0H   LINE      CODE     ---       #405
      0100AFC0H   LINE      CODE     ---       #406
      0100AFC5H   LINE      CODE     ---       #407
      ---         BLOCKEND  ---      ---       LVL=0

      0100AFC6H   BLOCK     CODE     ---       LVL=0
      00000007H   SYMBOL    DATA     BYTE      period
      0100AFC6H   LINE      CODE     ---       #482
      0100AFC6H   LINE      CODE     ---       #483
      0100AFC6H   LINE      CODE     ---       #487
      0100AFCBH   LINE      CODE     ---       #489
      ---         BLOCKEND  ---      ---       LVL=0

      0100AFCCH   BLOCK     CODE     ---       LVL=0
      00000007H   SYMBOL    DATA     BYTE      compare
      0100AFCCH   LINE      CODE     ---       #555
      0100AFCCH   LINE      CODE     ---       #557
      0100AFCCH   LINE      CODE     ---       #561
      0100AFD1H   LINE      CODE     ---       #563
      ---         BLOCKEND  ---      ---       LVL=0

      0100AFD2H   BLOCK     CODE     ---       LVL=0
      00000007H   SYMBOL    DATA     BYTE      compare
      0100AFD2H   LINE      CODE     ---       #584
LX51 LINKER/LOCATER V4.64.0.0                                                         01/11/2017  18:17:27  PAGE 78


      0100AFD2H   LINE      CODE     ---       #586
      0100AFD2H   LINE      CODE     ---       #590
      0100AFD7H   LINE      CODE     ---       #592
      ---         BLOCKEND  ---      ---       LVL=0
      00000007H   SYMBOL    DATA     BYTE      result
      00000007H   SYMBOL    DATA     BYTE      control

      ---         MODULE    ---      ---       WATCHDOG_REFRESH
      0100AFD8H   PUBLIC    CODE     ---       _WATCHDOG_REFRESH_Write

      0100AFD8H   BLOCK     CODE     ---       LVL=0
      00000007H   SYMBOL    DATA     BYTE      control
      0100AFD8H   LINE      CODE     ---       #37
      0100AFD8H   LINE      CODE     ---       #38
      0100AFD8H   LINE      CODE     ---       #39
      0100AFDDH   LINE      CODE     ---       #40
      ---         BLOCKEND  ---      ---       LVL=0

      ---         MODULE    ---      ---       WATCHDOG_ENABLER
      0100AFDEH   PUBLIC    CODE     ---       _WATCHDOG_ENABLER_Write

      0100AFDEH   BLOCK     CODE     ---       LVL=0
      00000007H   SYMBOL    DATA     BYTE      control
      0100AFDEH   LINE      CODE     ---       #37
      0100AFDEH   LINE      CODE     ---       #38
      0100AFDEH   LINE      CODE     ---       #39
      0100AFE3H   LINE      CODE     ---       #40
      ---         BLOCKEND  ---      ---       LVL=0

      ---         MODULE    ---      ---       WATCHDOG_COUNTER
      02000D75H   PUBLIC    XDATA    BYTE      WATCHDOG_COUNTER_initVar
      0100ADA8H   PUBLIC    CODE     ---       _WATCHDOG_COUNTER_WritePeriod
      0100AA85H   PUBLIC    CODE     ---       _WATCHDOG_COUNTER_WriteCounter
      0100AFE4H   PUBLIC    CODE     ---       _WATCHDOG_COUNTER_SetInterruptMode
      0100AC0DH   PUBLIC    CODE     ---       WATCHDOG_COUNTER_Start
      0100AB50H   PUBLIC    CODE     ---       WATCHDOG_COUNTER_Enable
      0100A63BH   PUBLIC    CODE     ---       WATCHDOG_COUNTER_Init
      000000CAH   SFRSYM    DATA     BYTE      SFRPRT5SEL
      000000DAH   SFRSYM    DATA     BYTE      SFRPRT6SEL
      000000D0H.6 SFRSYM    DATA     BIT       AC
      000000A8H.7 SFRSYM    DATA     BIT       EA
      000000A8H   SFRSYM    DATA     BYTE      IE
      00000085H   SFRSYM    DATA     BYTE      DPH1
      00000084H   SFRSYM    DATA     BYTE      DPL1
      000000D0H.7 SFRSYM    DATA     BIT       CY
      000000A0H   SFRSYM    DATA     BYTE      P2AX
      00000095H   SFRSYM    DATA     BYTE      DPX1
      00000081H   SFRSYM    DATA     BYTE      SP
      000000D0H.2 SFRSYM    DATA     BIT       OV
      00000080H   SFRSYM    DATA     BYTE      SFRPRT0DR
      00000090H   SFRSYM    DATA     BYTE      SFRPRT1DR
      000000F2H   SFRSYM    DATA     BYTE      SFRPRT12SEL
      00000098H   SFRSYM    DATA     BYTE      SFRPRT2DR
      000000B0H   SFRSYM    DATA     BYTE      SFRPRT3DR
      000000C0H   SFRSYM    DATA     BYTE      SFRPRT4DR
      000000FAH   SFRSYM    DATA     BYTE      SFRPRT15SEL
      000000C8H   SFRSYM    DATA     BYTE      SFRPRT5DR
      000000D8H   SFRSYM    DATA     BYTE      SFRPRT6DR
      00000089H   SFRSYM    DATA     BYTE      SFRPRT0PS
      00000091H   SFRSYM    DATA     BYTE      SFRPRT1PS
      00000099H   SFRSYM    DATA     BYTE      SFRPRT2PS
      000000B1H   SFRSYM    DATA     BYTE      SFRPRT3PS
      000000C1H   SFRSYM    DATA     BYTE      SFRPRT4PS
      000000C9H   SFRSYM    DATA     BYTE      SFRPRT5PS
      000000D9H   SFRSYM    DATA     BYTE      SFRPRT6PS
LX51 LINKER/LOCATER V4.64.0.0                                                         01/11/2017  18:17:27  PAGE 79


      000000EAH   SFRSYM    DATA     BYTE      MXAX
      000000F0H   SFRSYM    DATA     BYTE      B
      000000E0H   SFRSYM    DATA     BYTE      ACC
      000000D0H   SFRSYM    DATA     BIT       P
      000000D0H.3 SFRSYM    DATA     BIT       RS0
      000000D0H.4 SFRSYM    DATA     BIT       RS1
      00000083H   SFRSYM    DATA     BYTE      DPH
      000000E8H   SFRSYM    DATA     BYTE      SFRPRT12DR
      00000082H   SFRSYM    DATA     BYTE      DPL
      000000F8H   SFRSYM    DATA     BYTE      SFRPRT15DR
      00000086H   SFRSYM    DATA     BYTE      DPS
      000000E9H   SFRSYM    DATA     BYTE      SFRPRT12PS
      00000093H   SFRSYM    DATA     BYTE      DPX
      000000F9H   SFRSYM    DATA     BYTE      SFRPRT15PS
      000000D0H.5 SFRSYM    DATA     BIT       F0
      000000D0H.1 SFRSYM    DATA     BIT       F1
      0000008AH   SFRSYM    DATA     BYTE      SFRPRT0SEL
      000000D0H   SFRSYM    DATA     BYTE      PSW
      000000A2H   SFRSYM    DATA     BYTE      SFRPRT1SEL
      0000009AH   SFRSYM    DATA     BYTE      SFRPRT2SEL
      000000B2H   SFRSYM    DATA     BYTE      SFRPRT3SEL
      000000C2H   SFRSYM    DATA     BYTE      SFRPRT4SEL

      0100A63BH   BLOCK     CODE     ---       LVL=0
      0100A63BH   LINE      CODE     ---       #37
      0100A63BH   LINE      CODE     ---       #38
      0100A63BH   LINE      CODE     ---       #50
      0100A642H   LINE      CODE     ---       #57
      0100A649H   LINE      CODE     ---       #66
      0100A650H   LINE      CODE     ---       #69
      0100A657H   LINE      CODE     ---       #70
      0100A65BH   LINE      CODE     ---       #73
      0100A65FH   LINE      CODE     ---       #74
      0100A663H   LINE      CODE     ---       #100
      0100A668H   LINE      CODE     ---       #102
      0100A66DH   LINE      CODE     ---       #104
      0100A672H   LINE      CODE     ---       #123
      ---         BLOCKEND  ---      ---       LVL=0

      0100AB50H   BLOCK     CODE     ---       LVL=0
      0100AB50H   LINE      CODE     ---       #143
      0100AB50H   LINE      CODE     ---       #144
      0100AB50H   LINE      CODE     ---       #147
      0100AB57H   LINE      CODE     ---       #148
      0100AB5EH   LINE      CODE     ---       #155
      0100AB65H   LINE      CODE     ---       #158
      ---         BLOCKEND  ---      ---       LVL=0

      0100AC0DH   BLOCK     CODE     ---       LVL=0
      0100AC0DH   LINE      CODE     ---       #178
      0100AC0DH   LINE      CODE     ---       #179
      0100AC0DH   LINE      CODE     ---       #180
      0100AC13H   LINE      CODE     ---       #181
      0100AC13H   LINE      CODE     ---       #182
      0100AC16H   LINE      CODE     ---       #184
      0100AC1CH   LINE      CODE     ---       #185
      0100AC1CH   LINE      CODE     ---       #188
      0100AC1FH   LINE      CODE     ---       #189
      ---         BLOCKEND  ---      ---       LVL=0

      0100AFE4H   BLOCK     CODE     ---       LVL=0
      00000007H   SYMBOL    DATA     BYTE      interruptsMask
      0100AFE4H   LINE      CODE     ---       #237
      0100AFE4H   LINE      CODE     ---       #238
      0100AFE4H   LINE      CODE     ---       #239
LX51 LINKER/LOCATER V4.64.0.0                                                         01/11/2017  18:17:27  PAGE 80


      0100AFE9H   LINE      CODE     ---       #240
      ---         BLOCKEND  ---      ---       LVL=0
      00000007H   SYMBOL    DATA     BYTE      control

      0100AA85H   BLOCK     CODE     ---       LVL=0
      00000007H   SYMBOL    DATA     BYTE      counter
      0100AA85H   LINE      CODE     ---       #326
      0100AA85H   LINE      CODE     ---       #328
      0100AA85H   LINE      CODE     ---       #333
      0100AA8CH   LINE      CODE     ---       #334
      0100AA99H   LINE      CODE     ---       #335
      0100AAA0H   LINE      CODE     ---       #339
      ---         BLOCKEND  ---      ---       LVL=0

      0100ADA8H   BLOCK     CODE     ---       LVL=0
      00000007H   SYMBOL    DATA     BYTE      period
      0100ADA8H   LINE      CODE     ---       #415
      0100ADA8H   LINE      CODE     ---       #416
      0100ADA8H   LINE      CODE     ---       #418
      0100ADB5H   LINE      CODE     ---       #422
      ---         BLOCKEND  ---      ---       LVL=0

      ---         MODULE    ---      ---       ISR_WATCHDOG
      0100AFB2H   PUBLIC    CODE     ---       ISR_WATCHDOG_Disable
      0100AFABH   PUBLIC    CODE     ---       ISR_WATCHDOG_Enable
      0100AF0AH   PUBLIC    CODE     ---       _ISR_WATCHDOG_SetPriority
      0100ADB6H   PUBLIC    CODE     ---       _ISR_WATCHDOG_SetVector
      0100A89BH   PUBLIC    CODE     ---       ISR_WATCHDOG_Interrupt
      0100AA29H   PUBLIC    CODE     ---       _ISR_WATCHDOG_StartEx
      000000CAH   SFRSYM    DATA     BYTE      SFRPRT5SEL
      000000DAH   SFRSYM    DATA     BYTE      SFRPRT6SEL
      000000D0H.6 SFRSYM    DATA     BIT       AC
      000000A8H.7 SFRSYM    DATA     BIT       EA
      000000A8H   SFRSYM    DATA     BYTE      IE
      00000085H   SFRSYM    DATA     BYTE      DPH1
      00000084H   SFRSYM    DATA     BYTE      DPL1
      000000D0H.7 SFRSYM    DATA     BIT       CY
      000000A0H   SFRSYM    DATA     BYTE      P2AX
      00000095H   SFRSYM    DATA     BYTE      DPX1
      00000081H   SFRSYM    DATA     BYTE      SP
      000000D0H.2 SFRSYM    DATA     BIT       OV
      00000080H   SFRSYM    DATA     BYTE      SFRPRT0DR
      00000090H   SFRSYM    DATA     BYTE      SFRPRT1DR
      000000F2H   SFRSYM    DATA     BYTE      SFRPRT12SEL
      00000098H   SFRSYM    DATA     BYTE      SFRPRT2DR
      000000B0H   SFRSYM    DATA     BYTE      SFRPRT3DR
      000000C0H   SFRSYM    DATA     BYTE      SFRPRT4DR
      000000FAH   SFRSYM    DATA     BYTE      SFRPRT15SEL
      000000C8H   SFRSYM    DATA     BYTE      SFRPRT5DR
      000000D8H   SFRSYM    DATA     BYTE      SFRPRT6DR
      00000089H   SFRSYM    DATA     BYTE      SFRPRT0PS
      00000091H   SFRSYM    DATA     BYTE      SFRPRT1PS
      00000099H   SFRSYM    DATA     BYTE      SFRPRT2PS
      000000B1H   SFRSYM    DATA     BYTE      SFRPRT3PS
      000000C1H   SFRSYM    DATA     BYTE      SFRPRT4PS
      000000C9H   SFRSYM    DATA     BYTE      SFRPRT5PS
      000000D9H   SFRSYM    DATA     BYTE      SFRPRT6PS
      000000EAH   SFRSYM    DATA     BYTE      MXAX
      000000F0H   SFRSYM    DATA     BYTE      B
      000000E0H   SFRSYM    DATA     BYTE      ACC
      000000D0H   SFRSYM    DATA     BIT       P
      000000D0H.3 SFRSYM    DATA     BIT       RS0
      000000D0H.4 SFRSYM    DATA     BIT       RS1
      00000083H   SFRSYM    DATA     BYTE      DPH
      000000E8H   SFRSYM    DATA     BYTE      SFRPRT12DR
LX51 LINKER/LOCATER V4.64.0.0                                                         01/11/2017  18:17:27  PAGE 81


      00000082H   SFRSYM    DATA     BYTE      DPL
      000000F8H   SFRSYM    DATA     BYTE      SFRPRT15DR
      00000086H   SFRSYM    DATA     BYTE      DPS
      000000E9H   SFRSYM    DATA     BYTE      SFRPRT12PS
      00000093H   SFRSYM    DATA     BYTE      DPX
      000000F9H   SFRSYM    DATA     BYTE      SFRPRT15PS
      000000D0H.5 SFRSYM    DATA     BIT       F0
      000000D0H.1 SFRSYM    DATA     BIT       F1
      0000008AH   SFRSYM    DATA     BYTE      SFRPRT0SEL
      000000D0H   SFRSYM    DATA     BYTE      PSW
      000000A2H   SFRSYM    DATA     BYTE      SFRPRT1SEL
      0000009AH   SFRSYM    DATA     BYTE      SFRPRT2SEL
      000000B2H   SFRSYM    DATA     BYTE      SFRPRT3SEL
      000000C2H   SFRSYM    DATA     BYTE      SFRPRT4SEL

      0100AA29H   BLOCK     CODE     ---       LVL=0
      02000002H   SYMBOL    XDATA    ---       address
      0100AA29H   LINE      CODE     ---       #94
      0100AA31H   LINE      CODE     ---       #95
      0100AA31H   LINE      CODE     ---       #97
      0100AA34H   LINE      CODE     ---       #100
      0100AA3FH   LINE      CODE     ---       #103
      0100AA44H   LINE      CODE     ---       #106
      0100AA47H   LINE      CODE     ---       #107
      ---         BLOCKEND  ---      ---       LVL=0

      0100A89BH   BLOCK     CODE     ---       LVL=0
      0100A89BH   LINE      CODE     ---       #151
      0100A89BH   LINE      CODE     ---       #168
      ---         BLOCKEND  ---      ---       LVL=0

      0100ADB6H   BLOCK     CODE     ---       LVL=0
      00000006H   SYMBOL    DATA     ---       address
      0100ADB6H   LINE      CODE     ---       #198
      0100ADB6H   LINE      CODE     ---       #199
      0100ADB6H   LINE      CODE     ---       #200
      0100ADC3H   LINE      CODE     ---       #201
      ---         BLOCKEND  ---      ---       LVL=0

      0100AF0AH   BLOCK     CODE     ---       LVL=0
      00000007H   SYMBOL    DATA     BYTE      priority
      0100AF0AH   LINE      CODE     ---       #248
      0100AF0AH   LINE      CODE     ---       #249
      0100AF0AH   LINE      CODE     ---       #250
      0100AF13H   LINE      CODE     ---       #251
      ---         BLOCKEND  ---      ---       LVL=0
      00000007H   SYMBOL    DATA     BYTE      priority

      0100AFABH   BLOCK     CODE     ---       LVL=0
      0100AFABH   LINE      CODE     ---       #297
      0100AFABH   LINE      CODE     ---       #298
      0100AFABH   LINE      CODE     ---       #300
      0100AFB1H   LINE      CODE     ---       #301
      ---         BLOCKEND  ---      ---       LVL=0

      0100AFB2H   BLOCK     CODE     ---       LVL=0
      0100AFB2H   LINE      CODE     ---       #339
      0100AFB2H   LINE      CODE     ---       #340
      0100AFB2H   LINE      CODE     ---       #342
      0100AFB8H   LINE      CODE     ---       #343
      ---         BLOCKEND  ---      ---       LVL=0

      ---         MODULE    ---      ---       SHIFTREG_ENC_3
      02000D76H   PUBLIC    XDATA    BYTE      SHIFTREG_ENC_3_initVar
      0100AF14H   PUBLIC    CODE     ---       SHIFTREG_ENC_3_ReadData
LX51 LINKER/LOCATER V4.64.0.0                                                         01/11/2017  18:17:27  PAGE 82


      0100AD16H   PUBLIC    CODE     ---       _SHIFTREG_ENC_3_SetIntMode
      0100ADC4H   PUBLIC    CODE     ---       SHIFTREG_ENC_3_EnableInt
      0100AFEAH   PUBLIC    CODE     ---       SHIFTREG_ENC_3_Init
      0100AEB4H   PUBLIC    CODE     ---       SHIFTREG_ENC_3_Enable
      0100AC20H   PUBLIC    CODE     ---       SHIFTREG_ENC_3_Start
      000000CAH   SFRSYM    DATA     BYTE      SFRPRT5SEL
      000000DAH   SFRSYM    DATA     BYTE      SFRPRT6SEL
      000000D0H.6 SFRSYM    DATA     BIT       AC
      000000A8H.7 SFRSYM    DATA     BIT       EA
      000000A8H   SFRSYM    DATA     BYTE      IE
      00000085H   SFRSYM    DATA     BYTE      DPH1
      00000084H   SFRSYM    DATA     BYTE      DPL1
      000000D0H.7 SFRSYM    DATA     BIT       CY
      000000A0H   SFRSYM    DATA     BYTE      P2AX
      00000095H   SFRSYM    DATA     BYTE      DPX1
      00000081H   SFRSYM    DATA     BYTE      SP
      000000D0H.2 SFRSYM    DATA     BIT       OV
      00000080H   SFRSYM    DATA     BYTE      SFRPRT0DR
      00000090H   SFRSYM    DATA     BYTE      SFRPRT1DR
      000000F2H   SFRSYM    DATA     BYTE      SFRPRT12SEL
      00000098H   SFRSYM    DATA     BYTE      SFRPRT2DR
      000000B0H   SFRSYM    DATA     BYTE      SFRPRT3DR
      000000C0H   SFRSYM    DATA     BYTE      SFRPRT4DR
      000000FAH   SFRSYM    DATA     BYTE      SFRPRT15SEL
      000000C8H   SFRSYM    DATA     BYTE      SFRPRT5DR
      000000D8H   SFRSYM    DATA     BYTE      SFRPRT6DR
      00000089H   SFRSYM    DATA     BYTE      SFRPRT0PS
      00000091H   SFRSYM    DATA     BYTE      SFRPRT1PS
      00000099H   SFRSYM    DATA     BYTE      SFRPRT2PS
      000000B1H   SFRSYM    DATA     BYTE      SFRPRT3PS
      000000C1H   SFRSYM    DATA     BYTE      SFRPRT4PS
      000000C9H   SFRSYM    DATA     BYTE      SFRPRT5PS
      000000D9H   SFRSYM    DATA     BYTE      SFRPRT6PS
      000000EAH   SFRSYM    DATA     BYTE      MXAX
      000000F0H   SFRSYM    DATA     BYTE      B
      000000E0H   SFRSYM    DATA     BYTE      ACC
      000000D0H   SFRSYM    DATA     BIT       P
      000000D0H.3 SFRSYM    DATA     BIT       RS0
      000000D0H.4 SFRSYM    DATA     BIT       RS1
      00000083H   SFRSYM    DATA     BYTE      DPH
      000000E8H   SFRSYM    DATA     BYTE      SFRPRT12DR
      00000082H   SFRSYM    DATA     BYTE      DPL
      000000F8H   SFRSYM    DATA     BYTE      SFRPRT15DR
      00000086H   SFRSYM    DATA     BYTE      DPS
      000000E9H   SFRSYM    DATA     BYTE      SFRPRT12PS
      00000093H   SFRSYM    DATA     BYTE      DPX
      000000F9H   SFRSYM    DATA     BYTE      SFRPRT15PS
      000000D0H.5 SFRSYM    DATA     BIT       F0
      000000D0H.1 SFRSYM    DATA     BIT       F1
      0000008AH   SFRSYM    DATA     BYTE      SFRPRT0SEL
      000000D0H   SFRSYM    DATA     BYTE      PSW
      000000A2H   SFRSYM    DATA     BYTE      SFRPRT1SEL
      0000009AH   SFRSYM    DATA     BYTE      SFRPRT2SEL
      000000B2H   SFRSYM    DATA     BYTE      SFRPRT3SEL
      000000C2H   SFRSYM    DATA     BYTE      SFRPRT4SEL

      0100AC20H   BLOCK     CODE     ---       LVL=0
      0100AC20H   LINE      CODE     ---       #43
      0100AC20H   LINE      CODE     ---       #44
      0100AC20H   LINE      CODE     ---       #45
      0100AC26H   LINE      CODE     ---       #46
      0100AC26H   LINE      CODE     ---       #47
      0100AC29H   LINE      CODE     ---       #48
      0100AC2FH   LINE      CODE     ---       #49
      0100AC2FH   LINE      CODE     ---       #51
LX51 LINKER/LOCATER V4.64.0.0                                                         01/11/2017  18:17:27  PAGE 83


      0100AC32H   LINE      CODE     ---       #52
      ---         BLOCKEND  ---      ---       LVL=0

      0100AEB4H   BLOCK     CODE     ---       LVL=0
      0100AEB4H   LINE      CODE     ---       #69
      0100AEB4H   LINE      CODE     ---       #70
      0100AEB4H   LINE      CODE     ---       #73
      0100AEBBH   LINE      CODE     ---       #75
      0100AEBEH   LINE      CODE     ---       #76
      ---         BLOCKEND  ---      ---       LVL=0

      0100AFEAH   BLOCK     CODE     ---       LVL=0
      0100AFEAH   LINE      CODE     ---       #93
      0100AFEAH   LINE      CODE     ---       #94
      0100AFEAH   LINE      CODE     ---       #95
      0100AFEFH   LINE      CODE     ---       #96
      ---         BLOCKEND  ---      ---       LVL=0

      0100ADC4H   BLOCK     CODE     ---       LVL=0
      0100ADC4H   BLOCK     CODE     NEAR LAB  LVL=1
      00000007H   SYMBOL    DATA     BYTE      interruptState
      ---         BLOCKEND  ---      ---       LVL=1
      0100ADC4H   LINE      CODE     ---       #135
      0100ADC4H   LINE      CODE     ---       #136
      0100ADC4H   LINE      CODE     ---       #139
      0100ADC7H   LINE      CODE     ---       #140
      0100ADCEH   LINE      CODE     ---       #141
      0100ADD1H   LINE      CODE     ---       #142
      ---         BLOCKEND  ---      ---       LVL=0
      00000007H   SYMBOL    DATA     BYTE      interruptState
      00000007H   SYMBOL    DATA     BYTE      fifoId
      00000005H   SYMBOL    DATA     BYTE      result

      0100AD16H   BLOCK     CODE     ---       LVL=0
      00000007H   SYMBOL    DATA     BYTE      interruptSource
      0100AD16H   LINE      CODE     ---       #261
      0100AD16H   LINE      CODE     ---       #262
      0100AD16H   LINE      CODE     ---       #263
      0100AD1DH   LINE      CODE     ---       #264
      0100AD26H   LINE      CODE     ---       #265
      ---         BLOCKEND  ---      ---       LVL=0
      00000004H   SYMBOL    DATA     DWORD     shiftData

      0100AF14H   BLOCK     CODE     ---       LVL=0
      0100AF14H   LINE      CODE     ---       #366
      0100AF14H   LINE      CODE     ---       #367
      0100AF14H   LINE      CODE     ---       #368
      0100AF1DH   LINE      CODE     ---       #369
      ---         BLOCKEND  ---      ---       LVL=0

      ---         MODULE    ---      ---       FF_STATUS
      0100AFF0H   PUBLIC    CODE     ---       FF_STATUS_Read
      000000CAH   SFRSYM    DATA     BYTE      SFRPRT5SEL
      000000DAH   SFRSYM    DATA     BYTE      SFRPRT6SEL
      000000D0H.6 SFRSYM    DATA     BIT       AC
      000000A8H.7 SFRSYM    DATA     BIT       EA
      000000A8H   SFRSYM    DATA     BYTE      IE
      00000085H   SFRSYM    DATA     BYTE      DPH1
      00000084H   SFRSYM    DATA     BYTE      DPL1
      000000D0H.7 SFRSYM    DATA     BIT       CY
      000000A0H   SFRSYM    DATA     BYTE      P2AX
      00000095H   SFRSYM    DATA     BYTE      DPX1
      00000081H   SFRSYM    DATA     BYTE      SP
      000000D0H.2 SFRSYM    DATA     BIT       OV
      00000080H   SFRSYM    DATA     BYTE      SFRPRT0DR
LX51 LINKER/LOCATER V4.64.0.0                                                         01/11/2017  18:17:27  PAGE 84


      00000090H   SFRSYM    DATA     BYTE      SFRPRT1DR
      000000F2H   SFRSYM    DATA     BYTE      SFRPRT12SEL
      00000098H   SFRSYM    DATA     BYTE      SFRPRT2DR
      000000B0H   SFRSYM    DATA     BYTE      SFRPRT3DR
      000000C0H   SFRSYM    DATA     BYTE      SFRPRT4DR
      000000FAH   SFRSYM    DATA     BYTE      SFRPRT15SEL
      000000C8H   SFRSYM    DATA     BYTE      SFRPRT5DR
      000000D8H   SFRSYM    DATA     BYTE      SFRPRT6DR
      00000089H   SFRSYM    DATA     BYTE      SFRPRT0PS
      00000091H   SFRSYM    DATA     BYTE      SFRPRT1PS
      00000099H   SFRSYM    DATA     BYTE      SFRPRT2PS
      000000B1H   SFRSYM    DATA     BYTE      SFRPRT3PS
      000000C1H   SFRSYM    DATA     BYTE      SFRPRT4PS
      000000C9H   SFRSYM    DATA     BYTE      SFRPRT5PS
      000000D9H   SFRSYM    DATA     BYTE      SFRPRT6PS
      000000EAH   SFRSYM    DATA     BYTE      MXAX
      000000F0H   SFRSYM    DATA     BYTE      B
      000000E0H   SFRSYM    DATA     BYTE      ACC
      000000D0H   SFRSYM    DATA     BIT       P
      000000D0H.3 SFRSYM    DATA     BIT       RS0
      000000D0H.4 SFRSYM    DATA     BIT       RS1
      00000083H   SFRSYM    DATA     BYTE      DPH
      000000E8H   SFRSYM    DATA     BYTE      SFRPRT12DR
      00000082H   SFRSYM    DATA     BYTE      DPL
      000000F8H   SFRSYM    DATA     BYTE      SFRPRT15DR
      00000086H   SFRSYM    DATA     BYTE      DPS
      000000E9H   SFRSYM    DATA     BYTE      SFRPRT12PS
      00000093H   SFRSYM    DATA     BYTE      DPX
      000000F9H   SFRSYM    DATA     BYTE      SFRPRT15PS
      000000D0H.5 SFRSYM    DATA     BIT       F0
      000000D0H.1 SFRSYM    DATA     BIT       F1
      0000008AH   SFRSYM    DATA     BYTE      SFRPRT0SEL
      000000D0H   SFRSYM    DATA     BYTE      PSW
      000000A2H   SFRSYM    DATA     BYTE      SFRPRT1SEL
      0000009AH   SFRSYM    DATA     BYTE      SFRPRT2SEL
      000000B2H   SFRSYM    DATA     BYTE      SFRPRT3SEL
      000000C2H   SFRSYM    DATA     BYTE      SFRPRT4SEL

      0100AFF0H   BLOCK     CODE     ---       LVL=0
      0100AFF0H   LINE      CODE     ---       #37
      0100AFF0H   LINE      CODE     ---       #38
      0100AFF0H   LINE      CODE     ---       #39
      0100AFF5H   LINE      CODE     ---       #40
      ---         BLOCKEND  ---      ---       LVL=0
      00000007H   SYMBOL    DATA     BYTE      interruptState
      00000007H   SYMBOL    DATA     BYTE      interruptState
      00000007H   SYMBOL    DATA     BYTE      mask

      ---         MODULE    ---      ---       MOTOR_DIR
      0100AFF6H   PUBLIC    CODE     ---       _MOTOR_DIR_Write

      0100AFF6H   BLOCK     CODE     ---       LVL=0
      00000007H   SYMBOL    DATA     BYTE      control
      0100AFF6H   LINE      CODE     ---       #37
      0100AFF6H   LINE      CODE     ---       #38
      0100AFF6H   LINE      CODE     ---       #39
      0100AFFBH   LINE      CODE     ---       #40
      ---         BLOCKEND  ---      ---       LVL=0

      ---         MODULE    ---      ---       RESET_COUNTERS
      0100AFFCH   PUBLIC    CODE     ---       _RESET_COUNTERS_Write

      0100AFFCH   BLOCK     CODE     ---       LVL=0
      00000007H   SYMBOL    DATA     BYTE      control
      0100AFFCH   LINE      CODE     ---       #37
LX51 LINKER/LOCATER V4.64.0.0                                                         01/11/2017  18:17:27  PAGE 85


      0100AFFCH   LINE      CODE     ---       #38
      0100AFFCH   LINE      CODE     ---       #39
      0100B001H   LINE      CODE     ---       #40
      ---         BLOCKEND  ---      ---       LVL=0

      ---         MODULE    ---      ---       COUNTER_ENC
      02000D77H   PUBLIC    XDATA    BYTE      COUNTER_ENC_initVar
      0100AE50H   PUBLIC    CODE     ---       COUNTER_ENC_ClearFIFO
      0100B020H   PUBLIC    CODE     ---       _COUNTER_ENC_WriteCompare
      0100B01AH   PUBLIC    CODE     ---       _COUNTER_ENC_WritePeriod
      0100B014H   PUBLIC    CODE     ---       COUNTER_ENC_ReadCapture
      0100B00EH   PUBLIC    CODE     ---       _COUNTER_ENC_WriteCounter
      0100B008H   PUBLIC    CODE     ---       COUNTER_ENC_ReadStatusRegister
      0100B002H   PUBLIC    CODE     ---       _COUNTER_ENC_SetInterruptMode
      0100AC33H   PUBLIC    CODE     ---       COUNTER_ENC_Start
      0100AF76H   PUBLIC    CODE     ---       COUNTER_ENC_Enable
      0100A6A9H   PUBLIC    CODE     ---       COUNTER_ENC_Init
      000000CAH   SFRSYM    DATA     BYTE      SFRPRT5SEL
      000000DAH   SFRSYM    DATA     BYTE      SFRPRT6SEL
      000000D0H.6 SFRSYM    DATA     BIT       AC
      000000A8H.7 SFRSYM    DATA     BIT       EA
      000000A8H   SFRSYM    DATA     BYTE      IE
      00000085H   SFRSYM    DATA     BYTE      DPH1
      00000084H   SFRSYM    DATA     BYTE      DPL1
      000000D0H.7 SFRSYM    DATA     BIT       CY
      000000A0H   SFRSYM    DATA     BYTE      P2AX
      00000095H   SFRSYM    DATA     BYTE      DPX1
      00000081H   SFRSYM    DATA     BYTE      SP
      000000D0H.2 SFRSYM    DATA     BIT       OV
      00000080H   SFRSYM    DATA     BYTE      SFRPRT0DR
      00000090H   SFRSYM    DATA     BYTE      SFRPRT1DR
      000000F2H   SFRSYM    DATA     BYTE      SFRPRT12SEL
      00000098H   SFRSYM    DATA     BYTE      SFRPRT2DR
      000000B0H   SFRSYM    DATA     BYTE      SFRPRT3DR
      000000C0H   SFRSYM    DATA     BYTE      SFRPRT4DR
      000000FAH   SFRSYM    DATA     BYTE      SFRPRT15SEL
      000000C8H   SFRSYM    DATA     BYTE      SFRPRT5DR
      000000D8H   SFRSYM    DATA     BYTE      SFRPRT6DR
      00000089H   SFRSYM    DATA     BYTE      SFRPRT0PS
      00000091H   SFRSYM    DATA     BYTE      SFRPRT1PS
      00000099H   SFRSYM    DATA     BYTE      SFRPRT2PS
      000000B1H   SFRSYM    DATA     BYTE      SFRPRT3PS
      000000C1H   SFRSYM    DATA     BYTE      SFRPRT4PS
      000000C9H   SFRSYM    DATA     BYTE      SFRPRT5PS
      000000D9H   SFRSYM    DATA     BYTE      SFRPRT6PS
      000000EAH   SFRSYM    DATA     BYTE      MXAX
      000000F0H   SFRSYM    DATA     BYTE      B
      000000E0H   SFRSYM    DATA     BYTE      ACC
      000000D0H   SFRSYM    DATA     BIT       P
      000000D0H.3 SFRSYM    DATA     BIT       RS0
      000000D0H.4 SFRSYM    DATA     BIT       RS1
      00000083H   SFRSYM    DATA     BYTE      DPH
      000000E8H   SFRSYM    DATA     BYTE      SFRPRT12DR
      00000082H   SFRSYM    DATA     BYTE      DPL
      000000F8H   SFRSYM    DATA     BYTE      SFRPRT15DR
      00000086H   SFRSYM    DATA     BYTE      DPS
      000000E9H   SFRSYM    DATA     BYTE      SFRPRT12PS
      00000093H   SFRSYM    DATA     BYTE      DPX
      000000F9H   SFRSYM    DATA     BYTE      SFRPRT15PS
      000000D0H.5 SFRSYM    DATA     BIT       F0
      000000D0H.1 SFRSYM    DATA     BIT       F1
      0000008AH   SFRSYM    DATA     BYTE      SFRPRT0SEL
      000000D0H   SFRSYM    DATA     BYTE      PSW
      000000A2H   SFRSYM    DATA     BYTE      SFRPRT1SEL
      0000009AH   SFRSYM    DATA     BYTE      SFRPRT2SEL
LX51 LINKER/LOCATER V4.64.0.0                                                         01/11/2017  18:17:27  PAGE 86


      000000B2H   SFRSYM    DATA     BYTE      SFRPRT3SEL
      000000C2H   SFRSYM    DATA     BYTE      SFRPRT4SEL

      0100A6A9H   BLOCK     CODE     ---       LVL=0
      0100A6A9H   BLOCK     CODE     NEAR LAB  LVL=1
      00000007H   SYMBOL    DATA     BYTE      ctrl
      00000007H   SYMBOL    DATA     BYTE      COUNTER_ENC_interruptState
      ---         BLOCKEND  ---      ---       LVL=1
      0100A6A9H   LINE      CODE     ---       #37
      0100A6A9H   LINE      CODE     ---       #38
      0100A6A9H   LINE      CODE     ---       #79
      0100A6B0H   LINE      CODE     ---       #80
      0100A6B1H   LINE      CODE     ---       #83
      0100A6B5H   LINE      CODE     ---       #88
      0100A6B6H   LINE      CODE     ---       #96
      0100A6B9H   LINE      CODE     ---       #100
      0100A6BEH   LINE      CODE     ---       #102
      0100A6C3H   LINE      CODE     ---       #104
      0100A6C8H   LINE      CODE     ---       #108
      0100A6CBH   LINE      CODE     ---       #110
      0100A6D0H   LINE      CODE     ---       #115
      0100A6D3H   LINE      CODE     ---       #117
      0100A6DAH   LINE      CODE     ---       #120
      0100A6DDH   LINE      CODE     ---       #123
      ---         BLOCKEND  ---      ---       LVL=0

      0100AF76H   BLOCK     CODE     ---       LVL=0
      0100AF76H   LINE      CODE     ---       #143
      0100AF76H   LINE      CODE     ---       #144
      0100AF76H   LINE      CODE     ---       #155
      0100AF7DH   LINE      CODE     ---       #158
      ---         BLOCKEND  ---      ---       LVL=0

      0100AC33H   BLOCK     CODE     ---       LVL=0
      0100AC33H   LINE      CODE     ---       #178
      0100AC33H   LINE      CODE     ---       #179
      0100AC33H   LINE      CODE     ---       #180
      0100AC39H   LINE      CODE     ---       #181
      0100AC39H   LINE      CODE     ---       #182
      0100AC3CH   LINE      CODE     ---       #184
      0100AC42H   LINE      CODE     ---       #185
      0100AC42H   LINE      CODE     ---       #188
      0100AC45H   LINE      CODE     ---       #189
      ---         BLOCKEND  ---      ---       LVL=0

      0100B002H   BLOCK     CODE     ---       LVL=0
      00000007H   SYMBOL    DATA     BYTE      interruptsMask
      0100B002H   LINE      CODE     ---       #237
      0100B002H   LINE      CODE     ---       #238
      0100B002H   LINE      CODE     ---       #239
      0100B007H   LINE      CODE     ---       #240
      ---         BLOCKEND  ---      ---       LVL=0

      0100B008H   BLOCK     CODE     ---       LVL=0
      0100B008H   LINE      CODE     ---       #261
      0100B008H   LINE      CODE     ---       #262
      0100B008H   LINE      CODE     ---       #263
      0100B00DH   LINE      CODE     ---       #264
      ---         BLOCKEND  ---      ---       LVL=0
      00000007H   SYMBOL    DATA     BYTE      control

      0100B00EH   BLOCK     CODE     ---       LVL=0
      00000007H   SYMBOL    DATA     BYTE      counter
      0100B00EH   LINE      CODE     ---       #326
      0100B00EH   LINE      CODE     ---       #328
LX51 LINKER/LOCATER V4.64.0.0                                                         01/11/2017  18:17:27  PAGE 87


      0100B00EH   LINE      CODE     ---       #337
      0100B013H   LINE      CODE     ---       #339
      ---         BLOCKEND  ---      ---       LVL=0

      0100B014H   BLOCK     CODE     ---       LVL=0
      0100B014H   LINE      CODE     ---       #390
      0100B014H   LINE      CODE     ---       #391
      0100B014H   LINE      CODE     ---       #395
      0100B019H   LINE      CODE     ---       #397
      ---         BLOCKEND  ---      ---       LVL=0

      0100B01AH   BLOCK     CODE     ---       LVL=0
      00000007H   SYMBOL    DATA     BYTE      period
      0100B01AH   LINE      CODE     ---       #415
      0100B01AH   LINE      CODE     ---       #416
      0100B01AH   LINE      CODE     ---       #420
      0100B01FH   LINE      CODE     ---       #422
      ---         BLOCKEND  ---      ---       LVL=0

      0100B020H   BLOCK     CODE     ---       LVL=0
      00000007H   SYMBOL    DATA     BYTE      compare
      0100B020H   LINE      CODE     ---       #465
      0100B020H   LINE      CODE     ---       #467
      0100B020H   LINE      CODE     ---       #471
      0100B025H   LINE      CODE     ---       #473
      ---         BLOCKEND  ---      ---       LVL=0

      0100AE50H   BLOCK     CODE     ---       LVL=0
      0100AE50H   LINE      CODE     ---       #558
      0100AE50H   LINE      CODE     ---       #559
      0100AE50H   LINE      CODE     ---       #561
      0100AE57H   LINE      CODE     ---       #562
      0100AE57H   LINE      CODE     ---       #563
      0100AE5AH   LINE      CODE     ---       #564
      0100AE5CH   LINE      CODE     ---       #566
      ---         BLOCKEND  ---      ---       LVL=0

      ---         MODULE    ---      ---       SHIFTREG_ENC_1
      02000D78H   PUBLIC    XDATA    BYTE      SHIFTREG_ENC_1_initVar
      0100AF1EH   PUBLIC    CODE     ---       SHIFTREG_ENC_1_ReadData
      0100AD27H   PUBLIC    CODE     ---       _SHIFTREG_ENC_1_SetIntMode
      0100ADD2H   PUBLIC    CODE     ---       SHIFTREG_ENC_1_EnableInt
      0100B026H   PUBLIC    CODE     ---       SHIFTREG_ENC_1_Init
      0100AEBFH   PUBLIC    CODE     ---       SHIFTREG_ENC_1_Enable
      0100AC46H   PUBLIC    CODE     ---       SHIFTREG_ENC_1_Start
      000000CAH   SFRSYM    DATA     BYTE      SFRPRT5SEL
      000000DAH   SFRSYM    DATA     BYTE      SFRPRT6SEL
      000000D0H.6 SFRSYM    DATA     BIT       AC
      000000A8H.7 SFRSYM    DATA     BIT       EA
      000000A8H   SFRSYM    DATA     BYTE      IE
      00000085H   SFRSYM    DATA     BYTE      DPH1
      00000084H   SFRSYM    DATA     BYTE      DPL1
      000000D0H.7 SFRSYM    DATA     BIT       CY
      000000A0H   SFRSYM    DATA     BYTE      P2AX
      00000095H   SFRSYM    DATA     BYTE      DPX1
      00000081H   SFRSYM    DATA     BYTE      SP
      000000D0H.2 SFRSYM    DATA     BIT       OV
      00000080H   SFRSYM    DATA     BYTE      SFRPRT0DR
      00000090H   SFRSYM    DATA     BYTE      SFRPRT1DR
      000000F2H   SFRSYM    DATA     BYTE      SFRPRT12SEL
      00000098H   SFRSYM    DATA     BYTE      SFRPRT2DR
      000000B0H   SFRSYM    DATA     BYTE      SFRPRT3DR
      000000C0H   SFRSYM    DATA     BYTE      SFRPRT4DR
      000000FAH   SFRSYM    DATA     BYTE      SFRPRT15SEL
      000000C8H   SFRSYM    DATA     BYTE      SFRPRT5DR
LX51 LINKER/LOCATER V4.64.0.0                                                         01/11/2017  18:17:27  PAGE 88


      000000D8H   SFRSYM    DATA     BYTE      SFRPRT6DR
      00000089H   SFRSYM    DATA     BYTE      SFRPRT0PS
      00000091H   SFRSYM    DATA     BYTE      SFRPRT1PS
      00000099H   SFRSYM    DATA     BYTE      SFRPRT2PS
      000000B1H   SFRSYM    DATA     BYTE      SFRPRT3PS
      000000C1H   SFRSYM    DATA     BYTE      SFRPRT4PS
      000000C9H   SFRSYM    DATA     BYTE      SFRPRT5PS
      000000D9H   SFRSYM    DATA     BYTE      SFRPRT6PS
      000000EAH   SFRSYM    DATA     BYTE      MXAX
      000000F0H   SFRSYM    DATA     BYTE      B
      000000E0H   SFRSYM    DATA     BYTE      ACC
      000000D0H   SFRSYM    DATA     BIT       P
      000000D0H.3 SFRSYM    DATA     BIT       RS0
      000000D0H.4 SFRSYM    DATA     BIT       RS1
      00000083H   SFRSYM    DATA     BYTE      DPH
      000000E8H   SFRSYM    DATA     BYTE      SFRPRT12DR
      00000082H   SFRSYM    DATA     BYTE      DPL
      000000F8H   SFRSYM    DATA     BYTE      SFRPRT15DR
      00000086H   SFRSYM    DATA     BYTE      DPS
      000000E9H   SFRSYM    DATA     BYTE      SFRPRT12PS
      00000093H   SFRSYM    DATA     BYTE      DPX
      000000F9H   SFRSYM    DATA     BYTE      SFRPRT15PS
      000000D0H.5 SFRSYM    DATA     BIT       F0
      000000D0H.1 SFRSYM    DATA     BIT       F1
      0000008AH   SFRSYM    DATA     BYTE      SFRPRT0SEL
      000000D0H   SFRSYM    DATA     BYTE      PSW
      000000A2H   SFRSYM    DATA     BYTE      SFRPRT1SEL
      0000009AH   SFRSYM    DATA     BYTE      SFRPRT2SEL
      000000B2H   SFRSYM    DATA     BYTE      SFRPRT3SEL
      000000C2H   SFRSYM    DATA     BYTE      SFRPRT4SEL

      0100AC46H   BLOCK     CODE     ---       LVL=0
      0100AC46H   LINE      CODE     ---       #43
      0100AC46H   LINE      CODE     ---       #44
      0100AC46H   LINE      CODE     ---       #45
      0100AC4CH   LINE      CODE     ---       #46
      0100AC4CH   LINE      CODE     ---       #47
      0100AC4FH   LINE      CODE     ---       #48
      0100AC55H   LINE      CODE     ---       #49
      0100AC55H   LINE      CODE     ---       #51
      0100AC58H   LINE      CODE     ---       #52
      ---         BLOCKEND  ---      ---       LVL=0

      0100AEBFH   BLOCK     CODE     ---       LVL=0
      0100AEBFH   LINE      CODE     ---       #69
      0100AEBFH   LINE      CODE     ---       #70
      0100AEBFH   LINE      CODE     ---       #73
      0100AEC6H   LINE      CODE     ---       #75
      0100AEC9H   LINE      CODE     ---       #76
      ---         BLOCKEND  ---      ---       LVL=0

      0100B026H   BLOCK     CODE     ---       LVL=0
      0100B026H   LINE      CODE     ---       #93
      0100B026H   LINE      CODE     ---       #94
      0100B026H   LINE      CODE     ---       #95
      0100B02BH   LINE      CODE     ---       #96
      ---         BLOCKEND  ---      ---       LVL=0

      0100ADD2H   BLOCK     CODE     ---       LVL=0
      0100ADD2H   BLOCK     CODE     NEAR LAB  LVL=1
      00000007H   SYMBOL    DATA     BYTE      interruptState
      ---         BLOCKEND  ---      ---       LVL=1
      0100ADD2H   LINE      CODE     ---       #135
      0100ADD2H   LINE      CODE     ---       #136
      0100ADD2H   LINE      CODE     ---       #139
LX51 LINKER/LOCATER V4.64.0.0                                                         01/11/2017  18:17:27  PAGE 89


      0100ADD5H   LINE      CODE     ---       #140
      0100ADDCH   LINE      CODE     ---       #141
      0100ADDFH   LINE      CODE     ---       #142
      ---         BLOCKEND  ---      ---       LVL=0
      00000007H   SYMBOL    DATA     BYTE      interruptState
      00000007H   SYMBOL    DATA     BYTE      fifoId
      00000005H   SYMBOL    DATA     BYTE      result

      0100AD27H   BLOCK     CODE     ---       LVL=0
      00000007H   SYMBOL    DATA     BYTE      interruptSource
      0100AD27H   LINE      CODE     ---       #261
      0100AD27H   LINE      CODE     ---       #262
      0100AD27H   LINE      CODE     ---       #263
      0100AD2EH   LINE      CODE     ---       #264
      0100AD37H   LINE      CODE     ---       #265
      ---         BLOCKEND  ---      ---       LVL=0
      00000004H   SYMBOL    DATA     DWORD     shiftData

      0100AF1EH   BLOCK     CODE     ---       LVL=0
      0100AF1EH   LINE      CODE     ---       #366
      0100AF1EH   LINE      CODE     ---       #367
      0100AF1EH   LINE      CODE     ---       #368
      0100AF27H   LINE      CODE     ---       #369
      ---         BLOCKEND  ---      ---       LVL=0

      ---         MODULE    ---      ---       SHIFTREG_ENC_2
      02000D79H   PUBLIC    XDATA    BYTE      SHIFTREG_ENC_2_initVar
      0100AF28H   PUBLIC    CODE     ---       SHIFTREG_ENC_2_ReadData
      0100AD38H   PUBLIC    CODE     ---       _SHIFTREG_ENC_2_SetIntMode
      0100ADE0H   PUBLIC    CODE     ---       SHIFTREG_ENC_2_EnableInt
      0100B02CH   PUBLIC    CODE     ---       SHIFTREG_ENC_2_Init
      0100AECAH   PUBLIC    CODE     ---       SHIFTREG_ENC_2_Enable
      0100AC59H   PUBLIC    CODE     ---       SHIFTREG_ENC_2_Start
      000000CAH   SFRSYM    DATA     BYTE      SFRPRT5SEL
      000000DAH   SFRSYM    DATA     BYTE      SFRPRT6SEL
      000000D0H.6 SFRSYM    DATA     BIT       AC
      000000A8H.7 SFRSYM    DATA     BIT       EA
      000000A8H   SFRSYM    DATA     BYTE      IE
      00000085H   SFRSYM    DATA     BYTE      DPH1
      00000084H   SFRSYM    DATA     BYTE      DPL1
      000000D0H.7 SFRSYM    DATA     BIT       CY
      000000A0H   SFRSYM    DATA     BYTE      P2AX
      00000095H   SFRSYM    DATA     BYTE      DPX1
      00000081H   SFRSYM    DATA     BYTE      SP
      000000D0H.2 SFRSYM    DATA     BIT       OV
      00000080H   SFRSYM    DATA     BYTE      SFRPRT0DR
      00000090H   SFRSYM    DATA     BYTE      SFRPRT1DR
      000000F2H   SFRSYM    DATA     BYTE      SFRPRT12SEL
      00000098H   SFRSYM    DATA     BYTE      SFRPRT2DR
      000000B0H   SFRSYM    DATA     BYTE      SFRPRT3DR
      000000C0H   SFRSYM    DATA     BYTE      SFRPRT4DR
      000000FAH   SFRSYM    DATA     BYTE      SFRPRT15SEL
      000000C8H   SFRSYM    DATA     BYTE      SFRPRT5DR
      000000D8H   SFRSYM    DATA     BYTE      SFRPRT6DR
      00000089H   SFRSYM    DATA     BYTE      SFRPRT0PS
      00000091H   SFRSYM    DATA     BYTE      SFRPRT1PS
      00000099H   SFRSYM    DATA     BYTE      SFRPRT2PS
      000000B1H   SFRSYM    DATA     BYTE      SFRPRT3PS
      000000C1H   SFRSYM    DATA     BYTE      SFRPRT4PS
      000000C9H   SFRSYM    DATA     BYTE      SFRPRT5PS
      000000D9H   SFRSYM    DATA     BYTE      SFRPRT6PS
      000000EAH   SFRSYM    DATA     BYTE      MXAX
      000000F0H   SFRSYM    DATA     BYTE      B
      000000E0H   SFRSYM    DATA     BYTE      ACC
      000000D0H   SFRSYM    DATA     BIT       P
LX51 LINKER/LOCATER V4.64.0.0                                                         01/11/2017  18:17:27  PAGE 90


      000000D0H.3 SFRSYM    DATA     BIT       RS0
      000000D0H.4 SFRSYM    DATA     BIT       RS1
      00000083H   SFRSYM    DATA     BYTE      DPH
      000000E8H   SFRSYM    DATA     BYTE      SFRPRT12DR
      00000082H   SFRSYM    DATA     BYTE      DPL
      000000F8H   SFRSYM    DATA     BYTE      SFRPRT15DR
      00000086H   SFRSYM    DATA     BYTE      DPS
      000000E9H   SFRSYM    DATA     BYTE      SFRPRT12PS
      00000093H   SFRSYM    DATA     BYTE      DPX
      000000F9H   SFRSYM    DATA     BYTE      SFRPRT15PS
      000000D0H.5 SFRSYM    DATA     BIT       F0
      000000D0H.1 SFRSYM    DATA     BIT       F1
      0000008AH   SFRSYM    DATA     BYTE      SFRPRT0SEL
      000000D0H   SFRSYM    DATA     BYTE      PSW
      000000A2H   SFRSYM    DATA     BYTE      SFRPRT1SEL
      0000009AH   SFRSYM    DATA     BYTE      SFRPRT2SEL
      000000B2H   SFRSYM    DATA     BYTE      SFRPRT3SEL
      000000C2H   SFRSYM    DATA     BYTE      SFRPRT4SEL

      0100AC59H   BLOCK     CODE     ---       LVL=0
      0100AC59H   LINE      CODE     ---       #43
      0100AC59H   LINE      CODE     ---       #44
      0100AC59H   LINE      CODE     ---       #45
      0100AC5FH   LINE      CODE     ---       #46
      0100AC5FH   LINE      CODE     ---       #47
      0100AC62H   LINE      CODE     ---       #48
      0100AC68H   LINE      CODE     ---       #49
      0100AC68H   LINE      CODE     ---       #51
      0100AC6BH   LINE      CODE     ---       #52
      ---         BLOCKEND  ---      ---       LVL=0

      0100AECAH   BLOCK     CODE     ---       LVL=0
      0100AECAH   LINE      CODE     ---       #69
      0100AECAH   LINE      CODE     ---       #70
      0100AECAH   LINE      CODE     ---       #73
      0100AED1H   LINE      CODE     ---       #75
      0100AED4H   LINE      CODE     ---       #76
      ---         BLOCKEND  ---      ---       LVL=0

      0100B02CH   BLOCK     CODE     ---       LVL=0
      0100B02CH   LINE      CODE     ---       #93
      0100B02CH   LINE      CODE     ---       #94
      0100B02CH   LINE      CODE     ---       #95
      0100B031H   LINE      CODE     ---       #96
      ---         BLOCKEND  ---      ---       LVL=0

      0100ADE0H   BLOCK     CODE     ---       LVL=0
      0100ADE0H   BLOCK     CODE     NEAR LAB  LVL=1
      00000007H   SYMBOL    DATA     BYTE      interruptState
      ---         BLOCKEND  ---      ---       LVL=1
      0100ADE0H   LINE      CODE     ---       #135
      0100ADE0H   LINE      CODE     ---       #136
      0100ADE0H   LINE      CODE     ---       #139
      0100ADE3H   LINE      CODE     ---       #140
      0100ADEAH   LINE      CODE     ---       #141
      0100ADEDH   LINE      CODE     ---       #142
      ---         BLOCKEND  ---      ---       LVL=0
      00000007H   SYMBOL    DATA     BYTE      interruptState
      00000007H   SYMBOL    DATA     BYTE      fifoId
      00000005H   SYMBOL    DATA     BYTE      result

      0100AD38H   BLOCK     CODE     ---       LVL=0
      00000007H   SYMBOL    DATA     BYTE      interruptSource
      0100AD38H   LINE      CODE     ---       #261
      0100AD38H   LINE      CODE     ---       #262
LX51 LINKER/LOCATER V4.64.0.0                                                         01/11/2017  18:17:27  PAGE 91


      0100AD38H   LINE      CODE     ---       #263
      0100AD3FH   LINE      CODE     ---       #264
      0100AD48H   LINE      CODE     ---       #265
      ---         BLOCKEND  ---      ---       LVL=0
      00000004H   SYMBOL    DATA     DWORD     shiftData

      0100AF28H   BLOCK     CODE     ---       LVL=0
      0100AF28H   LINE      CODE     ---       #366
      0100AF28H   LINE      CODE     ---       #367
      0100AF28H   LINE      CODE     ---       #368
      0100AF31H   LINE      CODE     ---       #369
      ---         BLOCKEND  ---      ---       LVL=0

      ---         MODULE    ---      ---       RESET_FF
      0100B032H   PUBLIC    CODE     ---       _RESET_FF_Write

      0100B032H   BLOCK     CODE     ---       LVL=0
      00000007H   SYMBOL    DATA     BYTE      control
      0100B032H   LINE      CODE     ---       #37
      0100B032H   LINE      CODE     ---       #38
      0100B032H   LINE      CODE     ---       #39
      0100B037H   LINE      CODE     ---       #40
      ---         BLOCKEND  ---      ---       LVL=0

      ---         MODULE    ---      ---       PACER_TIMER
      02000D7AH   PUBLIC    XDATA    BYTE      PACER_TIMER_initVar
      0100ADFCH   PUBLIC    CODE     ---       _PACER_TIMER_WriteCounter
      0100ADEEH   PUBLIC    CODE     ---       _PACER_TIMER_WritePeriod
      0100B038H   PUBLIC    CODE     ---       _PACER_TIMER_SetInterruptMode
      0100AC6CH   PUBLIC    CODE     ---       PACER_TIMER_Start
      0100AB66H   PUBLIC    CODE     ---       PACER_TIMER_Enable
      0100A546H   PUBLIC    CODE     ---       PACER_TIMER_Init
      000000CAH   SFRSYM    DATA     BYTE      SFRPRT5SEL
      000000DAH   SFRSYM    DATA     BYTE      SFRPRT6SEL
      000000D0H.6 SFRSYM    DATA     BIT       AC
      000000A8H.7 SFRSYM    DATA     BIT       EA
      000000A8H   SFRSYM    DATA     BYTE      IE
      00000085H   SFRSYM    DATA     BYTE      DPH1
      00000084H   SFRSYM    DATA     BYTE      DPL1
      000000D0H.7 SFRSYM    DATA     BIT       CY
      000000A0H   SFRSYM    DATA     BYTE      P2AX
      00000095H   SFRSYM    DATA     BYTE      DPX1
      00000081H   SFRSYM    DATA     BYTE      SP
      000000D0H.2 SFRSYM    DATA     BIT       OV
      00000080H   SFRSYM    DATA     BYTE      SFRPRT0DR
      00000090H   SFRSYM    DATA     BYTE      SFRPRT1DR
      000000F2H   SFRSYM    DATA     BYTE      SFRPRT12SEL
      00000098H   SFRSYM    DATA     BYTE      SFRPRT2DR
      000000B0H   SFRSYM    DATA     BYTE      SFRPRT3DR
      000000C0H   SFRSYM    DATA     BYTE      SFRPRT4DR
      000000FAH   SFRSYM    DATA     BYTE      SFRPRT15SEL
      000000C8H   SFRSYM    DATA     BYTE      SFRPRT5DR
      000000D8H   SFRSYM    DATA     BYTE      SFRPRT6DR
      00000089H   SFRSYM    DATA     BYTE      SFRPRT0PS
      00000091H   SFRSYM    DATA     BYTE      SFRPRT1PS
      00000099H   SFRSYM    DATA     BYTE      SFRPRT2PS
      000000B1H   SFRSYM    DATA     BYTE      SFRPRT3PS
      000000C1H   SFRSYM    DATA     BYTE      SFRPRT4PS
      000000C9H   SFRSYM    DATA     BYTE      SFRPRT5PS
      000000D9H   SFRSYM    DATA     BYTE      SFRPRT6PS
      000000EAH   SFRSYM    DATA     BYTE      MXAX
      000000F0H   SFRSYM    DATA     BYTE      B
      000000E0H   SFRSYM    DATA     BYTE      ACC
      000000D0H   SFRSYM    DATA     BIT       P
      000000D0H.3 SFRSYM    DATA     BIT       RS0
LX51 LINKER/LOCATER V4.64.0.0                                                         01/11/2017  18:17:27  PAGE 92


      000000D0H.4 SFRSYM    DATA     BIT       RS1
      00000083H   SFRSYM    DATA     BYTE      DPH
      000000E8H   SFRSYM    DATA     BYTE      SFRPRT12DR
      00000082H   SFRSYM    DATA     BYTE      DPL
      000000F8H   SFRSYM    DATA     BYTE      SFRPRT15DR
      00000086H   SFRSYM    DATA     BYTE      DPS
      000000E9H   SFRSYM    DATA     BYTE      SFRPRT12PS
      00000093H   SFRSYM    DATA     BYTE      DPX
      000000F9H   SFRSYM    DATA     BYTE      SFRPRT15PS
      000000D0H.5 SFRSYM    DATA     BIT       F0
      000000D0H.1 SFRSYM    DATA     BIT       F1
      0000008AH   SFRSYM    DATA     BYTE      SFRPRT0SEL
      000000D0H   SFRSYM    DATA     BYTE      PSW
      000000A2H   SFRSYM    DATA     BYTE      SFRPRT1SEL
      0000009AH   SFRSYM    DATA     BYTE      SFRPRT2SEL
      000000B2H   SFRSYM    DATA     BYTE      SFRPRT3SEL
      000000C2H   SFRSYM    DATA     BYTE      SFRPRT4SEL

      0100A546H   BLOCK     CODE     ---       LVL=0
      0100A546H   LINE      CODE     ---       #43
      0100A546H   LINE      CODE     ---       #44
      0100A546H   LINE      CODE     ---       #52
      0100A54DH   LINE      CODE     ---       #60
      0100A554H   LINE      CODE     ---       #106
      0100A55BH   LINE      CODE     ---       #107
      0100A55FH   LINE      CODE     ---       #110
      0100A563H   LINE      CODE     ---       #111
      0100A567H   LINE      CODE     ---       #114
      0100A56EH   LINE      CODE     ---       #118
      0100A575H   LINE      CODE     ---       #119
      0100A57CH   LINE      CODE     ---       #162
      0100A581H   LINE      CODE     ---       #163
      ---         BLOCKEND  ---      ---       LVL=0

      0100AB66H   BLOCK     CODE     ---       LVL=0
      0100AB66H   LINE      CODE     ---       #180
      0100AB66H   LINE      CODE     ---       #181
      0100AB66H   LINE      CODE     ---       #184
      0100AB6DH   LINE      CODE     ---       #185
      0100AB74H   LINE      CODE     ---       #190
      0100AB7BH   LINE      CODE     ---       #192
      ---         BLOCKEND  ---      ---       LVL=0

      0100AC6CH   BLOCK     CODE     ---       LVL=0
      0100AC6CH   LINE      CODE     ---       #215
      0100AC6CH   LINE      CODE     ---       #216
      0100AC6CH   LINE      CODE     ---       #217
      0100AC72H   LINE      CODE     ---       #218
      0100AC72H   LINE      CODE     ---       #219
      0100AC75H   LINE      CODE     ---       #221
      0100AC7BH   LINE      CODE     ---       #222
      0100AC7BH   LINE      CODE     ---       #225
      0100AC7EH   LINE      CODE     ---       #226
      ---         BLOCKEND  ---      ---       LVL=0

      0100B038H   BLOCK     CODE     ---       LVL=0
      00000007H   SYMBOL    DATA     BYTE      interruptMode
      0100B038H   LINE      CODE     ---       #279
      0100B038H   LINE      CODE     ---       #280
      0100B038H   LINE      CODE     ---       #281
      0100B03DH   LINE      CODE     ---       #282
      ---         BLOCKEND  ---      ---       LVL=0
      00000007H   SYMBOL    DATA     BYTE      control

      0100ADEEH   BLOCK     CODE     ---       LVL=0
LX51 LINKER/LOCATER V4.64.0.0                                                         01/11/2017  18:17:27  PAGE 93


      00000006H   SYMBOL    DATA     WORD      period
      0100ADEEH   BLOCK     CODE     NEAR LAB  LVL=1
      00000006H   SYMBOL    DATA     WORD      period_temp
      ---         BLOCKEND  ---      ---       LVL=1
      0100ADEEH   LINE      CODE     ---       #431
      0100ADEEH   LINE      CODE     ---       #432
      0100ADEEH   LINE      CODE     ---       #434
      0100ADEEH   LINE      CODE     ---       #435
      0100ADFBH   LINE      CODE     ---       #439
      ---         BLOCKEND  ---      ---       LVL=0

      0100ADFCH   BLOCK     CODE     ---       LVL=0
      00000006H   SYMBOL    DATA     WORD      counter
      0100ADFCH   LINE      CODE     ---       #480
      0100ADFCH   LINE      CODE     ---       #481
      0100ADFCH   LINE      CODE     ---       #486
      0100AE09H   LINE      CODE     ---       #491
      ---         BLOCKEND  ---      ---       LVL=0

      ---         MODULE    ---      ---       MY_TIMER
      02000D7BH   PUBLIC    XDATA    BYTE      MY_TIMER_initVar
      0100AC92H   PUBLIC    CODE     ---       MY_TIMER_ReadCounter
      0100AE18H   PUBLIC    CODE     ---       _MY_TIMER_WriteCounter
      0100AE0AH   PUBLIC    CODE     ---       _MY_TIMER_WritePeriod
      0100B03EH   PUBLIC    CODE     ---       _MY_TIMER_SetInterruptMode
      0100AC7FH   PUBLIC    CODE     ---       MY_TIMER_Start
      0100AB7CH   PUBLIC    CODE     ---       MY_TIMER_Enable
      0100A582H   PUBLIC    CODE     ---       MY_TIMER_Init
      000000CAH   SFRSYM    DATA     BYTE      SFRPRT5SEL
      000000DAH   SFRSYM    DATA     BYTE      SFRPRT6SEL
      000000D0H.6 SFRSYM    DATA     BIT       AC
      000000A8H.7 SFRSYM    DATA     BIT       EA
      000000A8H   SFRSYM    DATA     BYTE      IE
      00000085H   SFRSYM    DATA     BYTE      DPH1
      00000084H   SFRSYM    DATA     BYTE      DPL1
      000000D0H.7 SFRSYM    DATA     BIT       CY
      000000A0H   SFRSYM    DATA     BYTE      P2AX
      00000095H   SFRSYM    DATA     BYTE      DPX1
      00000081H   SFRSYM    DATA     BYTE      SP
      000000D0H.2 SFRSYM    DATA     BIT       OV
      00000080H   SFRSYM    DATA     BYTE      SFRPRT0DR
      00000090H   SFRSYM    DATA     BYTE      SFRPRT1DR
      000000F2H   SFRSYM    DATA     BYTE      SFRPRT12SEL
      00000098H   SFRSYM    DATA     BYTE      SFRPRT2DR
      000000B0H   SFRSYM    DATA     BYTE      SFRPRT3DR
      000000C0H   SFRSYM    DATA     BYTE      SFRPRT4DR
      000000FAH   SFRSYM    DATA     BYTE      SFRPRT15SEL
      000000C8H   SFRSYM    DATA     BYTE      SFRPRT5DR
      000000D8H   SFRSYM    DATA     BYTE      SFRPRT6DR
      00000089H   SFRSYM    DATA     BYTE      SFRPRT0PS
      00000091H   SFRSYM    DATA     BYTE      SFRPRT1PS
      00000099H   SFRSYM    DATA     BYTE      SFRPRT2PS
      000000B1H   SFRSYM    DATA     BYTE      SFRPRT3PS
      000000C1H   SFRSYM    DATA     BYTE      SFRPRT4PS
      000000C9H   SFRSYM    DATA     BYTE      SFRPRT5PS
      000000D9H   SFRSYM    DATA     BYTE      SFRPRT6PS
      000000EAH   SFRSYM    DATA     BYTE      MXAX
      000000F0H   SFRSYM    DATA     BYTE      B
      000000E0H   SFRSYM    DATA     BYTE      ACC
      000000D0H   SFRSYM    DATA     BIT       P
      000000D0H.3 SFRSYM    DATA     BIT       RS0
      000000D0H.4 SFRSYM    DATA     BIT       RS1
      00000083H   SFRSYM    DATA     BYTE      DPH
      000000E8H   SFRSYM    DATA     BYTE      SFRPRT12DR
      00000082H   SFRSYM    DATA     BYTE      DPL
LX51 LINKER/LOCATER V4.64.0.0                                                         01/11/2017  18:17:27  PAGE 94


      000000F8H   SFRSYM    DATA     BYTE      SFRPRT15DR
      00000086H   SFRSYM    DATA     BYTE      DPS
      000000E9H   SFRSYM    DATA     BYTE      SFRPRT12PS
      00000093H   SFRSYM    DATA     BYTE      DPX
      000000F9H   SFRSYM    DATA     BYTE      SFRPRT15PS
      000000D0H.5 SFRSYM    DATA     BIT       F0
      000000D0H.1 SFRSYM    DATA     BIT       F1
      0000008AH   SFRSYM    DATA     BYTE      SFRPRT0SEL
      000000D0H   SFRSYM    DATA     BYTE      PSW
      000000A2H   SFRSYM    DATA     BYTE      SFRPRT1SEL
      0000009AH   SFRSYM    DATA     BYTE      SFRPRT2SEL
      000000B2H   SFRSYM    DATA     BYTE      SFRPRT3SEL
      000000C2H   SFRSYM    DATA     BYTE      SFRPRT4SEL

      0100A582H   BLOCK     CODE     ---       LVL=0
      0100A582H   LINE      CODE     ---       #43
      0100A582H   LINE      CODE     ---       #44
      0100A582H   LINE      CODE     ---       #52
      0100A589H   LINE      CODE     ---       #60
      0100A590H   LINE      CODE     ---       #106
      0100A597H   LINE      CODE     ---       #107
      0100A59BH   LINE      CODE     ---       #110
      0100A59FH   LINE      CODE     ---       #111
      0100A5A3H   LINE      CODE     ---       #114
      0100A5AAH   LINE      CODE     ---       #118
      0100A5B1H   LINE      CODE     ---       #119
      0100A5B8H   LINE      CODE     ---       #162
      0100A5BDH   LINE      CODE     ---       #163
      ---         BLOCKEND  ---      ---       LVL=0

      0100AB7CH   BLOCK     CODE     ---       LVL=0
      0100AB7CH   LINE      CODE     ---       #180
      0100AB7CH   LINE      CODE     ---       #181
      0100AB7CH   LINE      CODE     ---       #184
      0100AB83H   LINE      CODE     ---       #185
      0100AB8AH   LINE      CODE     ---       #190
      0100AB91H   LINE      CODE     ---       #192
      ---         BLOCKEND  ---      ---       LVL=0

      0100AC7FH   BLOCK     CODE     ---       LVL=0
      0100AC7FH   LINE      CODE     ---       #215
      0100AC7FH   LINE      CODE     ---       #216
      0100AC7FH   LINE      CODE     ---       #217
      0100AC85H   LINE      CODE     ---       #218
      0100AC85H   LINE      CODE     ---       #219
      0100AC88H   LINE      CODE     ---       #221
      0100AC8EH   LINE      CODE     ---       #222
      0100AC8EH   LINE      CODE     ---       #225
      0100AC91H   LINE      CODE     ---       #226
      ---         BLOCKEND  ---      ---       LVL=0

      0100B03EH   BLOCK     CODE     ---       LVL=0
      00000007H   SYMBOL    DATA     BYTE      interruptMode
      0100B03EH   LINE      CODE     ---       #279
      0100B03EH   LINE      CODE     ---       #280
      0100B03EH   LINE      CODE     ---       #281
      0100B043H   LINE      CODE     ---       #282
      ---         BLOCKEND  ---      ---       LVL=0
      00000007H   SYMBOL    DATA     BYTE      control

      0100AE0AH   BLOCK     CODE     ---       LVL=0
      00000006H   SYMBOL    DATA     WORD      period
      0100AE0AH   BLOCK     CODE     NEAR LAB  LVL=1
      00000006H   SYMBOL    DATA     WORD      period_temp
      ---         BLOCKEND  ---      ---       LVL=1
LX51 LINKER/LOCATER V4.64.0.0                                                         01/11/2017  18:17:27  PAGE 95


      0100AE0AH   LINE      CODE     ---       #431
      0100AE0AH   LINE      CODE     ---       #432
      0100AE0AH   LINE      CODE     ---       #434
      0100AE0AH   LINE      CODE     ---       #435
      0100AE17H   LINE      CODE     ---       #439
      ---         BLOCKEND  ---      ---       LVL=0

      0100AE18H   BLOCK     CODE     ---       LVL=0
      00000006H   SYMBOL    DATA     WORD      counter
      0100AE18H   LINE      CODE     ---       #480
      0100AE18H   LINE      CODE     ---       #481
      0100AE18H   LINE      CODE     ---       #486
      0100AE25H   LINE      CODE     ---       #491
      ---         BLOCKEND  ---      ---       LVL=0

      0100AC92H   BLOCK     CODE     ---       LVL=0
      0100AC92H   LINE      CODE     ---       #508
      0100AC92H   LINE      CODE     ---       #509
      0100AC92H   LINE      CODE     ---       #514
      0100AC9BH   LINE      CODE     ---       #521
      0100ACA4H   LINE      CODE     ---       #525
      ---         BLOCKEND  ---      ---       LVL=0

      ---         MODULE    ---      ---       BOOTLOADABLE
      0100AF32H   PUBLIC    CODE     ---       Bootloadable_Load
      000000CAH   SFRSYM    DATA     BYTE      SFRPRT5SEL
      000000DAH   SFRSYM    DATA     BYTE      SFRPRT6SEL
      000000D0H.6 SFRSYM    DATA     BIT       AC
      000000A8H.7 SFRSYM    DATA     BIT       EA
      000000A8H   SFRSYM    DATA     BYTE      IE
      00000085H   SFRSYM    DATA     BYTE      DPH1
      00000084H   SFRSYM    DATA     BYTE      DPL1
      000000D0H.7 SFRSYM    DATA     BIT       CY
      000000A0H   SFRSYM    DATA     BYTE      P2AX
      00000095H   SFRSYM    DATA     BYTE      DPX1
      00000081H   SFRSYM    DATA     BYTE      SP
      000000D0H.2 SFRSYM    DATA     BIT       OV
      00000080H   SFRSYM    DATA     BYTE      SFRPRT0DR
      00000090H   SFRSYM    DATA     BYTE      SFRPRT1DR
      000000F2H   SFRSYM    DATA     BYTE      SFRPRT12SEL
      00000098H   SFRSYM    DATA     BYTE      SFRPRT2DR
      000000B0H   SFRSYM    DATA     BYTE      SFRPRT3DR
      000000C0H   SFRSYM    DATA     BYTE      SFRPRT4DR
      000000FAH   SFRSYM    DATA     BYTE      SFRPRT15SEL
      000000C8H   SFRSYM    DATA     BYTE      SFRPRT5DR
      000000D8H   SFRSYM    DATA     BYTE      SFRPRT6DR
      00000089H   SFRSYM    DATA     BYTE      SFRPRT0PS
      00000091H   SFRSYM    DATA     BYTE      SFRPRT1PS
      00000099H   SFRSYM    DATA     BYTE      SFRPRT2PS
      000000B1H   SFRSYM    DATA     BYTE      SFRPRT3PS
      000000C1H   SFRSYM    DATA     BYTE      SFRPRT4PS
      000000C9H   SFRSYM    DATA     BYTE      SFRPRT5PS
      000000D9H   SFRSYM    DATA     BYTE      SFRPRT6PS
      000000EAH   SFRSYM    DATA     BYTE      MXAX
      000000F0H   SFRSYM    DATA     BYTE      B
      000000E0H   SFRSYM    DATA     BYTE      ACC
      000000D0H   SFRSYM    DATA     BIT       P
      000000D0H.3 SFRSYM    DATA     BIT       RS0
      000000D0H.4 SFRSYM    DATA     BIT       RS1
      00000083H   SFRSYM    DATA     BYTE      DPH
      000000E8H   SFRSYM    DATA     BYTE      SFRPRT12DR
      00000082H   SFRSYM    DATA     BYTE      DPL
      000000F8H   SFRSYM    DATA     BYTE      SFRPRT15DR
      00000086H   SFRSYM    DATA     BYTE      DPS
      000000E9H   SFRSYM    DATA     BYTE      SFRPRT12PS
LX51 LINKER/LOCATER V4.64.0.0                                                         01/11/2017  18:17:27  PAGE 96


      00000093H   SFRSYM    DATA     BYTE      DPX
      000000F9H   SFRSYM    DATA     BYTE      SFRPRT15PS
      000000D0H.5 SFRSYM    DATA     BIT       F0
      000000D0H.1 SFRSYM    DATA     BIT       F1
      0000008AH   SFRSYM    DATA     BYTE      SFRPRT0SEL
      000000D0H   SFRSYM    DATA     BYTE      PSW
      000000A2H   SFRSYM    DATA     BYTE      SFRPRT1SEL
      0000009AH   SFRSYM    DATA     BYTE      SFRPRT2SEL
      000000B2H   SFRSYM    DATA     BYTE      SFRPRT3SEL
      000000C2H   SFRSYM    DATA     BYTE      SFRPRT4SEL

      0100AF32H   BLOCK     CODE     ---       LVL=0
      0100AF32H   LINE      CODE     ---       #41
      0100AF32H   LINE      CODE     ---       #42
      0100AF32H   LINE      CODE     ---       #44
      0100AF38H   LINE      CODE     ---       #46
      0100AF3BH   LINE      CODE     ---       #47
      ---         BLOCKEND  ---      ---       LVL=0
      00000002H   SYMBOL    DATA     WORD      idx

      ---         MODULE    ---      ---       MOTOR_ON_OFF
      0100B044H   PUBLIC    CODE     ---       _MOTOR_ON_OFF_Write

      0100B044H   BLOCK     CODE     ---       LVL=0
      00000007H   SYMBOL    DATA     BYTE      control
      0100B044H   LINE      CODE     ---       #37
      0100B044H   LINE      CODE     ---       #38
      0100B044H   LINE      CODE     ---       #39
      0100B049H   LINE      CODE     ---       #40
      ---         BLOCKEND  ---      ---       LVL=0

      ---         MODULE    ---      ---       FTDI_ENABLE_REG
      0100B04AH   PUBLIC    CODE     ---       _FTDI_ENABLE_REG_Write

      0100B04AH   BLOCK     CODE     ---       LVL=0
      00000007H   SYMBOL    DATA     BYTE      control
      0100B04AH   LINE      CODE     ---       #37
      0100B04AH   LINE      CODE     ---       #38
      0100B04AH   LINE      CODE     ---       #39
      0100B04FH   LINE      CODE     ---       #40
      ---         BLOCKEND  ---      ---       LVL=0

      ---         MODULE    ---      ---       RS485_CTS
      0100B050H   PUBLIC    CODE     ---       _RS485_CTS_Write

      0100B050H   BLOCK     CODE     ---       LVL=0
      00000007H   SYMBOL    DATA     BYTE      control
      0100B050H   LINE      CODE     ---       #37
      0100B050H   LINE      CODE     ---       #38
      0100B050H   LINE      CODE     ---       #39
      0100B055H   LINE      CODE     ---       #40
      ---         BLOCKEND  ---      ---       LVL=0

      ---         MODULE    ---      ---       EEPROM
      0100936AH   PUBLIC    CODE     ---       _EEPROM_Write
      0100B084H   PUBLIC    CODE     ---       EEPROM_UpdateTemperature
      0100B080H   PUBLIC    CODE     ---       EEPROM_Start
      0100AFB9H   PUBLIC    CODE     ---       EEPROM_Enable
      000000CAH   SFRSYM    DATA     BYTE      SFRPRT5SEL
      000000DAH   SFRSYM    DATA     BYTE      SFRPRT6SEL
      000000D0H.6 SFRSYM    DATA     BIT       AC
      000000A8H.7 SFRSYM    DATA     BIT       EA
      000000A8H   SFRSYM    DATA     BYTE      IE
      00000085H   SFRSYM    DATA     BYTE      DPH1
      00000084H   SFRSYM    DATA     BYTE      DPL1
LX51 LINKER/LOCATER V4.64.0.0                                                         01/11/2017  18:17:27  PAGE 97


      000000D0H.7 SFRSYM    DATA     BIT       CY
      000000A0H   SFRSYM    DATA     BYTE      P2AX
      00000095H   SFRSYM    DATA     BYTE      DPX1
      00000081H   SFRSYM    DATA     BYTE      SP
      000000D0H.2 SFRSYM    DATA     BIT       OV
      00000080H   SFRSYM    DATA     BYTE      SFRPRT0DR
      00000090H   SFRSYM    DATA     BYTE      SFRPRT1DR
      000000F2H   SFRSYM    DATA     BYTE      SFRPRT12SEL
      00000098H   SFRSYM    DATA     BYTE      SFRPRT2DR
      000000B0H   SFRSYM    DATA     BYTE      SFRPRT3DR
      000000C0H   SFRSYM    DATA     BYTE      SFRPRT4DR
      000000FAH   SFRSYM    DATA     BYTE      SFRPRT15SEL
      000000C8H   SFRSYM    DATA     BYTE      SFRPRT5DR
      000000D8H   SFRSYM    DATA     BYTE      SFRPRT6DR
      00000089H   SFRSYM    DATA     BYTE      SFRPRT0PS
      00000091H   SFRSYM    DATA     BYTE      SFRPRT1PS
      00000099H   SFRSYM    DATA     BYTE      SFRPRT2PS
      000000B1H   SFRSYM    DATA     BYTE      SFRPRT3PS
      000000C1H   SFRSYM    DATA     BYTE      SFRPRT4PS
      000000C9H   SFRSYM    DATA     BYTE      SFRPRT5PS
      000000D9H   SFRSYM    DATA     BYTE      SFRPRT6PS
      000000EAH   SFRSYM    DATA     BYTE      MXAX
      000000F0H   SFRSYM    DATA     BYTE      B
      000000E0H   SFRSYM    DATA     BYTE      ACC
      000000D0H   SFRSYM    DATA     BIT       P
      000000D0H.3 SFRSYM    DATA     BIT       RS0
      000000D0H.4 SFRSYM    DATA     BIT       RS1
      00000083H   SFRSYM    DATA     BYTE      DPH
      000000E8H   SFRSYM    DATA     BYTE      SFRPRT12DR
      00000082H   SFRSYM    DATA     BYTE      DPL
      000000F8H   SFRSYM    DATA     BYTE      SFRPRT15DR
      00000086H   SFRSYM    DATA     BYTE      DPS
      000000E9H   SFRSYM    DATA     BYTE      SFRPRT12PS
      00000093H   SFRSYM    DATA     BYTE      DPX
      000000F9H   SFRSYM    DATA     BYTE      SFRPRT15PS
      000000D0H.5 SFRSYM    DATA     BIT       F0
      000000D0H.1 SFRSYM    DATA     BIT       F1
      0000008AH   SFRSYM    DATA     BYTE      SFRPRT0SEL
      000000D0H   SFRSYM    DATA     BYTE      PSW
      000000A2H   SFRSYM    DATA     BYTE      SFRPRT1SEL
      0000009AH   SFRSYM    DATA     BYTE      SFRPRT2SEL
      000000B2H   SFRSYM    DATA     BYTE      SFRPRT3SEL
      000000C2H   SFRSYM    DATA     BYTE      SFRPRT4SEL

      0100AFB9H   BLOCK     CODE     ---       LVL=0
      0100AFB9H   LINE      CODE     ---       #33
      0100AFB9H   LINE      CODE     ---       #34
      0100AFB9H   LINE      CODE     ---       #36
      0100AFBCH   LINE      CODE     ---       #39
      0100AFBFH   LINE      CODE     ---       #40
      ---         BLOCKEND  ---      ---       LVL=0

      0100B080H   BLOCK     CODE     ---       LVL=0
      0100B080H   LINE      CODE     ---       #57
      0100B080H   LINE      CODE     ---       #58
      0100B080H   LINE      CODE     ---       #59
      0100B083H   LINE      CODE     ---       #60
      ---         BLOCKEND  ---      ---       LVL=0

      0100B084H   BLOCK     CODE     ---       LVL=0
      0100B084H   LINE      CODE     ---       #247
      0100B084H   LINE      CODE     ---       #248
      0100B084H   LINE      CODE     ---       #249
      0100B087H   LINE      CODE     ---       #250
      ---         BLOCKEND  ---      ---       LVL=0
LX51 LINKER/LOCATER V4.64.0.0                                                         01/11/2017  18:17:27  PAGE 98



      0100936AH   BLOCK     CODE     ---       LVL=0
      0200000AH   SYMBOL    XDATA    ---       rowData
      0200000DH   SYMBOL    XDATA    BYTE      rowNumber
      01009378H   BLOCK     CODE     NEAR LAB  LVL=1
      0200000EH   SYMBOL    XDATA    BYTE      status
      ---         BLOCKEND  ---      ---       LVL=1
      0100936AH   LINE      CODE     ---       #345
      01009378H   LINE      CODE     ---       #346
      01009378H   LINE      CODE     ---       #349
      0100937BH   LINE      CODE     ---       #351
      01009387H   LINE      CODE     ---       #352
      01009387H   LINE      CODE     ---       #354
      01009390H   LINE      CODE     ---       #355
      01009390H   LINE      CODE     ---       #357
      01009396H   LINE      CODE     ---       #360
      010093B4H   LINE      CODE     ---       #361
      010093B4H   LINE      CODE     ---       #362
      010093BCH   LINE      CODE     ---       #363
      010093BCH   LINE      CODE     ---       #365
      010093BCH   LINE      CODE     ---       #368
      010093D2H   LINE      CODE     ---       #369
      010093D2H   LINE      CODE     ---       #370
      010093D6H   LINE      CODE     ---       #371
      010093D6H   LINE      CODE     ---       #374
      010093DCH   LINE      CODE     ---       #375
      010093DCH   LINE      CODE     ---       #376
      010093F8H   LINE      CODE     ---       #378
      010093F8H   LINE      CODE     ---       #380
      010093FEH   LINE      CODE     ---       #382
      01009406H   LINE      CODE     ---       #383
      01009406H   LINE      CODE     ---       #385
      01009406H   LINE      CODE     ---       #388
      0100941CH   LINE      CODE     ---       #389
      0100941CH   LINE      CODE     ---       #390
      01009420H   LINE      CODE     ---       #391
      01009420H   LINE      CODE     ---       #392
      01009422H   LINE      CODE     ---       #394
      01009422H   LINE      CODE     ---       #395
      01009428H   LINE      CODE     ---       #396
      01009428H   LINE      CODE     ---       #397
      0100942AH   LINE      CODE     ---       #399
      0100942AH   LINE      CODE     ---       #400
      01009430H   LINE      CODE     ---       #401
      01009430H   LINE      CODE     ---       #402
      01009430H   LINE      CODE     ---       #405
      01009433H   LINE      CODE     ---       #406
      01009435H   LINE      CODE     ---       #408
      01009435H   LINE      CODE     ---       #409
      0100943BH   LINE      CODE     ---       #410
      0100943BH   LINE      CODE     ---       #411
      0100943DH   LINE      CODE     ---       #413
      0100943DH   LINE      CODE     ---       #414
      01009443H   LINE      CODE     ---       #415
      01009443H   LINE      CODE     ---       #417
      01009448H   LINE      CODE     ---       #418
      ---         BLOCKEND  ---      ---       LVL=0

      ---         MODULE    ---      ---       UART_RS485
      02000D45H   PUBLIC    XDATA    BYTE      UART_RS485_errorStatus
      02000D44H   PUBLIC    XDATA    BYTE      UART_RS485_rxBufferOverflow
      02000D43H   PUBLIC    XDATA    BYTE      UART_RS485_initVar
      02000D42H   PUBLIC    XDATA    BYTE      UART_RS485_rxBufferWrite
      02000D22H   PUBLIC    XDATA    ---       UART_RS485_rxBuffer
      02000D21H   PUBLIC    XDATA    BYTE      UART_RS485_rxBufferRead
LX51 LINKER/LOCATER V4.64.0.0                                                         01/11/2017  18:17:27  PAGE 99


      02000D20H   PUBLIC    XDATA    BYTE      UART_RS485_rxBufferLoopDetect
      0100AD04H   PUBLIC    CODE     ---       UART_RS485_ClearTxBuffer
      0100A6DEH   PUBLIC    CODE     ---       _UART_RS485_PutString
      0100AE5DH   PUBLIC    CODE     ---       _UART_RS485_PutChar
      0100B056H   PUBLIC    CODE     ---       UART_RS485_ReadTxStatus
      0100A83DH   PUBLIC    CODE     ---       UART_RS485_ClearRxBuffer
      0100A28EH   PUBLIC    CODE     ---       UART_RS485_GetRxBufferSize
      0100A039H   PUBLIC    CODE     ---       UART_RS485_GetChar
      0100ABE6H   PUBLIC    CODE     ---       UART_RS485_ReadRxStatus
      0100A9A7H   PUBLIC    CODE     ---       UART_RS485_Stop
      0100A985H   PUBLIC    CODE     ---       UART_RS485_Enable
      0100A746H   PUBLIC    CODE     ---       UART_RS485_Init
      0100ACA5H   PUBLIC    CODE     ---       UART_RS485_Start
      000000CAH   SFRSYM    DATA     BYTE      SFRPRT5SEL
      000000DAH   SFRSYM    DATA     BYTE      SFRPRT6SEL
      000000D0H.6 SFRSYM    DATA     BIT       AC
      000000A8H.7 SFRSYM    DATA     BIT       EA
      000000A8H   SFRSYM    DATA     BYTE      IE
      00000085H   SFRSYM    DATA     BYTE      DPH1
      00000084H   SFRSYM    DATA     BYTE      DPL1
      000000D0H.7 SFRSYM    DATA     BIT       CY
      000000A0H   SFRSYM    DATA     BYTE      P2AX
      00000095H   SFRSYM    DATA     BYTE      DPX1
      00000081H   SFRSYM    DATA     BYTE      SP
      000000D0H.2 SFRSYM    DATA     BIT       OV
      00000080H   SFRSYM    DATA     BYTE      SFRPRT0DR
      00000090H   SFRSYM    DATA     BYTE      SFRPRT1DR
      000000F2H   SFRSYM    DATA     BYTE      SFRPRT12SEL
      00000098H   SFRSYM    DATA     BYTE      SFRPRT2DR
      000000B0H   SFRSYM    DATA     BYTE      SFRPRT3DR
      000000C0H   SFRSYM    DATA     BYTE      SFRPRT4DR
      000000FAH   SFRSYM    DATA     BYTE      SFRPRT15SEL
      000000C8H   SFRSYM    DATA     BYTE      SFRPRT5DR
      000000D8H   SFRSYM    DATA     BYTE      SFRPRT6DR
      00000089H   SFRSYM    DATA     BYTE      SFRPRT0PS
      00000091H   SFRSYM    DATA     BYTE      SFRPRT1PS
      00000099H   SFRSYM    DATA     BYTE      SFRPRT2PS
      000000B1H   SFRSYM    DATA     BYTE      SFRPRT3PS
      000000C1H   SFRSYM    DATA     BYTE      SFRPRT4PS
      000000C9H   SFRSYM    DATA     BYTE      SFRPRT5PS
      000000D9H   SFRSYM    DATA     BYTE      SFRPRT6PS
      000000EAH   SFRSYM    DATA     BYTE      MXAX
      000000F0H   SFRSYM    DATA     BYTE      B
      000000E0H   SFRSYM    DATA     BYTE      ACC
      000000D0H   SFRSYM    DATA     BIT       P
      000000D0H.3 SFRSYM    DATA     BIT       RS0
      000000D0H.4 SFRSYM    DATA     BIT       RS1
      00000083H   SFRSYM    DATA     BYTE      DPH
      000000E8H   SFRSYM    DATA     BYTE      SFRPRT12DR
      00000082H   SFRSYM    DATA     BYTE      DPL
      000000F8H   SFRSYM    DATA     BYTE      SFRPRT15DR
      00000086H   SFRSYM    DATA     BYTE      DPS
      000000E9H   SFRSYM    DATA     BYTE      SFRPRT12PS
      00000093H   SFRSYM    DATA     BYTE      DPX
      000000F9H   SFRSYM    DATA     BYTE      SFRPRT15PS
      000000D0H.5 SFRSYM    DATA     BIT       F0
      000000D0H.1 SFRSYM    DATA     BIT       F1
      0000008AH   SFRSYM    DATA     BYTE      SFRPRT0SEL
      000000D0H   SFRSYM    DATA     BYTE      PSW
      000000A2H   SFRSYM    DATA     BYTE      SFRPRT1SEL
      0000009AH   SFRSYM    DATA     BYTE      SFRPRT2SEL
      000000B2H   SFRSYM    DATA     BYTE      SFRPRT3SEL
      000000C2H   SFRSYM    DATA     BYTE      SFRPRT4SEL

      0100ACA5H   BLOCK     CODE     ---       LVL=0
LX51 LINKER/LOCATER V4.64.0.0                                                         01/11/2017  18:17:27  PAGE 100


      0100ACA5H   LINE      CODE     ---       #76
      0100ACA5H   LINE      CODE     ---       #77
      0100ACA5H   LINE      CODE     ---       #79
      0100ACABH   LINE      CODE     ---       #80
      0100ACABH   LINE      CODE     ---       #81
      0100ACAEH   LINE      CODE     ---       #82
      0100ACB4H   LINE      CODE     ---       #83
      0100ACB4H   LINE      CODE     ---       #85
      0100ACB7H   LINE      CODE     ---       #86
      ---         BLOCKEND  ---      ---       LVL=0

      0100A746H   BLOCK     CODE     ---       LVL=0
      0100A746H   LINE      CODE     ---       #106
      0100A746H   LINE      CODE     ---       #107
      0100A746H   LINE      CODE     ---       #112
      0100A74FH   LINE      CODE     ---       #113
      0100A756H   LINE      CODE     ---       #114
      0100A75BH   LINE      CODE     ---       #124
      0100A761H   LINE      CODE     ---       #126
      0100A767H   LINE      CODE     ---       #138
      0100A76DH   LINE      CODE     ---       #139
      0100A773H   LINE      CODE     ---       #150
      0100A778H   LINE      CODE     ---       #160
      ---         BLOCKEND  ---      ---       LVL=0

      0100A985H   BLOCK     CODE     ---       LVL=0
      0100A985H   BLOCK     CODE     NEAR LAB  LVL=1
      00000007H   SYMBOL    DATA     BYTE      enableInterrupts
      ---         BLOCKEND  ---      ---       LVL=1
      0100A985H   LINE      CODE     ---       #183
      0100A985H   LINE      CODE     ---       #184
      0100A985H   LINE      CODE     ---       #186
      0100A988H   LINE      CODE     ---       #190
      0100A98FH   LINE      CODE     ---       #193
      0100A996H   LINE      CODE     ---       #196
      0100A99CH   LINE      CODE     ---       #211
      0100A9A3H   LINE      CODE     ---       #222
      0100A9A6H   LINE      CODE     ---       #223
      ---         BLOCKEND  ---      ---       LVL=0

      0100A9A7H   BLOCK     CODE     ---       LVL=0
      0100A9A7H   BLOCK     CODE     NEAR LAB  LVL=1
      00000007H   SYMBOL    DATA     BYTE      enableInterrupts
      ---         BLOCKEND  ---      ---       LVL=1
      0100A9A7H   LINE      CODE     ---       #240
      0100A9A7H   LINE      CODE     ---       #241
      0100A9A7H   LINE      CODE     ---       #243
      0100A9AAH   LINE      CODE     ---       #247
      0100A9B1H   LINE      CODE     ---       #262
      0100A9B8H   LINE      CODE     ---       #265
      0100A9BEH   LINE      CODE     ---       #270
      0100A9C5H   LINE      CODE     ---       #277
      0100A9C8H   LINE      CODE     ---       #278
      ---         BLOCKEND  ---      ---       LVL=0
      00000007H   SYMBOL    DATA     BYTE      intSrc
      00000007H   SYMBOL    DATA     BYTE      rxData
      00000006H   SYMBOL    DATA     BYTE      locRxBufferRead
      00000005H   SYMBOL    DATA     BYTE      locRxBufferWrite

      0100ABE6H   BLOCK     CODE     ---       LVL=0
      0100ABE6H   BLOCK     CODE     NEAR LAB  LVL=1
      00000007H   SYMBOL    DATA     BYTE      status
      ---         BLOCKEND  ---      ---       LVL=1
      0100ABE6H   LINE      CODE     ---       #485
      0100ABE6H   LINE      CODE     ---       #486
LX51 LINKER/LOCATER V4.64.0.0                                                         01/11/2017  18:17:27  PAGE 101


      0100ABE6H   LINE      CODE     ---       #489
      0100ABEDH   LINE      CODE     ---       #492
      0100ABF3H   LINE      CODE     ---       #493
      0100ABF3H   LINE      CODE     ---       #494
      0100ABF7H   LINE      CODE     ---       #495
      0100ABF9H   LINE      CODE     ---       #496
      0100ABF9H   LINE      CODE     ---       #499
      0100ABF9H   LINE      CODE     ---       #500
      ---         BLOCKEND  ---      ---       LVL=0

      0100A039H   BLOCK     CODE     ---       LVL=0
      0100A039H   BLOCK     CODE     NEAR LAB  LVL=1
      00000007H   SYMBOL    DATA     BYTE      rxData
      00000006H   SYMBOL    DATA     BYTE      rxStatus
      00000006H   SYMBOL    DATA     BYTE      locRxBufferRead
      00000005H   SYMBOL    DATA     BYTE      locRxBufferWrite
      ---         BLOCKEND  ---      ---       LVL=1
      0100A039H   LINE      CODE     ---       #532
      0100A039H   LINE      CODE     ---       #533
      0100A039H   LINE      CODE     ---       #534
      0100A03BH   LINE      CODE     ---       #542
      0100A041H   LINE      CODE     ---       #544
      0100A046H   LINE      CODE     ---       #545
      0100A04BH   LINE      CODE     ---       #547
      0100A055H   LINE      CODE     ---       #548
      0100A055H   LINE      CODE     ---       #549
      0100A061H   LINE      CODE     ---       #550
      0100A062H   LINE      CODE     ---       #551
      0100A068H   LINE      CODE     ---       #552
      0100A068H   LINE      CODE     ---       #553
      0100A06AH   LINE      CODE     ---       #554
      0100A06AH   LINE      CODE     ---       #556
      0100A06FH   LINE      CODE     ---       #558
      0100A075H   LINE      CODE     ---       #559
      0100A075H   LINE      CODE     ---       #560
      0100A077H   LINE      CODE     ---       #575
      0100A077H   LINE      CODE     ---       #577
      0100A079H   LINE      CODE     ---       #579
      0100A07EH   LINE      CODE     ---       #580
      0100A081H   LINE      CODE     ---       #581
      0100A081H   LINE      CODE     ---       #582
      0100A086H   LINE      CODE     ---       #585
      0100A08BH   LINE      CODE     ---       #586
      0100A08BH   LINE      CODE     ---       #587
      0100A08DH   LINE      CODE     ---       #588
      0100A08DH   LINE      CODE     ---       #589
      0100A08DH   LINE      CODE     ---       #590
      0100A08DH   LINE      CODE     ---       #592
      0100A093H   LINE      CODE     ---       #611
      0100A093H   LINE      CODE     ---       #612
      ---         BLOCKEND  ---      ---       LVL=0
      00000002H   SYMBOL    DATA     WORD      locErrorStatus

      0100A28EH   BLOCK     CODE     ---       LVL=0
      0100A28EH   BLOCK     CODE     NEAR LAB  LVL=1
      00000007H   SYMBOL    DATA     BYTE      size
      ---         BLOCKEND  ---      ---       LVL=1
      0100A28EH   LINE      CODE     ---       #683
      0100A28EH   LINE      CODE     ---       #685
      0100A28EH   LINE      CODE     ---       #691
      0100A294H   LINE      CODE     ---       #693
      0100A2A0H   LINE      CODE     ---       #694
      0100A2A0H   LINE      CODE     ---       #695
      0100A2A6H   LINE      CODE     ---       #696
      0100A2A6H   LINE      CODE     ---       #697
LX51 LINKER/LOCATER V4.64.0.0                                                         01/11/2017  18:17:27  PAGE 102


      0100A2A8H   LINE      CODE     ---       #698
      0100A2AAH   LINE      CODE     ---       #700
      0100A2AAH   LINE      CODE     ---       #701
      0100A2ACH   LINE      CODE     ---       #702
      0100A2ACH   LINE      CODE     ---       #703
      0100A2AEH   LINE      CODE     ---       #704
      0100A2BBH   LINE      CODE     ---       #705
      0100A2BBH   LINE      CODE     ---       #706
      0100A2C4H   LINE      CODE     ---       #707
      0100A2C6H   LINE      CODE     ---       #709
      0100A2C6H   LINE      CODE     ---       #710
      0100A2D6H   LINE      CODE     ---       #711
      0100A2D6H   LINE      CODE     ---       #713
      0100A2DCH   LINE      CODE     ---       #722
      0100A2DCH   LINE      CODE     ---       #723
      ---         BLOCKEND  ---      ---       LVL=0

      0100A83DH   BLOCK     CODE     ---       LVL=0
      0100A83DH   BLOCK     CODE     NEAR LAB  LVL=1
      00000007H   SYMBOL    DATA     BYTE      enableInterrupts
      ---         BLOCKEND  ---      ---       LVL=1
      0100A83DH   LINE      CODE     ---       #757
      0100A83DH   LINE      CODE     ---       #758
      0100A83DH   LINE      CODE     ---       #762
      0100A840H   LINE      CODE     ---       #763
      0100A847H   LINE      CODE     ---       #764
      0100A84BH   LINE      CODE     ---       #765
      0100A84EH   LINE      CODE     ---       #770
      0100A854H   LINE      CODE     ---       #772
      0100A859H   LINE      CODE     ---       #773
      0100A85DH   LINE      CODE     ---       #774
      0100A861H   LINE      CODE     ---       #775
      0100A865H   LINE      CODE     ---       #777
      0100A86BH   LINE      CODE     ---       #781
      ---         BLOCKEND  ---      ---       LVL=0
      00000007H   SYMBOL    DATA     BYTE      address
      00000007H   SYMBOL    DATA     BYTE      address
      00000007H   SYMBOL    DATA     BYTE      intSrc
      00000007H   SYMBOL    DATA     BYTE      txDataByte

      0100B056H   BLOCK     CODE     ---       LVL=0
      0100B056H   LINE      CODE     ---       #1003
      0100B056H   LINE      CODE     ---       #1004
      0100B056H   LINE      CODE     ---       #1005
      0100B05BH   LINE      CODE     ---       #1006
      ---         BLOCKEND  ---      ---       LVL=0

      0100AE5DH   BLOCK     CODE     ---       LVL=0
      00000007H   SYMBOL    DATA     BYTE      txDataByte
      0100AE5DH   LINE      CODE     ---       #1041
      0100AE5DH   LINE      CODE     ---       #1042
      0100AE5DH   LINE      CODE     ---       #1107
      0100AE64H   LINE      CODE     ---       #1108
      0100AE64H   LINE      CODE     ---       #1110
      0100AE64H   LINE      CODE     ---       #1113
      0100AE69H   LINE      CODE     ---       #1116
      ---         BLOCKEND  ---      ---       LVL=0

      0100A6DEH   BLOCK     CODE     ---       LVL=0
      0200044FH   SYMBOL    XDATA    ---       string
      0100A6E9H   BLOCK     CODE     NEAR LAB  LVL=1
      00000004H   SYMBOL    DATA     WORD      bufIndex
      ---         BLOCKEND  ---      ---       LVL=1
      0100A6DEH   LINE      CODE     ---       #1145
      0100A6E9H   LINE      CODE     ---       #1146
LX51 LINKER/LOCATER V4.64.0.0                                                         01/11/2017  18:17:27  PAGE 103


      0100A6E9H   LINE      CODE     ---       #1147
      0100A6ECH   LINE      CODE     ---       #1150
      0100A6F2H   LINE      CODE     ---       #1151
      0100A6F2H   LINE      CODE     ---       #1153
      0100A707H   LINE      CODE     ---       #1154
      0100A707H   LINE      CODE     ---       #1155
      0100A70AH   LINE      CODE     ---       #1156
      0100A70FH   LINE      CODE     ---       #1157
      0100A711H   LINE      CODE     ---       #1158
      0100A711H   LINE      CODE     ---       #1159
      ---         BLOCKEND  ---      ---       LVL=0
      00000005H   SYMBOL    DATA     BYTE      byteCount
      00000006H   SYMBOL    DATA     BYTE      bufIndex
      00000007H   SYMBOL    DATA     BYTE      txDataByte
      00000007H   SYMBOL    DATA     BYTE      size

      0100AD04H   BLOCK     CODE     ---       LVL=0
      0100AD04H   BLOCK     CODE     NEAR LAB  LVL=1
      00000007H   SYMBOL    DATA     BYTE      enableInterrupts
      ---         BLOCKEND  ---      ---       LVL=1
      0100AD04H   LINE      CODE     ---       #1354
      0100AD04H   LINE      CODE     ---       #1355
      0100AD04H   LINE      CODE     ---       #1358
      0100AD07H   LINE      CODE     ---       #1360
      0100AD0EH   LINE      CODE     ---       #1361
      0100AD12H   LINE      CODE     ---       #1362
      0100AD15H   LINE      CODE     ---       #1376
      ---         BLOCKEND  ---      ---       LVL=0
      00000007H   SYMBOL    DATA     BYTE      retMode
      02000D1FH   SYMBOL    XDATA    BYTE      txPeriod

      ---         MODULE    ---      ---       ADC
      02000D52H   PUBLIC    XDATA    LONG      ADC_CountsPerVolt
      02000D51H   PUBLIC    XDATA    BYTE      ADC_convDone
      02000D4DH   PUBLIC    XDATA    BYTE      ADC_started
      02000D4CH   PUBLIC    XDATA    BYTE      ADC_stopConversion
      02000D48H   PUBLIC    XDATA    LONG      ADC_Offset
      02000D47H   PUBLIC    XDATA    BYTE      ADC_initVar
      02000D46H   PUBLIC    XDATA    BYTE      ADC_Config
      0100AAD5H   PUBLIC    CODE     ---       ADC_Start
      01009957H   PUBLIC    CODE     ---       ADC_Enable
      010094FBH   PUBLIC    CODE     ---       ADC_Init
      000000CAH   SFRSYM    DATA     BYTE      SFRPRT5SEL
      000000DAH   SFRSYM    DATA     BYTE      SFRPRT6SEL
      000000D0H.6 SFRSYM    DATA     BIT       AC
      000000A8H.7 SFRSYM    DATA     BIT       EA
      000000A8H   SFRSYM    DATA     BYTE      IE
      00000085H   SFRSYM    DATA     BYTE      DPH1
      00000084H   SFRSYM    DATA     BYTE      DPL1
      000000D0H.7 SFRSYM    DATA     BIT       CY
      000000A0H   SFRSYM    DATA     BYTE      P2AX
      00000095H   SFRSYM    DATA     BYTE      DPX1
      00000081H   SFRSYM    DATA     BYTE      SP
      000000D0H.2 SFRSYM    DATA     BIT       OV
      00000080H   SFRSYM    DATA     BYTE      SFRPRT0DR
      00000090H   SFRSYM    DATA     BYTE      SFRPRT1DR
      000000F2H   SFRSYM    DATA     BYTE      SFRPRT12SEL
      00000098H   SFRSYM    DATA     BYTE      SFRPRT2DR
      000000B0H   SFRSYM    DATA     BYTE      SFRPRT3DR
      000000C0H   SFRSYM    DATA     BYTE      SFRPRT4DR
      000000FAH   SFRSYM    DATA     BYTE      SFRPRT15SEL
      000000C8H   SFRSYM    DATA     BYTE      SFRPRT5DR
      000000D8H   SFRSYM    DATA     BYTE      SFRPRT6DR
      00000089H   SFRSYM    DATA     BYTE      SFRPRT0PS
      00000091H   SFRSYM    DATA     BYTE      SFRPRT1PS
LX51 LINKER/LOCATER V4.64.0.0                                                         01/11/2017  18:17:27  PAGE 104


      00000099H   SFRSYM    DATA     BYTE      SFRPRT2PS
      000000B1H   SFRSYM    DATA     BYTE      SFRPRT3PS
      000000C1H   SFRSYM    DATA     BYTE      SFRPRT4PS
      000000C9H   SFRSYM    DATA     BYTE      SFRPRT5PS
      000000D9H   SFRSYM    DATA     BYTE      SFRPRT6PS
      000000EAH   SFRSYM    DATA     BYTE      MXAX
      000000F0H   SFRSYM    DATA     BYTE      B
      000000E0H   SFRSYM    DATA     BYTE      ACC
      000000D0H   SFRSYM    DATA     BIT       P
      000000D0H.3 SFRSYM    DATA     BIT       RS0
      000000D0H.4 SFRSYM    DATA     BIT       RS1
      00000083H   SFRSYM    DATA     BYTE      DPH
      000000E8H   SFRSYM    DATA     BYTE      SFRPRT12DR
      00000082H   SFRSYM    DATA     BYTE      DPL
      000000F8H   SFRSYM    DATA     BYTE      SFRPRT15DR
      00000086H   SFRSYM    DATA     BYTE      DPS
      000000E9H   SFRSYM    DATA     BYTE      SFRPRT12PS
      00000093H   SFRSYM    DATA     BYTE      DPX
      000000F9H   SFRSYM    DATA     BYTE      SFRPRT15PS
      000000D0H.5 SFRSYM    DATA     BIT       F0
      000000D0H.1 SFRSYM    DATA     BIT       F1
      0000008AH   SFRSYM    DATA     BYTE      SFRPRT0SEL
      000000D0H   SFRSYM    DATA     BYTE      PSW
      000000A2H   SFRSYM    DATA     BYTE      SFRPRT1SEL
      0000009AH   SFRSYM    DATA     BYTE      SFRPRT2SEL
      000000B2H   SFRSYM    DATA     BYTE      SFRPRT3SEL
      000000C2H   SFRSYM    DATA     BYTE      SFRPRT4SEL
      0100965DH   SYMBOL    CODE     ---       _ADC_InitConfig
      01007F5DH   SYMBOL    CODE     ---       _ADC_GainCompensation
      0100A509H   SYMBOL    CODE     ---       _ADC_SetDSMRef0Reg
      02000D4EH   SYMBOL    XDATA    ---       ADC_gcor

      010094FBH   BLOCK     CODE     ---       LVL=0
      010094FBH   LINE      CODE     ---       #91
      010094FBH   LINE      CODE     ---       #92
      010094FBH   LINE      CODE     ---       #94
      01009501H   LINE      CODE     ---       #95
      01009506H   LINE      CODE     ---       #97
      0100950BH   LINE      CODE     ---       #101
      01009510H   LINE      CODE     ---       #106
      01009517H   LINE      CODE     ---       #110
      0100951DH   LINE      CODE     ---       #111
      01009520H   LINE      CODE     ---       #112
      01009524H   LINE      CODE     ---       #113
      0100952BH   LINE      CODE     ---       #114
      01009530H   LINE      CODE     ---       #116
      01009534H   LINE      CODE     ---       #117
      01009536H   LINE      CODE     ---       #119
      0100953CH   LINE      CODE     ---       #120
      0100953FH   LINE      CODE     ---       #124
      01009543H   LINE      CODE     ---       #126
      01009549H   LINE      CODE     ---       #127
      0100954CH   LINE      CODE     ---       #128
      01009551H   LINE      CODE     ---       #130
      01009557H   LINE      CODE     ---       #133
      0100956EH   LINE      CODE     ---       #161
      01009584H   LINE      CODE     ---       #162
      010095A3H   LINE      CODE     ---       #165
      010095ABH   LINE      CODE     ---       #166
      ---         BLOCKEND  ---      ---       LVL=0

      01009957H   BLOCK     CODE     ---       LVL=0
      01009957H   BLOCK     CODE     NEAR LAB  LVL=1
      02000002H   SYMBOL    XDATA    BYTE      config
      02000003H   SYMBOL    XDATA    BYTE      enableInterrupts
LX51 LINKER/LOCATER V4.64.0.0                                                         01/11/2017  18:17:27  PAGE 105


      ---         BLOCKEND  ---      ---       LVL=1
      01009957H   LINE      CODE     ---       #184
      01009957H   LINE      CODE     ---       #185
      01009957H   LINE      CODE     ---       #188
      0100995FH   LINE      CODE     ---       #191
      01009967H   LINE      CODE     ---       #194
      0100996EH   LINE      CODE     ---       #195
      01009972H   LINE      CODE     ---       #198
      01009979H   LINE      CODE     ---       #199
      0100997DH   LINE      CODE     ---       #202
      01009984H   LINE      CODE     ---       #203
      01009989H   LINE      CODE     ---       #205
      01009990H   LINE      CODE     ---       #265
      01009990H   LINE      CODE     ---       #266
      01009990H   LINE      CODE     ---       #268
      01009990H   LINE      CODE     ---       #271
      01009997H   LINE      CODE     ---       #274
      0100999EH   LINE      CODE     ---       #275
      010099A3H   LINE      CODE     ---       #278
      010099AAH   LINE      CODE     ---       #281
      010099B0H   LINE      CODE     ---       #285
      010099B7H   LINE      CODE     ---       #286
      010099BEH   LINE      CODE     ---       #290
      010099C5H   LINE      CODE     ---       #291
      010099CCH   LINE      CODE     ---       #295
      010099D2H   LINE      CODE     ---       #297
      010099D6H   LINE      CODE     ---       #300
      010099DEH   LINE      CODE     ---       #302
      ---         BLOCKEND  ---      ---       LVL=0

      0100AAD5H   BLOCK     CODE     ---       LVL=0
      0100AAD5H   LINE      CODE     ---       #329
      0100AAD5H   LINE      CODE     ---       #330
      0100AAD5H   LINE      CODE     ---       #331
      0100AADBH   LINE      CODE     ---       #332
      0100AADBH   LINE      CODE     ---       #333
      0100AAE1H   LINE      CODE     ---       #334
      0100AAE1H   LINE      CODE     ---       #335
      0100AAE4H   LINE      CODE     ---       #336
      0100AAE4H   LINE      CODE     ---       #337
      0100AAEAH   LINE      CODE     ---       #338
      0100AAEAH   LINE      CODE     ---       #341
      0100AAEDH   LINE      CODE     ---       #342
      ---         BLOCKEND  ---      ---       LVL=0
      00000007H   SYMBOL    DATA     BYTE      gain
      00000006H   SYMBOL    DATA     BYTE      tmpReg
      00000007H   SYMBOL    DATA     BYTE      coherency
      00000006H   SYMBOL    DATA     BYTE      tmpReg
      00000004H   SYMBOL    DATA     WORD      gcorValue
      00000007H   SYMBOL    DATA     BYTE      retMode
      00000006H   SYMBOL    DATA     BYTE      status
      00000006H   SYMBOL    DATA     CHAR      result
      00000007H   SYMBOL    DATA     BYTE      coherency
      00000004H   SYMBOL    DATA     LONG      offset
      00000004H   SYMBOL    DATA     LONG      adcGain
      00000006H   SYMBOL    DATA     INT       mVolts
      00000004H   SYMBOL    DATA     FLOAT     Volts
      00000004H   SYMBOL    DATA     LONG      uVolts

      0100965DH   BLOCK     CODE     ---       LVL=0
      00000007H   SYMBOL    DATA     BYTE      config
      0100965DH   LINE      CODE     ---       #1242
      0100965DH   LINE      CODE     ---       #1243
      0100965DH   LINE      CODE     ---       #1244
      01009662H   LINE      CODE     ---       #1246
LX51 LINKER/LOCATER V4.64.0.0                                                         01/11/2017  18:17:27  PAGE 106


      0100966AH   LINE      CODE     ---       #1247
      0100966AH   LINE      CODE     ---       #1249
      01009670H   LINE      CODE     ---       #1250
      01009676H   LINE      CODE     ---       #1251
      0100967AH   LINE      CODE     ---       #1252
      0100967DH   LINE      CODE     ---       #1253
      0100967FH   LINE      CODE     ---       #1254
      01009683H   LINE      CODE     ---       #1255
      01009688H   LINE      CODE     ---       #1256
      0100968AH   LINE      CODE     ---       #1257
      0100968CH   LINE      CODE     ---       #1258
      01009691H   LINE      CODE     ---       #1260
      01009697H   LINE      CODE     ---       #1261
      0100969BH   LINE      CODE     ---       #1262
      0100969FH   LINE      CODE     ---       #1263
      010096A2H   LINE      CODE     ---       #1264
      010096A8H   LINE      CODE     ---       #1265
      010096ACH   LINE      CODE     ---       #1266
      010096B0H   LINE      CODE     ---       #1267
      010096B5H   LINE      CODE     ---       #1268
      010096B9H   LINE      CODE     ---       #1269
      010096BDH   LINE      CODE     ---       #1270
      010096C1H   LINE      CODE     ---       #1272
      010096C6H   LINE      CODE     ---       #1273
      010096CCH   LINE      CODE     ---       #1274
      010096CFH   LINE      CODE     ---       #1276
      010096D4H   LINE      CODE     ---       #1277
      010096D6H   LINE      CODE     ---       #1278
      010096D9H   LINE      CODE     ---       #1279
      010096DDH   LINE      CODE     ---       #1288
      010096E2H   LINE      CODE     ---       #1300
      010096EFH   LINE      CODE     ---       #1302
      010096F8H   LINE      CODE     ---       #1306
      01009701H   LINE      CODE     ---       #1311
      0100970AH   LINE      CODE     ---       #1313
      0100970AH   LINE      CODE     ---       #1526
      ---         BLOCKEND  ---      ---       LVL=0

      01007F5DH   BLOCK     CODE     ---       LVL=0
      00000007H   SYMBOL    DATA     BYTE      inputRange
      02000003H   SYMBOL    XDATA    WORD      idealDecGain
      02000005H   SYMBOL    XDATA    WORD      idealOddDecGain
      02000007H   SYMBOL    XDATA    BYTE      resolution
      02000008H   SYMBOL    XDATA    BYTE      config
      01007F6BH   BLOCK     CODE     NEAR LAB  LVL=1
      02000009H   SYMBOL    XDATA    CHAR      flash
      00000004H   SYMBOL    DATA     LONG      normalised
      00000004H   SYMBOL    DATA     WORD      gcorValue
      00000004H   SYMBOL    DATA     DWORD     gcorTmp
      ---         BLOCKEND  ---      ---       LVL=1
      01007F5DH   LINE      CODE     ---       #1617
      01007F6BH   LINE      CODE     ---       #1619
      01007F6BH   LINE      CODE     ---       #1625
      01007F81H   LINE      CODE     ---       #1626
      01007F81H   LINE      CODE     ---       #1627
      01007F9BH   LINE      CODE     ---       #1628
      01007F9BH   LINE      CODE     ---       #1629
      01007F9BH   LINE      CODE     ---       #1630
      01007F9BH   LINE      CODE     ---       #1632
      01007FA4H   LINE      CODE     ---       #1633
      01007FA4H   LINE      CODE     ---       #1634
      01007FB2H   LINE      CODE     ---       #1635
      01007FB5H   LINE      CODE     ---       #1637
      01007FB5H   LINE      CODE     ---       #1638
      01007FC3H   LINE      CODE     ---       #1639
LX51 LINKER/LOCATER V4.64.0.0                                                         01/11/2017  18:17:27  PAGE 107


      01007FC3H   LINE      CODE     ---       #1640
      01007FC6H   LINE      CODE     ---       #1642
      01007FC6H   LINE      CODE     ---       #1644
      01007FCFH   LINE      CODE     ---       #1645
      01007FCFH   LINE      CODE     ---       #1646
      01007FDDH   LINE      CODE     ---       #1647
      01007FDFH   LINE      CODE     ---       #1649
      01007FDFH   LINE      CODE     ---       #1650
      01007FEDH   LINE      CODE     ---       #1651
      01007FEDH   LINE      CODE     ---       #1652
      01007FEFH   LINE      CODE     ---       #1654
      01007FEFH   LINE      CODE     ---       #1656
      01007FF8H   LINE      CODE     ---       #1657
      01007FF8H   LINE      CODE     ---       #1658
      01008006H   LINE      CODE     ---       #1659
      01008008H   LINE      CODE     ---       #1661
      01008008H   LINE      CODE     ---       #1662
      01008016H   LINE      CODE     ---       #1663
      01008016H   LINE      CODE     ---       #1664
      01008018H   LINE      CODE     ---       #1666
      01008018H   LINE      CODE     ---       #1668
      01008021H   LINE      CODE     ---       #1669
      01008021H   LINE      CODE     ---       #1670
      0100802FH   LINE      CODE     ---       #1671
      01008031H   LINE      CODE     ---       #1673
      01008031H   LINE      CODE     ---       #1674
      0100803FH   LINE      CODE     ---       #1675
      0100803FH   LINE      CODE     ---       #1676
      01008041H   LINE      CODE     ---       #1678
      01008041H   LINE      CODE     ---       #1679
      01008046H   LINE      CODE     ---       #1680
      01008046H   LINE      CODE     ---       #1681
      01008046H   LINE      CODE     ---       #1684
      01008079H   LINE      CODE     ---       #1685
      0100808CH   LINE      CODE     ---       #1686
      01008099H   LINE      CODE     ---       #1688
      010080A2H   LINE      CODE     ---       #1689
      010080A2H   LINE      CODE     ---       #1690
      010080B9H   LINE      CODE     ---       #1691
      010080CFH   LINE      CODE     ---       #1692
      010080D1H   LINE      CODE     ---       #1694
      010080D1H   LINE      CODE     ---       #1696
      010080E5H   LINE      CODE     ---       #1697
      010080E5H   LINE      CODE     ---       #1700
      010080FDH   LINE      CODE     ---       #1701
      010080FDH   LINE      CODE     ---       #1703
      010080FDH   LINE      CODE     ---       #1706
      010080FDH   LINE      CODE     ---       #1707
      ---         BLOCKEND  ---      ---       LVL=0

      0100A509H   BLOCK     CODE     ---       LVL=0
      02000002H   SYMBOL    XDATA    BYTE      value
      0100A50EH   BLOCK     CODE     NEAR LAB  LVL=1
      02000003H   SYMBOL    XDATA    BYTE      enableInterrupts
      ---         BLOCKEND  ---      ---       LVL=1
      0100A509H   LINE      CODE     ---       #1724
      0100A50EH   LINE      CODE     ---       #1725
      0100A50EH   LINE      CODE     ---       #1727
      0100A516H   LINE      CODE     ---       #1730
      0100A51DH   LINE      CODE     ---       #1731
      0100A522H   LINE      CODE     ---       #1732
      0100A52AH   LINE      CODE     ---       #1735
      0100A531H   LINE      CODE     ---       #1737
      0100A538H   LINE      CODE     ---       #1738
      0100A53DH   LINE      CODE     ---       #1740
LX51 LINKER/LOCATER V4.64.0.0                                                         01/11/2017  18:17:27  PAGE 108


      0100A545H   LINE      CODE     ---       #1741
      ---         BLOCKEND  ---      ---       LVL=0
      00000007H   SYMBOL    DATA     CHAR      result
      00000006H   SYMBOL    DATA     INT       result
      00000004H   SYMBOL    DATA     LONG      result

      ---         MODULE    ---      ---       ADC_STATUS
      0100B05CH   PUBLIC    CODE     ---       ADC_STATUS_Read
      000000CAH   SFRSYM    DATA     BYTE      SFRPRT5SEL
      000000DAH   SFRSYM    DATA     BYTE      SFRPRT6SEL
      000000D0H.6 SFRSYM    DATA     BIT       AC
      000000A8H.7 SFRSYM    DATA     BIT       EA
      000000A8H   SFRSYM    DATA     BYTE      IE
      00000085H   SFRSYM    DATA     BYTE      DPH1
      00000084H   SFRSYM    DATA     BYTE      DPL1
      000000D0H.7 SFRSYM    DATA     BIT       CY
      000000A0H   SFRSYM    DATA     BYTE      P2AX
      00000095H   SFRSYM    DATA     BYTE      DPX1
      00000081H   SFRSYM    DATA     BYTE      SP
      000000D0H.2 SFRSYM    DATA     BIT       OV
      00000080H   SFRSYM    DATA     BYTE      SFRPRT0DR
      00000090H   SFRSYM    DATA     BYTE      SFRPRT1DR
      000000F2H   SFRSYM    DATA     BYTE      SFRPRT12SEL
      00000098H   SFRSYM    DATA     BYTE      SFRPRT2DR
      000000B0H   SFRSYM    DATA     BYTE      SFRPRT3DR
      000000C0H   SFRSYM    DATA     BYTE      SFRPRT4DR
      000000FAH   SFRSYM    DATA     BYTE      SFRPRT15SEL
      000000C8H   SFRSYM    DATA     BYTE      SFRPRT5DR
      000000D8H   SFRSYM    DATA     BYTE      SFRPRT6DR
      00000089H   SFRSYM    DATA     BYTE      SFRPRT0PS
      00000091H   SFRSYM    DATA     BYTE      SFRPRT1PS
      00000099H   SFRSYM    DATA     BYTE      SFRPRT2PS
      000000B1H   SFRSYM    DATA     BYTE      SFRPRT3PS
      000000C1H   SFRSYM    DATA     BYTE      SFRPRT4PS
      000000C9H   SFRSYM    DATA     BYTE      SFRPRT5PS
      000000D9H   SFRSYM    DATA     BYTE      SFRPRT6PS
      000000EAH   SFRSYM    DATA     BYTE      MXAX
      000000F0H   SFRSYM    DATA     BYTE      B
      000000E0H   SFRSYM    DATA     BYTE      ACC
      000000D0H   SFRSYM    DATA     BIT       P
      000000D0H.3 SFRSYM    DATA     BIT       RS0
      000000D0H.4 SFRSYM    DATA     BIT       RS1
      00000083H   SFRSYM    DATA     BYTE      DPH
      000000E8H   SFRSYM    DATA     BYTE      SFRPRT12DR
      00000082H   SFRSYM    DATA     BYTE      DPL
      000000F8H   SFRSYM    DATA     BYTE      SFRPRT15DR
      00000086H   SFRSYM    DATA     BYTE      DPS
      000000E9H   SFRSYM    DATA     BYTE      SFRPRT12PS
      00000093H   SFRSYM    DATA     BYTE      DPX
      000000F9H   SFRSYM    DATA     BYTE      SFRPRT15PS
      000000D0H.5 SFRSYM    DATA     BIT       F0
      000000D0H.1 SFRSYM    DATA     BIT       F1
      0000008AH   SFRSYM    DATA     BYTE      SFRPRT0SEL
      000000D0H   SFRSYM    DATA     BYTE      PSW
      000000A2H   SFRSYM    DATA     BYTE      SFRPRT1SEL
      0000009AH   SFRSYM    DATA     BYTE      SFRPRT2SEL
      000000B2H   SFRSYM    DATA     BYTE      SFRPRT3SEL
      000000C2H   SFRSYM    DATA     BYTE      SFRPRT4SEL

      0100B05CH   BLOCK     CODE     ---       LVL=0
      0100B05CH   LINE      CODE     ---       #37
      0100B05CH   LINE      CODE     ---       #38
      0100B05CH   LINE      CODE     ---       #39
      0100B061H   LINE      CODE     ---       #40
      ---         BLOCKEND  ---      ---       LVL=0
LX51 LINKER/LOCATER V4.64.0.0                                                         01/11/2017  18:17:27  PAGE 109


      00000007H   SYMBOL    DATA     BYTE      interruptState
      00000007H   SYMBOL    DATA     BYTE      interruptState
      00000007H   SYMBOL    DATA     BYTE      mask

      ---         MODULE    ---      ---       DMA_DMA
      02000D7CH   PUBLIC    XDATA    BYTE      DMA_DmaHandle
      02000002H   PUBLIC    XDATA    BYTE      ?_DMA_DmaInitialize?BYTE
      0100A375H   PUBLIC    CODE     ---       _DMA_DmaInitialize
      000000CAH   SFRSYM    DATA     BYTE      SFRPRT5SEL
      000000DAH   SFRSYM    DATA     BYTE      SFRPRT6SEL
      000000D0H.6 SFRSYM    DATA     BIT       AC
      000000A8H.7 SFRSYM    DATA     BIT       EA
      000000A8H   SFRSYM    DATA     BYTE      IE
      00000085H   SFRSYM    DATA     BYTE      DPH1
      00000084H   SFRSYM    DATA     BYTE      DPL1
      000000D0H.7 SFRSYM    DATA     BIT       CY
      000000A0H   SFRSYM    DATA     BYTE      P2AX
      00000095H   SFRSYM    DATA     BYTE      DPX1
      00000081H   SFRSYM    DATA     BYTE      SP
      000000D0H.2 SFRSYM    DATA     BIT       OV
      00000080H   SFRSYM    DATA     BYTE      SFRPRT0DR
      00000090H   SFRSYM    DATA     BYTE      SFRPRT1DR
      000000F2H   SFRSYM    DATA     BYTE      SFRPRT12SEL
      00000098H   SFRSYM    DATA     BYTE      SFRPRT2DR
      000000B0H   SFRSYM    DATA     BYTE      SFRPRT3DR
      000000C0H   SFRSYM    DATA     BYTE      SFRPRT4DR
      000000FAH   SFRSYM    DATA     BYTE      SFRPRT15SEL
      000000C8H   SFRSYM    DATA     BYTE      SFRPRT5DR
      000000D8H   SFRSYM    DATA     BYTE      SFRPRT6DR
      00000089H   SFRSYM    DATA     BYTE      SFRPRT0PS
      00000091H   SFRSYM    DATA     BYTE      SFRPRT1PS
      00000099H   SFRSYM    DATA     BYTE      SFRPRT2PS
      000000B1H   SFRSYM    DATA     BYTE      SFRPRT3PS
      000000C1H   SFRSYM    DATA     BYTE      SFRPRT4PS
      000000C9H   SFRSYM    DATA     BYTE      SFRPRT5PS
      000000D9H   SFRSYM    DATA     BYTE      SFRPRT6PS
      000000EAH   SFRSYM    DATA     BYTE      MXAX
      000000F0H   SFRSYM    DATA     BYTE      B
      000000E0H   SFRSYM    DATA     BYTE      ACC
      000000D0H   SFRSYM    DATA     BIT       P
      000000D0H.3 SFRSYM    DATA     BIT       RS0
      000000D0H.4 SFRSYM    DATA     BIT       RS1
      00000083H   SFRSYM    DATA     BYTE      DPH
      000000E8H   SFRSYM    DATA     BYTE      SFRPRT12DR
      00000082H   SFRSYM    DATA     BYTE      DPL
      000000F8H   SFRSYM    DATA     BYTE      SFRPRT15DR
      00000086H   SFRSYM    DATA     BYTE      DPS
      000000E9H   SFRSYM    DATA     BYTE      SFRPRT12PS
      00000093H   SFRSYM    DATA     BYTE      DPX
      000000F9H   SFRSYM    DATA     BYTE      SFRPRT15PS
      000000D0H.5 SFRSYM    DATA     BIT       F0
      000000D0H.1 SFRSYM    DATA     BIT       F1
      0000008AH   SFRSYM    DATA     BYTE      SFRPRT0SEL
      000000D0H   SFRSYM    DATA     BYTE      PSW
      000000A2H   SFRSYM    DATA     BYTE      SFRPRT1SEL
      0000009AH   SFRSYM    DATA     BYTE      SFRPRT2SEL
      000000B2H   SFRSYM    DATA     BYTE      SFRPRT3SEL
      000000C2H   SFRSYM    DATA     BYTE      SFRPRT4SEL

      0100A375H   BLOCK     CODE     ---       LVL=0
      00000007H   SYMBOL    DATA     BYTE      BurstCount
      00000006H   SYMBOL    DATA     BYTE      ReqestPerBurst
      02000004H   SYMBOL    XDATA    WORD      UpperSrcAddress
      02000006H   SYMBOL    XDATA    WORD      UpperDestAddress
      0100A375H   LINE      CODE     ---       #97
LX51 LINKER/LOCATER V4.64.0.0                                                         01/11/2017  18:17:27  PAGE 110


      0100A37FH   LINE      CODE     ---       #98
      0100A37FH   LINE      CODE     ---       #101
      0100A385H   LINE      CODE     ---       #109
      0100A399H   LINE      CODE     ---       #112
      0100A3AFH   LINE      CODE     ---       #115
      0100A3B9H   LINE      CODE     ---       #117
      0100A3BEH   LINE      CODE     ---       #118
      ---         BLOCKEND  ---      ---       LVL=0

      ---         MODULE    ---      ---       ADC_SOC
      0100B062H   PUBLIC    CODE     ---       _ADC_SOC_Write

      0100B062H   BLOCK     CODE     ---       LVL=0
      00000007H   SYMBOL    DATA     BYTE      control
      0100B062H   LINE      CODE     ---       #37
      0100B062H   LINE      CODE     ---       #38
      0100B062H   LINE      CODE     ---       #39
      0100B067H   LINE      CODE     ---       #40
      ---         BLOCKEND  ---      ---       LVL=0

      ---         MODULE    ---      ---       POWER_ON_LED_REG
      0100B068H   PUBLIC    CODE     ---       _POWER_ON_LED_REG_Write

      0100B068H   BLOCK     CODE     ---       LVL=0
      00000007H   SYMBOL    DATA     BYTE      control
      0100B068H   LINE      CODE     ---       #37
      0100B068H   LINE      CODE     ---       #38
      0100B068H   LINE      CODE     ---       #39
      0100B06DH   LINE      CODE     ---       #40
      ---         BLOCKEND  ---      ---       LVL=0

      ---         MODULE    ---      ---       SHIFTREG_ENC_4
      02000D7DH   PUBLIC    XDATA    BYTE      SHIFTREG_ENC_4_initVar
      0100AF3CH   PUBLIC    CODE     ---       SHIFTREG_ENC_4_ReadData
      0100AD49H   PUBLIC    CODE     ---       _SHIFTREG_ENC_4_SetIntMode
      0100AE26H   PUBLIC    CODE     ---       SHIFTREG_ENC_4_EnableInt
      0100B06EH   PUBLIC    CODE     ---       SHIFTREG_ENC_4_Init
      0100AED5H   PUBLIC    CODE     ---       SHIFTREG_ENC_4_Enable
      0100ACB8H   PUBLIC    CODE     ---       SHIFTREG_ENC_4_Start
      000000CAH   SFRSYM    DATA     BYTE      SFRPRT5SEL
      000000DAH   SFRSYM    DATA     BYTE      SFRPRT6SEL
      000000D0H.6 SFRSYM    DATA     BIT       AC
      000000A8H.7 SFRSYM    DATA     BIT       EA
      000000A8H   SFRSYM    DATA     BYTE      IE
      00000085H   SFRSYM    DATA     BYTE      DPH1
      00000084H   SFRSYM    DATA     BYTE      DPL1
      000000D0H.7 SFRSYM    DATA     BIT       CY
      000000A0H   SFRSYM    DATA     BYTE      P2AX
      00000095H   SFRSYM    DATA     BYTE      DPX1
      00000081H   SFRSYM    DATA     BYTE      SP
      000000D0H.2 SFRSYM    DATA     BIT       OV
      00000080H   SFRSYM    DATA     BYTE      SFRPRT0DR
      00000090H   SFRSYM    DATA     BYTE      SFRPRT1DR
      000000F2H   SFRSYM    DATA     BYTE      SFRPRT12SEL
      00000098H   SFRSYM    DATA     BYTE      SFRPRT2DR
      000000B0H   SFRSYM    DATA     BYTE      SFRPRT3DR
      000000C0H   SFRSYM    DATA     BYTE      SFRPRT4DR
      000000FAH   SFRSYM    DATA     BYTE      SFRPRT15SEL
      000000C8H   SFRSYM    DATA     BYTE      SFRPRT5DR
      000000D8H   SFRSYM    DATA     BYTE      SFRPRT6DR
      00000089H   SFRSYM    DATA     BYTE      SFRPRT0PS
      00000091H   SFRSYM    DATA     BYTE      SFRPRT1PS
      00000099H   SFRSYM    DATA     BYTE      SFRPRT2PS
      000000B1H   SFRSYM    DATA     BYTE      SFRPRT3PS
      000000C1H   SFRSYM    DATA     BYTE      SFRPRT4PS
LX51 LINKER/LOCATER V4.64.0.0                                                         01/11/2017  18:17:27  PAGE 111


      000000C9H   SFRSYM    DATA     BYTE      SFRPRT5PS
      000000D9H   SFRSYM    DATA     BYTE      SFRPRT6PS
      000000EAH   SFRSYM    DATA     BYTE      MXAX
      000000F0H   SFRSYM    DATA     BYTE      B
      000000E0H   SFRSYM    DATA     BYTE      ACC
      000000D0H   SFRSYM    DATA     BIT       P
      000000D0H.3 SFRSYM    DATA     BIT       RS0
      000000D0H.4 SFRSYM    DATA     BIT       RS1
      00000083H   SFRSYM    DATA     BYTE      DPH
      000000E8H   SFRSYM    DATA     BYTE      SFRPRT12DR
      00000082H   SFRSYM    DATA     BYTE      DPL
      000000F8H   SFRSYM    DATA     BYTE      SFRPRT15DR
      00000086H   SFRSYM    DATA     BYTE      DPS
      000000E9H   SFRSYM    DATA     BYTE      SFRPRT12PS
      00000093H   SFRSYM    DATA     BYTE      DPX
      000000F9H   SFRSYM    DATA     BYTE      SFRPRT15PS
      000000D0H.5 SFRSYM    DATA     BIT       F0
      000000D0H.1 SFRSYM    DATA     BIT       F1
      0000008AH   SFRSYM    DATA     BYTE      SFRPRT0SEL
      000000D0H   SFRSYM    DATA     BYTE      PSW
      000000A2H   SFRSYM    DATA     BYTE      SFRPRT1SEL
      0000009AH   SFRSYM    DATA     BYTE      SFRPRT2SEL
      000000B2H   SFRSYM    DATA     BYTE      SFRPRT3SEL
      000000C2H   SFRSYM    DATA     BYTE      SFRPRT4SEL

      0100ACB8H   BLOCK     CODE     ---       LVL=0
      0100ACB8H   LINE      CODE     ---       #43
      0100ACB8H   LINE      CODE     ---       #44
      0100ACB8H   LINE      CODE     ---       #45
      0100ACBEH   LINE      CODE     ---       #46
      0100ACBEH   LINE      CODE     ---       #47
      0100ACC1H   LINE      CODE     ---       #48
      0100ACC7H   LINE      CODE     ---       #49
      0100ACC7H   LINE      CODE     ---       #51
      0100ACCAH   LINE      CODE     ---       #52
      ---         BLOCKEND  ---      ---       LVL=0

      0100AED5H   BLOCK     CODE     ---       LVL=0
      0100AED5H   LINE      CODE     ---       #69
      0100AED5H   LINE      CODE     ---       #70
      0100AED5H   LINE      CODE     ---       #73
      0100AEDCH   LINE      CODE     ---       #75
      0100AEDFH   LINE      CODE     ---       #76
      ---         BLOCKEND  ---      ---       LVL=0

      0100B06EH   BLOCK     CODE     ---       LVL=0
      0100B06EH   LINE      CODE     ---       #93
      0100B06EH   LINE      CODE     ---       #94
      0100B06EH   LINE      CODE     ---       #95
      0100B073H   LINE      CODE     ---       #96
      ---         BLOCKEND  ---      ---       LVL=0

      0100AE26H   BLOCK     CODE     ---       LVL=0
      0100AE26H   BLOCK     CODE     NEAR LAB  LVL=1
      00000007H   SYMBOL    DATA     BYTE      interruptState
      ---         BLOCKEND  ---      ---       LVL=1
      0100AE26H   LINE      CODE     ---       #135
      0100AE26H   LINE      CODE     ---       #136
      0100AE26H   LINE      CODE     ---       #139
      0100AE29H   LINE      CODE     ---       #140
      0100AE30H   LINE      CODE     ---       #141
      0100AE33H   LINE      CODE     ---       #142
      ---         BLOCKEND  ---      ---       LVL=0
      00000007H   SYMBOL    DATA     BYTE      interruptState
      00000007H   SYMBOL    DATA     BYTE      fifoId
LX51 LINKER/LOCATER V4.64.0.0                                                         01/11/2017  18:17:27  PAGE 112


      00000005H   SYMBOL    DATA     BYTE      result

      0100AD49H   BLOCK     CODE     ---       LVL=0
      00000007H   SYMBOL    DATA     BYTE      interruptSource
      0100AD49H   LINE      CODE     ---       #261
      0100AD49H   LINE      CODE     ---       #262
      0100AD49H   LINE      CODE     ---       #263
      0100AD50H   LINE      CODE     ---       #264
      0100AD59H   LINE      CODE     ---       #265
      ---         BLOCKEND  ---      ---       LVL=0
      00000004H   SYMBOL    DATA     DWORD     shiftData

      0100AF3CH   BLOCK     CODE     ---       LVL=0
      0100AF3CH   LINE      CODE     ---       #366
      0100AF3CH   LINE      CODE     ---       #367
      0100AF3CH   LINE      CODE     ---       #368
      0100AF45H   LINE      CODE     ---       #369
      ---         BLOCKEND  ---      ---       LVL=0

      ---         MODULE    ---      ---       SHIFTREG_ENC_5
      02000D7EH   PUBLIC    XDATA    BYTE      SHIFTREG_ENC_5_initVar
      0100AF46H   PUBLIC    CODE     ---       SHIFTREG_ENC_5_ReadData
      0100AD5AH   PUBLIC    CODE     ---       _SHIFTREG_ENC_5_SetIntMode
      0100AE34H   PUBLIC    CODE     ---       SHIFTREG_ENC_5_EnableInt
      0100B074H   PUBLIC    CODE     ---       SHIFTREG_ENC_5_Init
      0100AEE0H   PUBLIC    CODE     ---       SHIFTREG_ENC_5_Enable
      0100ACCBH   PUBLIC    CODE     ---       SHIFTREG_ENC_5_Start
      000000CAH   SFRSYM    DATA     BYTE      SFRPRT5SEL
      000000DAH   SFRSYM    DATA     BYTE      SFRPRT6SEL
      000000D0H.6 SFRSYM    DATA     BIT       AC
      000000A8H.7 SFRSYM    DATA     BIT       EA
      000000A8H   SFRSYM    DATA     BYTE      IE
      00000085H   SFRSYM    DATA     BYTE      DPH1
      00000084H   SFRSYM    DATA     BYTE      DPL1
      000000D0H.7 SFRSYM    DATA     BIT       CY
      000000A0H   SFRSYM    DATA     BYTE      P2AX
      00000095H   SFRSYM    DATA     BYTE      DPX1
      00000081H   SFRSYM    DATA     BYTE      SP
      000000D0H.2 SFRSYM    DATA     BIT       OV
      00000080H   SFRSYM    DATA     BYTE      SFRPRT0DR
      00000090H   SFRSYM    DATA     BYTE      SFRPRT1DR
      000000F2H   SFRSYM    DATA     BYTE      SFRPRT12SEL
      00000098H   SFRSYM    DATA     BYTE      SFRPRT2DR
      000000B0H   SFRSYM    DATA     BYTE      SFRPRT3DR
      000000C0H   SFRSYM    DATA     BYTE      SFRPRT4DR
      000000FAH   SFRSYM    DATA     BYTE      SFRPRT15SEL
      000000C8H   SFRSYM    DATA     BYTE      SFRPRT5DR
      000000D8H   SFRSYM    DATA     BYTE      SFRPRT6DR
      00000089H   SFRSYM    DATA     BYTE      SFRPRT0PS
      00000091H   SFRSYM    DATA     BYTE      SFRPRT1PS
      00000099H   SFRSYM    DATA     BYTE      SFRPRT2PS
      000000B1H   SFRSYM    DATA     BYTE      SFRPRT3PS
      000000C1H   SFRSYM    DATA     BYTE      SFRPRT4PS
      000000C9H   SFRSYM    DATA     BYTE      SFRPRT5PS
      000000D9H   SFRSYM    DATA     BYTE      SFRPRT6PS
      000000EAH   SFRSYM    DATA     BYTE      MXAX
      000000F0H   SFRSYM    DATA     BYTE      B
      000000E0H   SFRSYM    DATA     BYTE      ACC
      000000D0H   SFRSYM    DATA     BIT       P
      000000D0H.3 SFRSYM    DATA     BIT       RS0
      000000D0H.4 SFRSYM    DATA     BIT       RS1
      00000083H   SFRSYM    DATA     BYTE      DPH
      000000E8H   SFRSYM    DATA     BYTE      SFRPRT12DR
      00000082H   SFRSYM    DATA     BYTE      DPL
      000000F8H   SFRSYM    DATA     BYTE      SFRPRT15DR
LX51 LINKER/LOCATER V4.64.0.0                                                         01/11/2017  18:17:27  PAGE 113


      00000086H   SFRSYM    DATA     BYTE      DPS
      000000E9H   SFRSYM    DATA     BYTE      SFRPRT12PS
      00000093H   SFRSYM    DATA     BYTE      DPX
      000000F9H   SFRSYM    DATA     BYTE      SFRPRT15PS
      000000D0H.5 SFRSYM    DATA     BIT       F0
      000000D0H.1 SFRSYM    DATA     BIT       F1
      0000008AH   SFRSYM    DATA     BYTE      SFRPRT0SEL
      000000D0H   SFRSYM    DATA     BYTE      PSW
      000000A2H   SFRSYM    DATA     BYTE      SFRPRT1SEL
      0000009AH   SFRSYM    DATA     BYTE      SFRPRT2SEL
      000000B2H   SFRSYM    DATA     BYTE      SFRPRT3SEL
      000000C2H   SFRSYM    DATA     BYTE      SFRPRT4SEL

      0100ACCBH   BLOCK     CODE     ---       LVL=0
      0100ACCBH   LINE      CODE     ---       #43
      0100ACCBH   LINE      CODE     ---       #44
      0100ACCBH   LINE      CODE     ---       #45
      0100ACD1H   LINE      CODE     ---       #46
      0100ACD1H   LINE      CODE     ---       #47
      0100ACD4H   LINE      CODE     ---       #48
      0100ACDAH   LINE      CODE     ---       #49
      0100ACDAH   LINE      CODE     ---       #51
      0100ACDDH   LINE      CODE     ---       #52
      ---         BLOCKEND  ---      ---       LVL=0

      0100AEE0H   BLOCK     CODE     ---       LVL=0
      0100AEE0H   LINE      CODE     ---       #69
      0100AEE0H   LINE      CODE     ---       #70
      0100AEE0H   LINE      CODE     ---       #73
      0100AEE7H   LINE      CODE     ---       #75
      0100AEEAH   LINE      CODE     ---       #76
      ---         BLOCKEND  ---      ---       LVL=0

      0100B074H   BLOCK     CODE     ---       LVL=0
      0100B074H   LINE      CODE     ---       #93
      0100B074H   LINE      CODE     ---       #94
      0100B074H   LINE      CODE     ---       #95
      0100B079H   LINE      CODE     ---       #96
      ---         BLOCKEND  ---      ---       LVL=0

      0100AE34H   BLOCK     CODE     ---       LVL=0
      0100AE34H   BLOCK     CODE     NEAR LAB  LVL=1
      00000007H   SYMBOL    DATA     BYTE      interruptState
      ---         BLOCKEND  ---      ---       LVL=1
      0100AE34H   LINE      CODE     ---       #135
      0100AE34H   LINE      CODE     ---       #136
      0100AE34H   LINE      CODE     ---       #139
      0100AE37H   LINE      CODE     ---       #140
      0100AE3EH   LINE      CODE     ---       #141
      0100AE41H   LINE      CODE     ---       #142
      ---         BLOCKEND  ---      ---       LVL=0
      00000007H   SYMBOL    DATA     BYTE      interruptState
      00000007H   SYMBOL    DATA     BYTE      fifoId
      00000005H   SYMBOL    DATA     BYTE      result

      0100AD5AH   BLOCK     CODE     ---       LVL=0
      00000007H   SYMBOL    DATA     BYTE      interruptSource
      0100AD5AH   LINE      CODE     ---       #261
      0100AD5AH   LINE      CODE     ---       #262
      0100AD5AH   LINE      CODE     ---       #263
      0100AD61H   LINE      CODE     ---       #264
      0100AD6AH   LINE      CODE     ---       #265
      ---         BLOCKEND  ---      ---       LVL=0
      00000004H   SYMBOL    DATA     DWORD     shiftData

LX51 LINKER/LOCATER V4.64.0.0                                                         01/11/2017  18:17:27  PAGE 114


      0100AF46H   BLOCK     CODE     ---       LVL=0
      0100AF46H   LINE      CODE     ---       #366
      0100AF46H   LINE      CODE     ---       #367
      0100AF46H   LINE      CODE     ---       #368
      0100AF4FH   LINE      CODE     ---       #369
      ---         BLOCKEND  ---      ---       LVL=0

      ---         MODULE    ---      ---       SHIFTREG_ENC_6
      02000D7FH   PUBLIC    XDATA    BYTE      SHIFTREG_ENC_6_initVar
      0100AF50H   PUBLIC    CODE     ---       SHIFTREG_ENC_6_ReadData
      0100AD6BH   PUBLIC    CODE     ---       _SHIFTREG_ENC_6_SetIntMode
      0100AE42H   PUBLIC    CODE     ---       SHIFTREG_ENC_6_EnableInt
      0100B07AH   PUBLIC    CODE     ---       SHIFTREG_ENC_6_Init
      0100AEEBH   PUBLIC    CODE     ---       SHIFTREG_ENC_6_Enable
      0100ACDEH   PUBLIC    CODE     ---       SHIFTREG_ENC_6_Start
      000000CAH   SFRSYM    DATA     BYTE      SFRPRT5SEL
      000000DAH   SFRSYM    DATA     BYTE      SFRPRT6SEL
      000000D0H.6 SFRSYM    DATA     BIT       AC
      000000A8H.7 SFRSYM    DATA     BIT       EA
      000000A8H   SFRSYM    DATA     BYTE      IE
      00000085H   SFRSYM    DATA     BYTE      DPH1
      00000084H   SFRSYM    DATA     BYTE      DPL1
      000000D0H.7 SFRSYM    DATA     BIT       CY
      000000A0H   SFRSYM    DATA     BYTE      P2AX
      00000095H   SFRSYM    DATA     BYTE      DPX1
      00000081H   SFRSYM    DATA     BYTE      SP
      000000D0H.2 SFRSYM    DATA     BIT       OV
      00000080H   SFRSYM    DATA     BYTE      SFRPRT0DR
      00000090H   SFRSYM    DATA     BYTE      SFRPRT1DR
      000000F2H   SFRSYM    DATA     BYTE      SFRPRT12SEL
      00000098H   SFRSYM    DATA     BYTE      SFRPRT2DR
      000000B0H   SFRSYM    DATA     BYTE      SFRPRT3DR
      000000C0H   SFRSYM    DATA     BYTE      SFRPRT4DR
      000000FAH   SFRSYM    DATA     BYTE      SFRPRT15SEL
      000000C8H   SFRSYM    DATA     BYTE      SFRPRT5DR
      000000D8H   SFRSYM    DATA     BYTE      SFRPRT6DR
      00000089H   SFRSYM    DATA     BYTE      SFRPRT0PS
      00000091H   SFRSYM    DATA     BYTE      SFRPRT1PS
      00000099H   SFRSYM    DATA     BYTE      SFRPRT2PS
      000000B1H   SFRSYM    DATA     BYTE      SFRPRT3PS
      000000C1H   SFRSYM    DATA     BYTE      SFRPRT4PS
      000000C9H   SFRSYM    DATA     BYTE      SFRPRT5PS
      000000D9H   SFRSYM    DATA     BYTE      SFRPRT6PS
      000000EAH   SFRSYM    DATA     BYTE      MXAX
      000000F0H   SFRSYM    DATA     BYTE      B
      000000E0H   SFRSYM    DATA     BYTE      ACC
      000000D0H   SFRSYM    DATA     BIT       P
      000000D0H.3 SFRSYM    DATA     BIT       RS0
      000000D0H.4 SFRSYM    DATA     BIT       RS1
      00000083H   SFRSYM    DATA     BYTE      DPH
      000000E8H   SFRSYM    DATA     BYTE      SFRPRT12DR
      00000082H   SFRSYM    DATA     BYTE      DPL
      000000F8H   SFRSYM    DATA     BYTE      SFRPRT15DR
      00000086H   SFRSYM    DATA     BYTE      DPS
      000000E9H   SFRSYM    DATA     BYTE      SFRPRT12PS
      00000093H   SFRSYM    DATA     BYTE      DPX
      000000F9H   SFRSYM    DATA     BYTE      SFRPRT15PS
      000000D0H.5 SFRSYM    DATA     BIT       F0
      000000D0H.1 SFRSYM    DATA     BIT       F1
      0000008AH   SFRSYM    DATA     BYTE      SFRPRT0SEL
      000000D0H   SFRSYM    DATA     BYTE      PSW
      000000A2H   SFRSYM    DATA     BYTE      SFRPRT1SEL
      0000009AH   SFRSYM    DATA     BYTE      SFRPRT2SEL
      000000B2H   SFRSYM    DATA     BYTE      SFRPRT3SEL
      000000C2H   SFRSYM    DATA     BYTE      SFRPRT4SEL
LX51 LINKER/LOCATER V4.64.0.0                                                         01/11/2017  18:17:27  PAGE 115



      0100ACDEH   BLOCK     CODE     ---       LVL=0
      0100ACDEH   LINE      CODE     ---       #43
      0100ACDEH   LINE      CODE     ---       #44
      0100ACDEH   LINE      CODE     ---       #45
      0100ACE4H   LINE      CODE     ---       #46
      0100ACE4H   LINE      CODE     ---       #47
      0100ACE7H   LINE      CODE     ---       #48
      0100ACEDH   LINE      CODE     ---       #49
      0100ACEDH   LINE      CODE     ---       #51
      0100ACF0H   LINE      CODE     ---       #52
      ---         BLOCKEND  ---      ---       LVL=0

      0100AEEBH   BLOCK     CODE     ---       LVL=0
      0100AEEBH   LINE      CODE     ---       #69
      0100AEEBH   LINE      CODE     ---       #70
      0100AEEBH   LINE      CODE     ---       #73
      0100AEF2H   LINE      CODE     ---       #75
      0100AEF5H   LINE      CODE     ---       #76
      ---         BLOCKEND  ---      ---       LVL=0

      0100B07AH   BLOCK     CODE     ---       LVL=0
      0100B07AH   LINE      CODE     ---       #93
      0100B07AH   LINE      CODE     ---       #94
      0100B07AH   LINE      CODE     ---       #95
      0100B07FH   LINE      CODE     ---       #96
      ---         BLOCKEND  ---      ---       LVL=0

      0100AE42H   BLOCK     CODE     ---       LVL=0
      0100AE42H   BLOCK     CODE     NEAR LAB  LVL=1
      00000007H   SYMBOL    DATA     BYTE      interruptState
      ---         BLOCKEND  ---      ---       LVL=1
      0100AE42H   LINE      CODE     ---       #135
      0100AE42H   LINE      CODE     ---       #136
      0100AE42H   LINE      CODE     ---       #139
      0100AE45H   LINE      CODE     ---       #140
      0100AE4CH   LINE      CODE     ---       #141
      0100AE4FH   LINE      CODE     ---       #142
      ---         BLOCKEND  ---      ---       LVL=0
      00000007H   SYMBOL    DATA     BYTE      interruptState
      00000007H   SYMBOL    DATA     BYTE      fifoId
      00000005H   SYMBOL    DATA     BYTE      result

      0100AD6BH   BLOCK     CODE     ---       LVL=0
      00000007H   SYMBOL    DATA     BYTE      interruptSource
      0100AD6BH   LINE      CODE     ---       #261
      0100AD6BH   LINE      CODE     ---       #262
      0100AD6BH   LINE      CODE     ---       #263
      0100AD72H   LINE      CODE     ---       #264
      0100AD7BH   LINE      CODE     ---       #265
      ---         BLOCKEND  ---      ---       LVL=0
      00000004H   SYMBOL    DATA     DWORD     shiftData

      0100AF50H   BLOCK     CODE     ---       LVL=0
      0100AF50H   LINE      CODE     ---       #366
      0100AF50H   LINE      CODE     ---       #367
      0100AF50H   LINE      CODE     ---       #368
      0100AF59H   LINE      CODE     ---       #369
      ---         BLOCKEND  ---      ---       LVL=0

      ---         MODULE    ---      ---       CYDMAC
      01009C5AH   PUBLIC    CODE     ---       _CyDmaTdSetAddress
      02000002H   PUBLIC    XDATA    BYTE      ?_CyDmaTdSetConfiguration?BYTE
      01009A67H   PUBLIC    CODE     ---       _CyDmaTdSetConfiguration
      0100A4CBH   PUBLIC    CODE     ---       CyDmaTdAllocate
LX51 LINKER/LOCATER V4.64.0.0                                                         01/11/2017  18:17:27  PAGE 116


      02000008H   PUBLIC    XDATA    BYTE      ?_CyDmaChSetConfiguration?BYTE
      01009B69H   PUBLIC    CODE     ---       _CyDmaChSetConfiguration
      0100AA67H   PUBLIC    CODE     ---       _CyDmaChSetInitialTd
      01009BE2H   PUBLIC    CODE     ---       _CyDmaChSetExtendedAddress
      0100A48BH   PUBLIC    CODE     ---       _CyDmaChPriority
      0100A32AH   PUBLIC    CODE     ---       _CyDmaChEnable
      0100A673H   PUBLIC    CODE     ---       CyDmacConfigure
      000000CAH   SFRSYM    DATA     BYTE      SFRPRT5SEL
      000000DAH   SFRSYM    DATA     BYTE      SFRPRT6SEL
      000000D0H.6 SFRSYM    DATA     BIT       AC
      000000A8H.7 SFRSYM    DATA     BIT       EA
      000000A8H   SFRSYM    DATA     BYTE      IE
      00000085H   SFRSYM    DATA     BYTE      DPH1
      00000084H   SFRSYM    DATA     BYTE      DPL1
      000000D0H.7 SFRSYM    DATA     BIT       CY
      000000A0H   SFRSYM    DATA     BYTE      P2AX
      00000095H   SFRSYM    DATA     BYTE      DPX1
      00000081H   SFRSYM    DATA     BYTE      SP
      000000D0H.2 SFRSYM    DATA     BIT       OV
      00000080H   SFRSYM    DATA     BYTE      SFRPRT0DR
      00000090H   SFRSYM    DATA     BYTE      SFRPRT1DR
      000000F2H   SFRSYM    DATA     BYTE      SFRPRT12SEL
      00000098H   SFRSYM    DATA     BYTE      SFRPRT2DR
      000000B0H   SFRSYM    DATA     BYTE      SFRPRT3DR
      000000C0H   SFRSYM    DATA     BYTE      SFRPRT4DR
      000000FAH   SFRSYM    DATA     BYTE      SFRPRT15SEL
      000000C8H   SFRSYM    DATA     BYTE      SFRPRT5DR
      000000D8H   SFRSYM    DATA     BYTE      SFRPRT6DR
      00000089H   SFRSYM    DATA     BYTE      SFRPRT0PS
      00000091H   SFRSYM    DATA     BYTE      SFRPRT1PS
      00000099H   SFRSYM    DATA     BYTE      SFRPRT2PS
      000000B1H   SFRSYM    DATA     BYTE      SFRPRT3PS
      000000C1H   SFRSYM    DATA     BYTE      SFRPRT4PS
      000000C9H   SFRSYM    DATA     BYTE      SFRPRT5PS
      000000D9H   SFRSYM    DATA     BYTE      SFRPRT6PS
      000000EAH   SFRSYM    DATA     BYTE      MXAX
      000000F0H   SFRSYM    DATA     BYTE      B
      000000E0H   SFRSYM    DATA     BYTE      ACC
      000000D0H   SFRSYM    DATA     BIT       P
      000000D0H.3 SFRSYM    DATA     BIT       RS0
      000000D0H.4 SFRSYM    DATA     BIT       RS1
      00000083H   SFRSYM    DATA     BYTE      DPH
      000000E8H   SFRSYM    DATA     BYTE      SFRPRT12DR
      00000082H   SFRSYM    DATA     BYTE      DPL
      000000F8H   SFRSYM    DATA     BYTE      SFRPRT15DR
      00000086H   SFRSYM    DATA     BYTE      DPS
      000000E9H   SFRSYM    DATA     BYTE      SFRPRT12PS
      00000093H   SFRSYM    DATA     BYTE      DPX
      000000F9H   SFRSYM    DATA     BYTE      SFRPRT15PS
      000000D0H.5 SFRSYM    DATA     BIT       F0
      000000D0H.1 SFRSYM    DATA     BIT       F1
      0000008AH   SFRSYM    DATA     BYTE      SFRPRT0SEL
      000000D0H   SFRSYM    DATA     BYTE      PSW
      000000A2H   SFRSYM    DATA     BYTE      SFRPRT1SEL
      0000009AH   SFRSYM    DATA     BYTE      SFRPRT2SEL
      000000B2H   SFRSYM    DATA     BYTE      SFRPRT3SEL
      000000C2H   SFRSYM    DATA     BYTE      SFRPRT4SEL
      02000D65H   SYMBOL    XDATA    DWORD     CyDmaChannels
      02000D69H   SYMBOL    XDATA    BYTE      CyDmaTdFreeIndex
      02000D6AH   SYMBOL    XDATA    BYTE      CyDmaTdCurrentNumber

      0100A673H   BLOCK     CODE     ---       LVL=0
      0100A673H   BLOCK     CODE     NEAR LAB  LVL=1
      00000007H   SYMBOL    DATA     BYTE      dmaIndex
      ---         BLOCKEND  ---      ---       LVL=1
LX51 LINKER/LOCATER V4.64.0.0                                                         01/11/2017  18:17:27  PAGE 117


      0100A673H   LINE      CODE     ---       #61
      0100A673H   LINE      CODE     ---       #62
      0100A673H   LINE      CODE     ---       #66
      0100A679H   LINE      CODE     ---       #67
      0100A67CH   LINE      CODE     ---       #70
      0100A681H   LINE      CODE     ---       #71
      0100A681H   LINE      CODE     ---       #72
      0100A694H   LINE      CODE     ---       #73
      0100A697H   LINE      CODE     ---       #76
      0100A6A8H   LINE      CODE     ---       #77
      ---         BLOCKEND  ---      ---       LVL=0
      00000007H   SYMBOL    DATA     BYTE      error

      0100A32AH   BLOCK     CODE     ---       LVL=0
      00000007H   SYMBOL    DATA     BYTE      chHandle
      00000005H   SYMBOL    DATA     BYTE      preserveTds
      0100A32AH   BLOCK     CODE     NEAR LAB  LVL=1
      00000006H   SYMBOL    DATA     BYTE      status
      ---         BLOCKEND  ---      ---       LVL=1
      0100A32AH   LINE      CODE     ---       #304
      0100A32AH   LINE      CODE     ---       #305
      0100A32AH   LINE      CODE     ---       #306
      0100A32CH   LINE      CODE     ---       #308
      0100A332H   LINE      CODE     ---       #309
      0100A332H   LINE      CODE     ---       #310
      0100A335H   LINE      CODE     ---       #311
      0100A335H   LINE      CODE     ---       #315
      0100A348H   LINE      CODE     ---       #316
      0100A34AH   LINE      CODE     ---       #318
      0100A34AH   LINE      CODE     ---       #320
      0100A35DH   LINE      CODE     ---       #321
      0100A35DH   LINE      CODE     ---       #324
      0100A370H   LINE      CODE     ---       #326
      0100A372H   LINE      CODE     ---       #327
      0100A372H   LINE      CODE     ---       #329
      0100A374H   LINE      CODE     ---       #330
      ---         BLOCKEND  ---      ---       LVL=0
      00000007H   SYMBOL    DATA     BYTE      chHandle
      00000006H   SYMBOL    DATA     BYTE      status
      00000007H   SYMBOL    DATA     BYTE      chHandle
      00000006H   SYMBOL    DATA     BYTE      status

      0100A48BH   BLOCK     CODE     ---       LVL=0
      00000004H   SYMBOL    DATA     BYTE      chHandle
      00000005H   SYMBOL    DATA     BYTE      priority
      0100A48DH   BLOCK     CODE     NEAR LAB  LVL=1
      00000002H   SYMBOL    DATA     BYTE      value
      00000003H   SYMBOL    DATA     BYTE      status
      ---         BLOCKEND  ---      ---       LVL=1
      0100A48BH   LINE      CODE     ---       #429
      0100A48DH   LINE      CODE     ---       #430
      0100A48DH   LINE      CODE     ---       #432
      0100A48FH   LINE      CODE     ---       #434
      0100A495H   LINE      CODE     ---       #435
      0100A495H   LINE      CODE     ---       #436
      0100A4A8H   LINE      CODE     ---       #438
      0100A4C6H   LINE      CODE     ---       #440
      0100A4C8H   LINE      CODE     ---       #441
      0100A4C8H   LINE      CODE     ---       #443
      0100A4CAH   LINE      CODE     ---       #444
      ---         BLOCKEND  ---      ---       LVL=0

      01009BE2H   BLOCK     CODE     ---       LVL=0
      02000008H   SYMBOL    XDATA    BYTE      chHandle
      02000009H   SYMBOL    XDATA    WORD      source
LX51 LINKER/LOCATER V4.64.0.0                                                         01/11/2017  18:17:27  PAGE 118


      0200000BH   SYMBOL    XDATA    WORD      destination
      01009BF5H   BLOCK     CODE     NEAR LAB  LVL=1
      0200000DH   SYMBOL    XDATA    BYTE      status
      0200000EH   SYMBOL    XDATA    ---       convert
      ---         BLOCKEND  ---      ---       LVL=1
      01009BE2H   LINE      CODE     ---       #470
      01009BF5H   LINE      CODE     ---       #472
      01009BF5H   LINE      CODE     ---       #473
      01009BFBH   LINE      CODE     ---       #492
      01009C01H   LINE      CODE     ---       #493
      01009C01H   LINE      CODE     ---       #495
      01009C18H   LINE      CODE     ---       #496
      01009C28H   LINE      CODE     ---       #499
      01009C3FH   LINE      CODE     ---       #500
      01009C4FH   LINE      CODE     ---       #501
      01009C54H   LINE      CODE     ---       #502
      01009C54H   LINE      CODE     ---       #504
      01009C59H   LINE      CODE     ---       #505
      ---         BLOCKEND  ---      ---       LVL=0

      0100AA67H   BLOCK     CODE     ---       LVL=0
      00000007H   SYMBOL    DATA     BYTE      chHandle
      00000005H   SYMBOL    DATA     BYTE      startTd
      0100AA67H   BLOCK     CODE     NEAR LAB  LVL=1
      00000006H   SYMBOL    DATA     BYTE      status
      ---         BLOCKEND  ---      ---       LVL=1
      0100AA67H   LINE      CODE     ---       #529
      0100AA67H   LINE      CODE     ---       #530
      0100AA67H   LINE      CODE     ---       #531
      0100AA69H   LINE      CODE     ---       #533
      0100AA6FH   LINE      CODE     ---       #534
      0100AA6FH   LINE      CODE     ---       #535
      0100AA80H   LINE      CODE     ---       #536
      0100AA82H   LINE      CODE     ---       #537
      0100AA82H   LINE      CODE     ---       #539
      0100AA84H   LINE      CODE     ---       #540
      ---         BLOCKEND  ---      ---       LVL=0
      00000007H   SYMBOL    DATA     BYTE      chHandle
      00000005H   SYMBOL    DATA     BYTE      request
      00000006H   SYMBOL    DATA     BYTE      status
      00000007H   SYMBOL    DATA     BYTE      chHandle
      00000003H   SYMBOL    DATA     BYTE      status
      00000007H   SYMBOL    DATA     BYTE      chHandle
      00000006H   SYMBOL    DATA     BYTE      status

      01009B69H   BLOCK     CODE     ---       LVL=0
      00000004H   SYMBOL    DATA     BYTE      chHandle
      00000005H   SYMBOL    DATA     BYTE      burstCount
      00000003H   SYMBOL    DATA     BYTE      requestPerBurst
      0200000BH   SYMBOL    XDATA    BYTE      tdDone0
      0200000CH   SYMBOL    XDATA    BYTE      tdDone1
      0200000DH   SYMBOL    XDATA    BYTE      tdStop
      01009B6BH   BLOCK     CODE     NEAR LAB  LVL=1
      00000002H   SYMBOL    DATA     BYTE      status
      ---         BLOCKEND  ---      ---       LVL=1
      01009B69H   LINE      CODE     ---       #716
      01009B6BH   LINE      CODE     ---       #718
      01009B6BH   LINE      CODE     ---       #719
      01009B6DH   LINE      CODE     ---       #721
      01009B73H   LINE      CODE     ---       #722
      01009B73H   LINE      CODE     ---       #723
      01009B91H   LINE      CODE     ---       #724
      01009BB5H   LINE      CODE     ---       #725
      01009BCDH   LINE      CODE     ---       #726
      01009BDEH   LINE      CODE     ---       #728
LX51 LINKER/LOCATER V4.64.0.0                                                         01/11/2017  18:17:27  PAGE 119


      01009BDFH   LINE      CODE     ---       #729
      01009BDFH   LINE      CODE     ---       #731
      01009BE1H   LINE      CODE     ---       #732
      ---         BLOCKEND  ---      ---       LVL=0

      0100A4CBH   BLOCK     CODE     ---       LVL=0
      0100A4CBH   BLOCK     CODE     NEAR LAB  LVL=1
      00000007H   SYMBOL    DATA     BYTE      interruptState
      02000002H   SYMBOL    XDATA    BYTE      element
      ---         BLOCKEND  ---      ---       LVL=1
      0100A4CBH   LINE      CODE     ---       #752
      0100A4CBH   LINE      CODE     ---       #753
      0100A4CBH   LINE      CODE     ---       #755
      0100A4D1H   LINE      CODE     ---       #758
      0100A4D4H   LINE      CODE     ---       #760
      0100A4DDH   LINE      CODE     ---       #761
      0100A4DDH   LINE      CODE     ---       #763
      0100A4E6H   LINE      CODE     ---       #766
      0100A4ECH   LINE      CODE     ---       #769
      0100A500H   LINE      CODE     ---       #770
      0100A500H   LINE      CODE     ---       #773
      0100A503H   LINE      CODE     ---       #775
      0100A508H   LINE      CODE     ---       #776
      ---         BLOCKEND  ---      ---       LVL=0

      01009A67H   BLOCK     CODE     ---       LVL=0
      02000002H   SYMBOL    XDATA    BYTE      tdHandle
      02000003H   SYMBOL    XDATA    WORD      transferCount
      02000005H   SYMBOL    XDATA    BYTE      nextTd
      02000006H   SYMBOL    XDATA    BYTE      configuration
      01009A77H   BLOCK     CODE     NEAR LAB  LVL=1
      02000007H   SYMBOL    XDATA    BYTE      status
      01009A8CH   BLOCK     CODE     NEAR LAB  LVL=2
      02000008H   SYMBOL    XDATA    ---       convert
      ---         BLOCKEND  ---      ---       LVL=2
      ---         BLOCKEND  ---      ---       LVL=1
      01009A67H   LINE      CODE     ---       #891
      01009A77H   LINE      CODE     ---       #893
      01009A77H   LINE      CODE     ---       #894
      01009A7DH   LINE      CODE     ---       #896
      01009A8CH   LINE      CODE     ---       #897
      01009A8CH   LINE      CODE     ---       #899
      01009AA3H   LINE      CODE     ---       #900
      01009AB3H   LINE      CODE     ---       #903
      01009ACDH   LINE      CODE     ---       #906
      01009AE3H   LINE      CODE     ---       #908
      01009AE8H   LINE      CODE     ---       #909
      01009AE8H   LINE      CODE     ---       #911
      01009AEDH   LINE      CODE     ---       #912
      ---         BLOCKEND  ---      ---       LVL=0

      01009C5AH   BLOCK     CODE     ---       LVL=0
      02000002H   SYMBOL    XDATA    BYTE      tdHandle
      02000003H   SYMBOL    XDATA    WORD      source
      02000005H   SYMBOL    XDATA    WORD      destination
      01009C6DH   BLOCK     CODE     NEAR LAB  LVL=1
      02000007H   SYMBOL    XDATA    BYTE      status
      02000008H   SYMBOL    XDATA    ---       convert
      ---         BLOCKEND  ---      ---       LVL=1
      01009C5AH   LINE      CODE     ---       #1010
      01009C6DH   LINE      CODE     ---       #1011
      01009C6DH   LINE      CODE     ---       #1012
      01009C73H   LINE      CODE     ---       #1015
      01009C79H   LINE      CODE     ---       #1016
      01009C79H   LINE      CODE     ---       #1018
LX51 LINKER/LOCATER V4.64.0.0                                                         01/11/2017  18:17:27  PAGE 120


      01009C90H   LINE      CODE     ---       #1019
      01009CA0H   LINE      CODE     ---       #1022
      01009CB7H   LINE      CODE     ---       #1023
      01009CC7H   LINE      CODE     ---       #1025
      01009CCCH   LINE      CODE     ---       #1026
      01009CCCH   LINE      CODE     ---       #1028
      01009CD1H   LINE      CODE     ---       #1029
      ---         BLOCKEND  ---      ---       LVL=0
      00000007H   SYMBOL    DATA     BYTE      chHandle
      00000005H   SYMBOL    DATA     BYTE      enableRR
      00000006H   SYMBOL    DATA     BYTE      status

      ---         MODULE    ---      ---       CYLIB
      02000D61H   PUBLIC    XDATA    DWORD     cydelay_32k_ms
      02000D60H   PUBLIC    XDATA    BYTE      CyResetStatus
      02000D5CH   PUBLIC    XDATA    DWORD     cydelay_freq_hz
      02000D5BH   PUBLIC    XDATA    BYTE      cydelay_freq_mhz
      02000D57H   PUBLIC    XDATA    DWORD     cydelay_freq_khz
      0100AAEEH   PUBLIC    CODE     ---       _CyIntSetPriority
      0100A196H   PUBLIC    CODE     ---       _CyIntSetVector
      010099DFH   PUBLIC    CODE     ---       _?CyDelay
      0100AF7EH   PUBLIC    CODE     ---       CySoftwareReset
      000000CAH   SFRSYM    DATA     BYTE      SFRPRT5SEL
      000000DAH   SFRSYM    DATA     BYTE      SFRPRT6SEL
      000000D0H.6 SFRSYM    DATA     BIT       AC
      000000A8H.7 SFRSYM    DATA     BIT       EA
      000000A8H   SFRSYM    DATA     BYTE      IE
      00000085H   SFRSYM    DATA     BYTE      DPH1
      00000084H   SFRSYM    DATA     BYTE      DPL1
      000000D0H.7 SFRSYM    DATA     BIT       CY
      000000A0H   SFRSYM    DATA     BYTE      P2AX
      00000095H   SFRSYM    DATA     BYTE      DPX1
      00000081H   SFRSYM    DATA     BYTE      SP
      000000D0H.2 SFRSYM    DATA     BIT       OV
      00000080H   SFRSYM    DATA     BYTE      SFRPRT0DR
      00000090H   SFRSYM    DATA     BYTE      SFRPRT1DR
      000000F2H   SFRSYM    DATA     BYTE      SFRPRT12SEL
      00000098H   SFRSYM    DATA     BYTE      SFRPRT2DR
      000000B0H   SFRSYM    DATA     BYTE      SFRPRT3DR
      000000C0H   SFRSYM    DATA     BYTE      SFRPRT4DR
      000000FAH   SFRSYM    DATA     BYTE      SFRPRT15SEL
      000000C8H   SFRSYM    DATA     BYTE      SFRPRT5DR
      000000D8H   SFRSYM    DATA     BYTE      SFRPRT6DR
      00000089H   SFRSYM    DATA     BYTE      SFRPRT0PS
      00000091H   SFRSYM    DATA     BYTE      SFRPRT1PS
      00000099H   SFRSYM    DATA     BYTE      SFRPRT2PS
      000000B1H   SFRSYM    DATA     BYTE      SFRPRT3PS
      000000C1H   SFRSYM    DATA     BYTE      SFRPRT4PS
      000000C9H   SFRSYM    DATA     BYTE      SFRPRT5PS
      000000D9H   SFRSYM    DATA     BYTE      SFRPRT6PS
      000000EAH   SFRSYM    DATA     BYTE      MXAX
      000000F0H   SFRSYM    DATA     BYTE      B
      000000E0H   SFRSYM    DATA     BYTE      ACC
      000000D0H   SFRSYM    DATA     BIT       P
      000000D0H.3 SFRSYM    DATA     BIT       RS0
      000000D0H.4 SFRSYM    DATA     BIT       RS1
      00000083H   SFRSYM    DATA     BYTE      DPH
      000000E8H   SFRSYM    DATA     BYTE      SFRPRT12DR
      00000082H   SFRSYM    DATA     BYTE      DPL
      000000F8H   SFRSYM    DATA     BYTE      SFRPRT15DR
      00000086H   SFRSYM    DATA     BYTE      DPS
      000000E9H   SFRSYM    DATA     BYTE      SFRPRT12PS
      00000093H   SFRSYM    DATA     BYTE      DPX
      000000F9H   SFRSYM    DATA     BYTE      SFRPRT15PS
      000000D0H.5 SFRSYM    DATA     BIT       F0
LX51 LINKER/LOCATER V4.64.0.0                                                         01/11/2017  18:17:27  PAGE 121


      000000D0H.1 SFRSYM    DATA     BIT       F1
      0000008AH   SFRSYM    DATA     BYTE      SFRPRT0SEL
      000000D0H   SFRSYM    DATA     BYTE      PSW
      000000A2H   SFRSYM    DATA     BYTE      SFRPRT1SEL
      0000009AH   SFRSYM    DATA     BYTE      SFRPRT2SEL
      000000B2H   SFRSYM    DATA     BYTE      SFRPRT3SEL
      000000C2H   SFRSYM    DATA     BYTE      SFRPRT4SEL
      00000007H   SYMBOL    DATA     BYTE      wait
      00000007H   SYMBOL    DATA     BYTE      pDiv
      00000005H   SYMBOL    DATA     BYTE      qDiv
      00000003H   SYMBOL    DATA     BYTE      current
      00000007H   SYMBOL    DATA     BYTE      source
      00000007H   SYMBOL    DATA     BYTE      wait
      00000007H   SYMBOL    DATA     BYTE      poweredOn
      00000006H   SYMBOL    DATA     BYTE      freq
      00000007H   SYMBOL    DATA     BYTE      source
      00000007H   SYMBOL    DATA     BYTE      source
      00000007H   SYMBOL    DATA     BYTE      divider
      00000006H   SYMBOL    DATA     WORD      divider
      00000005H   SYMBOL    DATA     BYTE      masterClkDiv
      00000006H   SYMBOL    DATA     WORD      busClkDiv
      00000001H   SYMBOL    DATA     BYTE      interruptState
      00000007H   SYMBOL    DATA     BYTE      divider
      00000007H   SYMBOL    DATA     BYTE      source
      00000007H   SYMBOL    DATA     BYTE      source
      00000007H   SYMBOL    DATA     BYTE      mode
      00000006H   SYMBOL    DATA     BYTE      state
      00000007H   SYMBOL    DATA     BYTE      mode
      00000007H   SYMBOL    DATA     BYTE      wait
      00000007H   SYMBOL    DATA     BYTE      setting
      00000007H   SYMBOL    DATA     BYTE      setting
      00000007H   SYMBOL    DATA     BYTE      setting
      00000000H   SYMBOL    XSTK     BYTE      reason

      0100AF7EH   BLOCK     CODE     ---       LVL=0
      0100AF7EH   LINE      CODE     ---       #1666
      0100AF7EH   LINE      CODE     ---       #1667
      0100AF7EH   LINE      CODE     ---       #1668
      0100AF85H   LINE      CODE     ---       #1669
      ---         BLOCKEND  ---      ---       LVL=0

      010099DFH   BLOCK     CODE     ---       LVL=0
      00000000H   SYMBOL    XSTK     DWORD     milliseconds
      010099DFH   LINE      CODE     ---       #1692
      010099E8H   LINE      CODE     ---       #1694
      010099FEH   LINE      CODE     ---       #1695
      010099FEH   LINE      CODE     ---       #1700
      01009A0FH   LINE      CODE     ---       #1701
      01009A39H   LINE      CODE     ---       #1702
      01009A3BH   LINE      CODE     ---       #1704
      01009A60H   LINE      CODE     ---       #1705
      ---         BLOCKEND  ---      ---       LVL=0
      00000000H   SYMBOL    XSTK     DWORD     freq
      00000007H   SYMBOL    DATA     BYTE      ticks
      00000005H   SYMBOL    DATA     BYTE      lpMode
      02000D56H   SYMBOL    XDATA    BYTE      interruptStatus
      00000005H   SYMBOL    DATA     BYTE      interruptState
      00000005H   SYMBOL    DATA     BYTE      interruptState
      00000003H   SYMBOL    DATA     BYTE      interruptState

      0100A196H   BLOCK     CODE     ---       LVL=0
      02000002H   SYMBOL    XDATA    BYTE      number
      02000003H   SYMBOL    XDATA    ---       address
      0100A1A3H   BLOCK     CODE     NEAR LAB  LVL=1
      02000005H   SYMBOL    XDATA    ---       oldIsr
LX51 LINKER/LOCATER V4.64.0.0                                                         01/11/2017  18:17:27  PAGE 122


      ---         BLOCKEND  ---      ---       LVL=1
      0100A196H   LINE      CODE     ---       #2633
      0100A1A3H   LINE      CODE     ---       #2634
      0100A1A3H   LINE      CODE     ---       #2640
      0100A1C1H   LINE      CODE     ---       #2644
      0100A1E1H   LINE      CODE     ---       #2646
      0100A1E9H   LINE      CODE     ---       #2647
      ---         BLOCKEND  ---      ---       LVL=0
      00000007H   SYMBOL    DATA     BYTE      number

      0100AAEEH   BLOCK     CODE     ---       LVL=0
      00000004H   SYMBOL    DATA     BYTE      number
      00000005H   SYMBOL    DATA     BYTE      priority
      0100AAEEH   LINE      CODE     ---       #2688
      0100AAF0H   LINE      CODE     ---       #2689
      0100AAF0H   LINE      CODE     ---       #2694
      0100AB06H   LINE      CODE     ---       #2696
      ---         BLOCKEND  ---      ---       LVL=0
      00000007H   SYMBOL    DATA     BYTE      number
      00000007H   SYMBOL    DATA     BYTE      priority
      00000005H   SYMBOL    DATA     BYTE      number
      00000006H   SYMBOL    DATA     ---       stateReg

      ---         MODULE    ---      ---       ?C_STARTUP
      00000000H   PUBLIC    NUMBER   ---       ?C?XPAGE1RST
      00000093H   PUBLIC    DATA     BYTE      ?C?XPAGE1SFR
      01002600H   PUBLIC    CODE     NEAR LAB  ?C_STARTUP
      01008E45H   PUBLIC    CODE     NEAR LAB  STARTUP1
      01002604H   PUBLIC    CODE     NEAR LAB  _dma_wait

      ---         MODULE    ---      ---       CYFITTER_CFG
      0100BC4AH   PUBLIC    CONST    ---       ADC_AMux__maskTable
      0100BC46H   PUBLIC    CONST    ---       ADC_AMux__addrTable
      01009073H   PUBLIC    CODE     ---       cyfitter_cfg
      0100A7ABH   PUBLIC    CODE     ---       _ADC_AMux_Unset
      0100A80DH   PUBLIC    CODE     ---       _ADC_AMux_Set
      000000CAH   SFRSYM    DATA     BYTE      SFRPRT5SEL
      000000DAH   SFRSYM    DATA     BYTE      SFRPRT6SEL
      000000D0H.6 SFRSYM    DATA     BIT       AC
      000000A8H.7 SFRSYM    DATA     BIT       EA
      000000A8H   SFRSYM    DATA     BYTE      IE
      00000085H   SFRSYM    DATA     BYTE      DPH1
      00000084H   SFRSYM    DATA     BYTE      DPL1
      000000D0H.7 SFRSYM    DATA     BIT       CY
      000000A0H   SFRSYM    DATA     BYTE      P2AX
      00000095H   SFRSYM    DATA     BYTE      DPX1
      00000081H   SFRSYM    DATA     BYTE      SP
      000000D0H.2 SFRSYM    DATA     BIT       OV
      00000080H   SFRSYM    DATA     BYTE      SFRPRT0DR
      00000090H   SFRSYM    DATA     BYTE      SFRPRT1DR
      000000F2H   SFRSYM    DATA     BYTE      SFRPRT12SEL
      00000098H   SFRSYM    DATA     BYTE      SFRPRT2DR
      000000B0H   SFRSYM    DATA     BYTE      SFRPRT3DR
      000000C0H   SFRSYM    DATA     BYTE      SFRPRT4DR
      000000FAH   SFRSYM    DATA     BYTE      SFRPRT15SEL
      000000C8H   SFRSYM    DATA     BYTE      SFRPRT5DR
      000000D8H   SFRSYM    DATA     BYTE      SFRPRT6DR
      00000089H   SFRSYM    DATA     BYTE      SFRPRT0PS
      00000091H   SFRSYM    DATA     BYTE      SFRPRT1PS
      00000099H   SFRSYM    DATA     BYTE      SFRPRT2PS
      000000B1H   SFRSYM    DATA     BYTE      SFRPRT3PS
      000000C1H   SFRSYM    DATA     BYTE      SFRPRT4PS
      000000C9H   SFRSYM    DATA     BYTE      SFRPRT5PS
      000000D9H   SFRSYM    DATA     BYTE      SFRPRT6PS
      000000EAH   SFRSYM    DATA     BYTE      MXAX
LX51 LINKER/LOCATER V4.64.0.0                                                         01/11/2017  18:17:27  PAGE 123


      000000F0H   SFRSYM    DATA     BYTE      B
      000000E0H   SFRSYM    DATA     BYTE      ACC
      000000D0H   SFRSYM    DATA     BIT       P
      000000D0H.3 SFRSYM    DATA     BIT       RS0
      000000D0H.4 SFRSYM    DATA     BIT       RS1
      00000083H   SFRSYM    DATA     BYTE      DPH
      000000E8H   SFRSYM    DATA     BYTE      SFRPRT12DR
      00000082H   SFRSYM    DATA     BYTE      DPL
      000000F8H   SFRSYM    DATA     BYTE      SFRPRT15DR
      00000086H   SFRSYM    DATA     BYTE      DPS
      000000E9H   SFRSYM    DATA     BYTE      SFRPRT12PS
      00000093H   SFRSYM    DATA     BYTE      DPX
      000000F9H   SFRSYM    DATA     BYTE      SFRPRT15PS
      000000D0H.5 SFRSYM    DATA     BIT       F0
      000000D0H.1 SFRSYM    DATA     BIT       F1
      0000008AH   SFRSYM    DATA     BYTE      SFRPRT0SEL
      000000D0H   SFRSYM    DATA     BYTE      PSW
      000000A2H   SFRSYM    DATA     BYTE      SFRPRT1SEL
      0000009AH   SFRSYM    DATA     BYTE      SFRPRT2SEL
      000000B2H   SFRSYM    DATA     BYTE      SFRPRT3SEL
      000000C2H   SFRSYM    DATA     BYTE      SFRPRT4SEL
      01008594H   SYMBOL    CODE     ---       ClockSetup
      0100B08EH   SYMBOL    CODE     ---       _CyClockStartupError
      0100A8C9H   SYMBOL    CODE     ---       AnalogSetDefault
      01009282H   SYMBOL    CODE     ---       cfg_dma_init

      0100B08EH   BLOCK     CODE     ---       LVL=0
      02000000H   SYMBOL    XDATA    BYTE      errorCode
      0100B08EH   LINE      CODE     ---       #72
      0100B08EH   LINE      CODE     ---       #73
      0100B08EH   LINE      CODE     ---       #75
      0100B08EH   LINE      CODE     ---       #87
      ---         BLOCKEND  ---      ---       LVL=0

      01009282H   BLOCK     CODE     ---       LVL=0
      01009282H   BLOCK     CODE     NEAR LAB  LVL=1
      0100B095H   SYMBOL    CONST    ---       BS_UDB_2_4_HV_ROUTING_VAL
      0100B115H   SYMBOL    CONST    ---       BS_UDBSWITCH_0_5_VAL
      0100B195H   SYMBOL    CONST    ---       BS_UDB_1_5_HV_ROUTING_VAL
      0100B215H   SYMBOL    CONST    ---       BS_UDBSWITCH_1_5_VAL
      0100B295H   SYMBOL    CONST    ---       BS_UDB_2_5_HV_ROUTING_VAL
      0100B315H   SYMBOL    CONST    ---       BS_DSISWITCH_1_0_VAL
      0100B395H   SYMBOL    CONST    ---       BS_DSI3_0_HV_ROUTING_VAL
      0100B415H   SYMBOL    CONST    ---       BS_DSISWITCH_1_1_VAL
      0100B495H   SYMBOL    CONST    ---       BS_DSI3_1_HV_ROUTING_VAL
      0100B515H   SYMBOL    CONST    ---       BS_DSISWITCH_1_2_VAL
      0100B595H   SYMBOL    CONST    ---       BS_DSI3_2_HV_ROUTING_VAL
      0100B615H   SYMBOL    CONST    ---       BS_DSISWITCH_1_3_VAL
      0100B695H   SYMBOL    CONST    ---       BS_DSI3_3_HV_ROUTING_VAL
      0100B715H   SYMBOL    CONST    ---       BS_DSISWITCH_1_4_VAL
      0100B795H   SYMBOL    CONST    ---       BS_DSI3_4_HV_ROUTING_VAL
      0100B815H   SYMBOL    CONST    ---       BS_DSISWITCH_1_5_VAL
      0100B895H   SYMBOL    CONST    ---       BS_DSI3_5_HV_ROUTING_VAL
      0100B915H   SYMBOL    CONST    ---       CH1_ADDR_DATA0
      0100B91DH   SYMBOL    CONST    ---       CH2_ADDR_DATA0
      0100B925H   SYMBOL    CONST    ---       CH4_ADDR_DATA0
      0100B92DH   SYMBOL    CONST    ---       CH5_ADDR_DATA0
      0100B935H   SYMBOL    CONST    ---       CH6_ADDR_DATA0
      0100B93DH   SYMBOL    CONST    ---       DMA_TD_START_CMD
      02000D70H   SYMBOL    XDATA    DWORD     DMA_ZERO_VAL
      0100B942H   SYMBOL    CONST    ---       CFG_TD_LIST0
      ---         BLOCKEND  ---      ---       LVL=1
      01009282H   LINE      CODE     ---       #309
      01009282H   LINE      CODE     ---       #310
      01009282H   LINE      CODE     ---       #629
LX51 LINKER/LOCATER V4.64.0.0                                                         01/11/2017  18:17:27  PAGE 124


      0100928DH   LINE      CODE     ---       #630
      01009293H   LINE      CODE     ---       #631
      01009299H   LINE      CODE     ---       #632
      0100929EH   LINE      CODE     ---       #633
      010092A9H   LINE      CODE     ---       #634
      010092AFH   LINE      CODE     ---       #635
      010092B3H   LINE      CODE     ---       #636
      010092D5H   LINE      CODE     ---       #637
      010092E2H   LINE      CODE     ---       #638
      010092EFH   LINE      CODE     ---       #639
      010092FBH   LINE      CODE     ---       #640
      01009301H   LINE      CODE     ---       #641
      01009306H   LINE      CODE     ---       #642
      0100930CH   LINE      CODE     ---       #643
      01009312H   LINE      CODE     ---       #644
      01009318H   LINE      CODE     ---       #646
      01009318H   LINE      CODE     ---       #647
      0100931EH   LINE      CODE     ---       #648
      0100931EH   LINE      CODE     ---       #651
      01009326H   LINE      CODE     ---       #652
      0100932EH   LINE      CODE     ---       #653
      01009336H   LINE      CODE     ---       #654
      0100933EH   LINE      CODE     ---       #655
      01009346H   LINE      CODE     ---       #656
      0100934EH   LINE      CODE     ---       #659
      01009369H   LINE      CODE     ---       #661
      ---         BLOCKEND  ---      ---       LVL=0

      01008594H   BLOCK     CODE     ---       LVL=0
      01008594H   BLOCK     CODE     NEAR LAB  LVL=1
      0100BC42H   SYMBOL    CONST    ---       BS_CYDEV_CLKDIST_ACFG0_CFG0_VAL
      02000000H   SYMBOL    XDATA    DWORD     timeout
      02000004H   SYMBOL    XDATA    BYTE      pllLock
      ---         BLOCKEND  ---      ---       LVL=1
      01008594H   LINE      CODE     ---       #679
      01008594H   LINE      CODE     ---       #680
      01008594H   LINE      CODE     ---       #690
      010085A1H   LINE      CODE     ---       #691
      010085A7H   LINE      CODE     ---       #692
      010085B3H   LINE      CODE     ---       #693
      010085B9H   LINE      CODE     ---       #694
      010085C6H   LINE      CODE     ---       #695
      010085CCH   LINE      CODE     ---       #696
      010085D9H   LINE      CODE     ---       #697
      010085DFH   LINE      CODE     ---       #698
      010085ECH   LINE      CODE     ---       #699
      010085F2H   LINE      CODE     ---       #700
      010085FFH   LINE      CODE     ---       #701
      01008605H   LINE      CODE     ---       #704
      01008616H   LINE      CODE     ---       #707
      0100861CH   LINE      CODE     ---       #710
      01008622H   LINE      CODE     ---       #711
      01008630H   LINE      CODE     ---       #714
      0100863DH   LINE      CODE     ---       #715
      0100864AH   LINE      CODE     ---       #717
      0100864FH   LINE      CODE     ---       #718
      01008674H   LINE      CODE     ---       #719
      01008674H   LINE      CODE     ---       #720
      01008685H   LINE      CODE     ---       #721
      0100868FH   LINE      CODE     ---       #722
      010086B7H   LINE      CODE     ---       #724
      010086C5H   LINE      CODE     ---       #725
      010086C5H   LINE      CODE     ---       #726
      010086CAH   LINE      CODE     ---       #727
      010086CAH   LINE      CODE     ---       #730
LX51 LINKER/LOCATER V4.64.0.0                                                         01/11/2017  18:17:27  PAGE 125


      010086D7H   LINE      CODE     ---       #731
      010086DDH   LINE      CODE     ---       #732
      010086E2H   LINE      CODE     ---       #733
      010086E8H   LINE      CODE     ---       #734
      010086EDH   LINE      CODE     ---       #737
      010086F1H   LINE      CODE     ---       #738
      010086F7H   LINE      CODE     ---       #739
      010086FDH   LINE      CODE     ---       #741
      01008704H   LINE      CODE     ---       #742
      0100870BH   LINE      CODE     ---       #743
      01008712H   LINE      CODE     ---       #744
      ---         BLOCKEND  ---      ---       LVL=0

      0100A8C9H   BLOCK     CODE     ---       LVL=0
      0100A8C9H   BLOCK     CODE     NEAR LAB  LVL=1
      00000007H   SYMBOL    DATA     BYTE      bg_xover_inl_trim
      ---         BLOCKEND  ---      ---       LVL=1
      0100A8C9H   LINE      CODE     ---       #766
      0100A8C9H   LINE      CODE     ---       #767
      0100A8C9H   LINE      CODE     ---       #768
      0100A8D2H   LINE      CODE     ---       #769
      0100A8D9H   LINE      CODE     ---       #770
      0100A8DFH   LINE      CODE     ---       #771
      0100A8E5H   LINE      CODE     ---       #772
      0100A8E9H   LINE      CODE     ---       #773
      0100A8EFH   LINE      CODE     ---       #774
      ---         BLOCKEND  ---      ---       LVL=0
      00000007H   SYMBOL    DATA     BYTE      enabled
      00000006H   SYMBOL    DATA     BYTE      regValue

      0100A80DH   BLOCK     CODE     ---       LVL=0
      00000007H   SYMBOL    DATA     BYTE      channel
      0100A80DH   LINE      CODE     ---       #836
      0100A80DH   LINE      CODE     ---       #837
      0100A80DH   LINE      CODE     ---       #838
      0100A813H   LINE      CODE     ---       #839
      0100A813H   LINE      CODE     ---       #840
      0100A83CH   LINE      CODE     ---       #841
      0100A83CH   LINE      CODE     ---       #842
      ---         BLOCKEND  ---      ---       LVL=0

      0100A7ABH   BLOCK     CODE     ---       LVL=0
      00000007H   SYMBOL    DATA     BYTE      channel
      0100A7ABH   LINE      CODE     ---       #858
      0100A7ABH   LINE      CODE     ---       #859
      0100A7ABH   LINE      CODE     ---       #860
      0100A7B1H   LINE      CODE     ---       #861
      0100A7B1H   LINE      CODE     ---       #862
      0100A7DBH   LINE      CODE     ---       #863
      0100A7DBH   LINE      CODE     ---       #864
      ---         BLOCKEND  ---      ---       LVL=0

      01009073H   BLOCK     CODE     ---       LVL=0
      01009073H   BLOCK     CODE     NEAR LAB  LVL=1
      0100BC4CH   SYMBOL    CONST    ---       BS_IOPINS0_0_VAL
      0100BC54H   SYMBOL    CONST    ---       BS_IOPINS0_7_VAL
      0100BC5CH   SYMBOL    CONST    ---       BS_IOPINS0_8_VAL
      0100BC66H   SYMBOL    CONST    ---       BS_IOPINS0_1_VAL
      0100BC70H   SYMBOL    CONST    ---       BS_IOPINS0_2_VAL
      0100BC78H   SYMBOL    CONST    ---       BS_PHUB_CFGMEM10_VAL
      ---         BLOCKEND  ---      ---       LVL=1
      01009073H   LINE      CODE     ---       #885
      01009073H   LINE      CODE     ---       #886
      01009073H   LINE      CODE     ---       #912
      01009089H   LINE      CODE     ---       #914
LX51 LINKER/LOCATER V4.64.0.0                                                         01/11/2017  18:17:27  PAGE 126


      01009089H   LINE      CODE     ---       #915
      0100908CH   LINE      CODE     ---       #918
      01009092H   LINE      CODE     ---       #919
      010090A3H   LINE      CODE     ---       #922
      010090B9H   LINE      CODE     ---       #923
      010090CFH   LINE      CODE     ---       #926
      010090D6H   LINE      CODE     ---       #927
      010090DDH   LINE      CODE     ---       #928
      010090DDH   LINE      CODE     ---       #932
      010090EEH   LINE      CODE     ---       #933
      010090FFH   LINE      CODE     ---       #934
      01009110H   LINE      CODE     ---       #935
      01009121H   LINE      CODE     ---       #936
      01009132H   LINE      CODE     ---       #937
      01009138H   LINE      CODE     ---       #939
      0100913FH   LINE      CODE     ---       #940
      01009148H   LINE      CODE     ---       #941
      01009148H   LINE      CODE     ---       #942
      0100914EH   LINE      CODE     ---       #943
      0100914EH   LINE      CODE     ---       #947
      01009154H   LINE      CODE     ---       #949
      01009157H   LINE      CODE     ---       #952
      0100915AH   LINE      CODE     ---       #955
      0100917BH   LINE      CODE     ---       #956
      01009182H   LINE      CODE     ---       #957
      ---         BLOCKEND  ---      ---       LVL=0

      ---         MODULE    ---      ---       UART_RS485_INT
      010095ACH   PUBLIC    CODE     ---       UART_RS485_RXISR
      000000CAH   SFRSYM    DATA     BYTE      SFRPRT5SEL
      000000DAH   SFRSYM    DATA     BYTE      SFRPRT6SEL
      000000D0H.6 SFRSYM    DATA     BIT       AC
      000000A8H.7 SFRSYM    DATA     BIT       EA
      000000A8H   SFRSYM    DATA     BYTE      IE
      00000085H   SFRSYM    DATA     BYTE      DPH1
      00000084H   SFRSYM    DATA     BYTE      DPL1
      000000D0H.7 SFRSYM    DATA     BIT       CY
      000000A0H   SFRSYM    DATA     BYTE      P2AX
      00000095H   SFRSYM    DATA     BYTE      DPX1
      00000081H   SFRSYM    DATA     BYTE      SP
      000000D0H.2 SFRSYM    DATA     BIT       OV
      00000080H   SFRSYM    DATA     BYTE      SFRPRT0DR
      00000090H   SFRSYM    DATA     BYTE      SFRPRT1DR
      000000F2H   SFRSYM    DATA     BYTE      SFRPRT12SEL
      00000098H   SFRSYM    DATA     BYTE      SFRPRT2DR
      000000B0H   SFRSYM    DATA     BYTE      SFRPRT3DR
      000000C0H   SFRSYM    DATA     BYTE      SFRPRT4DR
      000000FAH   SFRSYM    DATA     BYTE      SFRPRT15SEL
      000000C8H   SFRSYM    DATA     BYTE      SFRPRT5DR
      000000D8H   SFRSYM    DATA     BYTE      SFRPRT6DR
      00000089H   SFRSYM    DATA     BYTE      SFRPRT0PS
      00000091H   SFRSYM    DATA     BYTE      SFRPRT1PS
      00000099H   SFRSYM    DATA     BYTE      SFRPRT2PS
      000000B1H   SFRSYM    DATA     BYTE      SFRPRT3PS
      000000C1H   SFRSYM    DATA     BYTE      SFRPRT4PS
      000000C9H   SFRSYM    DATA     BYTE      SFRPRT5PS
      000000D9H   SFRSYM    DATA     BYTE      SFRPRT6PS
      000000EAH   SFRSYM    DATA     BYTE      MXAX
      000000F0H   SFRSYM    DATA     BYTE      B
      000000E0H   SFRSYM    DATA     BYTE      ACC
      000000D0H   SFRSYM    DATA     BIT       P
      000000D0H.3 SFRSYM    DATA     BIT       RS0
      000000D0H.4 SFRSYM    DATA     BIT       RS1
      00000083H   SFRSYM    DATA     BYTE      DPH
      000000E8H   SFRSYM    DATA     BYTE      SFRPRT12DR
LX51 LINKER/LOCATER V4.64.0.0                                                         01/11/2017  18:17:27  PAGE 127


      00000082H   SFRSYM    DATA     BYTE      DPL
      000000F8H   SFRSYM    DATA     BYTE      SFRPRT15DR
      00000086H   SFRSYM    DATA     BYTE      DPS
      000000E9H   SFRSYM    DATA     BYTE      SFRPRT12PS
      00000093H   SFRSYM    DATA     BYTE      DPX
      000000F9H   SFRSYM    DATA     BYTE      SFRPRT15PS
      000000D0H.5 SFRSYM    DATA     BIT       F0
      000000D0H.1 SFRSYM    DATA     BIT       F1
      0000008AH   SFRSYM    DATA     BYTE      SFRPRT0SEL
      000000D0H   SFRSYM    DATA     BYTE      PSW
      000000A2H   SFRSYM    DATA     BYTE      SFRPRT1SEL
      0000009AH   SFRSYM    DATA     BYTE      SFRPRT2SEL
      000000B2H   SFRSYM    DATA     BYTE      SFRPRT3SEL
      000000C2H   SFRSYM    DATA     BYTE      SFRPRT4SEL

      010095ACH   BLOCK     CODE     ---       LVL=0
      010095CFH   BLOCK     CODE     NEAR LAB  LVL=1
      00000006H   SYMBOL    DATA     BYTE      readData
      00000007H   SYMBOL    DATA     BYTE      readStatus
      00000003H   SYMBOL    DATA     BYTE      increment_pointer
      00000002H   SYMBOL    DATA     BYTE      int_en
      ---         BLOCKEND  ---      ---       LVL=1
      010095ACH   LINE      CODE     ---       #59
      010095CFH   LINE      CODE     ---       #63
      010095D1H   LINE      CODE     ---       #79
      010095D5H   LINE      CODE     ---       #80
      010095DDH   LINE      CODE     ---       #84
      010095DDH   LINE      CODE     ---       #86
      010095E2H   LINE      CODE     ---       #90
      010095E3H   LINE      CODE     ---       #95
      010095E8H   LINE      CODE     ---       #96
      010095E8H   LINE      CODE     ---       #101
      010095EEH   LINE      CODE     ---       #109
      010095EEH   LINE      CODE     ---       #111
      010095F2H   LINE      CODE     ---       #112
      010095F2H   LINE      CODE     ---       #114
      010095F7H   LINE      CODE     ---       #141
      01009606H   LINE      CODE     ---       #142
      01009608H   LINE      CODE     ---       #146
      0100960BH   LINE      CODE     ---       #147
      0100960BH   LINE      CODE     ---       #148
      01009611H   LINE      CODE     ---       #149
      01009611H   LINE      CODE     ---       #150
      01009617H   LINE      CODE     ---       #151
      01009617H   LINE      CODE     ---       #153
      0100961DH   LINE      CODE     ---       #156
      01009623H   LINE      CODE     ---       #157
      01009623H   LINE      CODE     ---       #158
      01009625H   LINE      CODE     ---       #159
      01009625H   LINE      CODE     ---       #162
      01009631H   LINE      CODE     ---       #163
      01009631H   LINE      CODE     ---       #164
      01009637H   LINE      CODE     ---       #172
      01009637H   LINE      CODE     ---       #173
      01009637H   LINE      CODE     ---       #174
      01009637H   LINE      CODE     ---       #175
      0100963BH   LINE      CODE     ---       #187
      01009642H   LINE      CODE     ---       #189
      ---         BLOCKEND  ---      ---       LVL=0

      ---         MODULE    ---      ---       ADC_INT
      0100B094H   PUBLIC    CODE     ---       ADC_ISR4
      0100B093H   PUBLIC    CODE     ---       ADC_ISR3
      0100B092H   PUBLIC    CODE     ---       ADC_ISR2
      0100B091H   PUBLIC    CODE     ---       ADC_ISR1
LX51 LINKER/LOCATER V4.64.0.0                                                         01/11/2017  18:17:27  PAGE 128


      000000CAH   SFRSYM    DATA     BYTE      SFRPRT5SEL
      000000DAH   SFRSYM    DATA     BYTE      SFRPRT6SEL
      000000D0H.6 SFRSYM    DATA     BIT       AC
      000000A8H.7 SFRSYM    DATA     BIT       EA
      000000A8H   SFRSYM    DATA     BYTE      IE
      00000085H   SFRSYM    DATA     BYTE      DPH1
      00000084H   SFRSYM    DATA     BYTE      DPL1
      000000D0H.7 SFRSYM    DATA     BIT       CY
      000000A0H   SFRSYM    DATA     BYTE      P2AX
      00000095H   SFRSYM    DATA     BYTE      DPX1
      00000081H   SFRSYM    DATA     BYTE      SP
      000000D0H.2 SFRSYM    DATA     BIT       OV
      00000080H   SFRSYM    DATA     BYTE      SFRPRT0DR
      00000090H   SFRSYM    DATA     BYTE      SFRPRT1DR
      000000F2H   SFRSYM    DATA     BYTE      SFRPRT12SEL
      00000098H   SFRSYM    DATA     BYTE      SFRPRT2DR
      000000B0H   SFRSYM    DATA     BYTE      SFRPRT3DR
      000000C0H   SFRSYM    DATA     BYTE      SFRPRT4DR
      000000FAH   SFRSYM    DATA     BYTE      SFRPRT15SEL
      000000C8H   SFRSYM    DATA     BYTE      SFRPRT5DR
      000000D8H   SFRSYM    DATA     BYTE      SFRPRT6DR
      00000089H   SFRSYM    DATA     BYTE      SFRPRT0PS
      00000091H   SFRSYM    DATA     BYTE      SFRPRT1PS
      00000099H   SFRSYM    DATA     BYTE      SFRPRT2PS
      000000B1H   SFRSYM    DATA     BYTE      SFRPRT3PS
      000000C1H   SFRSYM    DATA     BYTE      SFRPRT4PS
      000000C9H   SFRSYM    DATA     BYTE      SFRPRT5PS
      000000D9H   SFRSYM    DATA     BYTE      SFRPRT6PS
      000000EAH   SFRSYM    DATA     BYTE      MXAX
      000000F0H   SFRSYM    DATA     BYTE      B
      000000E0H   SFRSYM    DATA     BYTE      ACC
      000000D0H   SFRSYM    DATA     BIT       P
      000000D0H.3 SFRSYM    DATA     BIT       RS0
      000000D0H.4 SFRSYM    DATA     BIT       RS1
      00000083H   SFRSYM    DATA     BYTE      DPH
      000000E8H   SFRSYM    DATA     BYTE      SFRPRT12DR
      00000082H   SFRSYM    DATA     BYTE      DPL
      000000F8H   SFRSYM    DATA     BYTE      SFRPRT15DR
      00000086H   SFRSYM    DATA     BYTE      DPS
      000000E9H   SFRSYM    DATA     BYTE      SFRPRT12PS
      00000093H   SFRSYM    DATA     BYTE      DPX
      000000F9H   SFRSYM    DATA     BYTE      SFRPRT15PS
      000000D0H.5 SFRSYM    DATA     BIT       F0
      000000D0H.1 SFRSYM    DATA     BIT       F1
      0000008AH   SFRSYM    DATA     BYTE      SFRPRT0SEL
      000000D0H   SFRSYM    DATA     BYTE      PSW
      000000A2H   SFRSYM    DATA     BYTE      SFRPRT1SEL
      0000009AH   SFRSYM    DATA     BYTE      SFRPRT2SEL
      000000B2H   SFRSYM    DATA     BYTE      SFRPRT3SEL
      000000C2H   SFRSYM    DATA     BYTE      SFRPRT4SEL

      0100B091H   BLOCK     CODE     ---       LVL=0
      0100B091H   LINE      CODE     ---       #51
      0100B091H   LINE      CODE     ---       #81
      ---         BLOCKEND  ---      ---       LVL=0

      0100B092H   BLOCK     CODE     ---       LVL=0
      0100B092H   LINE      CODE     ---       #101
      0100B092H   LINE      CODE     ---       #131
      ---         BLOCKEND  ---      ---       LVL=0

      0100B093H   BLOCK     CODE     ---       LVL=0
      0100B093H   LINE      CODE     ---       #151
      0100B093H   LINE      CODE     ---       #181
      ---         BLOCKEND  ---      ---       LVL=0
LX51 LINKER/LOCATER V4.64.0.0                                                         01/11/2017  18:17:27  PAGE 129



      0100B094H   BLOCK     CODE     ---       LVL=0
      0100B094H   LINE      CODE     ---       #201
      0100B094H   LINE      CODE     ---       #231
      ---         BLOCKEND  ---      ---       LVL=0

      ---         MODULE    ---      ---       ADC_AMUX
      0100AB07H   PUBLIC    CODE     ---       _ADC_AMux_Select
      0100A9C9H   PUBLIC    CODE     ---       ADC_AMux_Start
      02000D80H   SYMBOL    XDATA    BYTE      ADC_AMux_lastChannel

      0100A9C9H   BLOCK     CODE     ---       LVL=0
      0100A9C9H   BLOCK     CODE     NEAR LAB  LVL=1
      02000003H   SYMBOL    XDATA    BYTE      chan
      ---         BLOCKEND  ---      ---       LVL=1
      0100A9C9H   LINE      CODE     ---       #36
      0100A9C9H   LINE      CODE     ---       #37
      0100A9C9H   LINE      CODE     ---       #40
      0100A9D8H   LINE      CODE     ---       #41
      0100A9D8H   LINE      CODE     ---       #43
      0100A9DBH   LINE      CODE     ---       #48
      0100A9E3H   LINE      CODE     ---       #50
      0100A9E9H   LINE      CODE     ---       #51
      ---         BLOCKEND  ---      ---       LVL=0

      0100AB07H   BLOCK     CODE     ---       LVL=0
      02000002H   SYMBOL    XDATA    BYTE      channel
      0100AB07H   LINE      CODE     ---       #69
      0100AB0CH   LINE      CODE     ---       #70
      0100AB0CH   LINE      CODE     ---       #71
      0100AB0FH   LINE      CODE     ---       #72
      0100AB17H   LINE      CODE     ---       #73
      0100AB1FH   LINE      CODE     ---       #74
      ---         BLOCKEND  ---      ---       LVL=0

      ---         MODULE    ---      ---       ADC_EXT_CP_CLK
      0100AF86H   PUBLIC    CODE     ---       ADC_Ext_CP_Clk_GetSourceRegister
      0100AE6AH   PUBLIC    CODE     ---       _ADC_Ext_CP_Clk_SetModeRegister
      0100AF5AH   PUBLIC    CODE     ---       ADC_Ext_CP_Clk_GetDividerRegister
      01008871H   PUBLIC    CODE     ---       _ADC_Ext_CP_Clk_SetDividerRegister
      00000007H   SYMBOL    DATA     BYTE      state

      01008871H   BLOCK     CODE     ---       LVL=0
      02000002H   SYMBOL    XDATA    WORD      clkDivider
      02000004H   SYMBOL    XDATA    BYTE      restart
      0100887CH   BLOCK     CODE     NEAR LAB  LVL=1
      02000005H   SYMBOL    XDATA    BYTE      enabled
      02000006H   SYMBOL    XDATA    BYTE      currSrc
      02000007H   SYMBOL    XDATA    WORD      oldDivider
      ---         BLOCKEND  ---      ---       LVL=1
      01008871H   LINE      CODE     ---       #193
      0100887CH   LINE      CODE     ---       #195
      0100887CH   LINE      CODE     ---       #198
      01008884H   LINE      CODE     ---       #199
      0100888FH   LINE      CODE     ---       #201
      010088A1H   LINE      CODE     ---       #202
      010088A1H   LINE      CODE     ---       #203
      010088ABH   LINE      CODE     ---       #205
      010088BCH   LINE      CODE     ---       #206
      010088BCH   LINE      CODE     ---       #208
      010088C0H   LINE      CODE     ---       #209
      010088C0H   LINE      CODE     ---       #213
      010088C9H   LINE      CODE     ---       #214
      010088D0H   LINE      CODE     ---       #215
      010088D1H   LINE      CODE     ---       #217
LX51 LINKER/LOCATER V4.64.0.0                                                         01/11/2017  18:17:27  PAGE 130


      010088D1H   LINE      CODE     ---       #220
      010088D8H   LINE      CODE     ---       #221
      010088E9H   LINE      CODE     ---       #222
      010088E9H   LINE      CODE     ---       #223
      010088EAH   LINE      CODE     ---       #225
      010088EAH   LINE      CODE     ---       #227
      010088F0H   LINE      CODE     ---       #228
      010088F0H   LINE      CODE     ---       #229
      010088F5H   LINE      CODE     ---       #236
      010088FBH   LINE      CODE     ---       #237
      01008900H   LINE      CODE     ---       #240
      01008907H   LINE      CODE     ---       #243
      01008919H   LINE      CODE     ---       #244
      01008919H   LINE      CODE     ---       #246
      0100892AH   LINE      CODE     ---       #247
      01008930H   LINE      CODE     ---       #250
      01008938H   LINE      CODE     ---       #253
      0100893FH   LINE      CODE     ---       #257
      01008944H   LINE      CODE     ---       #259
      01008944H   LINE      CODE     ---       #260
      01008944H   LINE      CODE     ---       #263
      0100894CH   LINE      CODE     ---       #264
      0100894CH   LINE      CODE     ---       #266
      0100895DH   LINE      CODE     ---       #268
      01008970H   LINE      CODE     ---       #269
      0100897AH   LINE      CODE     ---       #270
      0100897BH   LINE      CODE     ---       #272
      0100897BH   LINE      CODE     ---       #274
      0100898CH   LINE      CODE     ---       #275
      010089A1H   LINE      CODE     ---       #276
      010089A1H   LINE      CODE     ---       #277
      010089A1H   LINE      CODE     ---       #278
      010089A1H   LINE      CODE     ---       #279
      ---         BLOCKEND  ---      ---       LVL=0

      0100AF5AH   BLOCK     CODE     ---       LVL=0
      0100AF5AH   LINE      CODE     ---       #297
      0100AF5AH   LINE      CODE     ---       #298
      0100AF5AH   LINE      CODE     ---       #299
      0100AF63H   LINE      CODE     ---       #300
      ---         BLOCKEND  ---      ---       LVL=0

      0100AE6AH   BLOCK     CODE     ---       LVL=0
      00000007H   SYMBOL    DATA     BYTE      modeBitMask
      0100AE6AH   LINE      CODE     ---       #332
      0100AE6AH   LINE      CODE     ---       #333
      0100AE6AH   LINE      CODE     ---       #334
      0100AE76H   LINE      CODE     ---       #335
      ---         BLOCKEND  ---      ---       LVL=0
      00000007H   SYMBOL    DATA     BYTE      modeBitMask
      00000007H   SYMBOL    DATA     BYTE      oldSrc

      0100AF86H   BLOCK     CODE     ---       LVL=0
      0100AF86H   LINE      CODE     ---       #464
      0100AF86H   LINE      CODE     ---       #465
      0100AF86H   LINE      CODE     ---       #466
      0100AF8DH   LINE      CODE     ---       #467
      ---         BLOCKEND  ---      ---       LVL=0

      ---         MODULE    ---      ---       ADC_THEACLK
      0100AF8EH   PUBLIC    CODE     ---       ADC_theACLK_GetSourceRegister
      0100AE77H   PUBLIC    CODE     ---       _ADC_theACLK_SetModeRegister
      0100AF64H   PUBLIC    CODE     ---       ADC_theACLK_GetDividerRegister
      01008AD2H   PUBLIC    CODE     ---       _ADC_theACLK_SetDividerRegister
      00000007H   SYMBOL    DATA     BYTE      state
LX51 LINKER/LOCATER V4.64.0.0                                                         01/11/2017  18:17:27  PAGE 131



      01008AD2H   BLOCK     CODE     ---       LVL=0
      02000002H   SYMBOL    XDATA    WORD      clkDivider
      02000004H   SYMBOL    XDATA    BYTE      restart
      01008ADDH   BLOCK     CODE     NEAR LAB  LVL=1
      02000005H   SYMBOL    XDATA    BYTE      enabled
      02000006H   SYMBOL    XDATA    BYTE      currSrc
      02000007H   SYMBOL    XDATA    WORD      oldDivider
      ---         BLOCKEND  ---      ---       LVL=1
      01008AD2H   LINE      CODE     ---       #193
      01008ADDH   LINE      CODE     ---       #195
      01008ADDH   LINE      CODE     ---       #198
      01008AE5H   LINE      CODE     ---       #199
      01008AF0H   LINE      CODE     ---       #201
      01008B02H   LINE      CODE     ---       #202
      01008B02H   LINE      CODE     ---       #203
      01008B0CH   LINE      CODE     ---       #205
      01008B1DH   LINE      CODE     ---       #206
      01008B1DH   LINE      CODE     ---       #208
      01008B21H   LINE      CODE     ---       #209
      01008B21H   LINE      CODE     ---       #213
      01008B29H   LINE      CODE     ---       #214
      01008B30H   LINE      CODE     ---       #215
      01008B31H   LINE      CODE     ---       #217
      01008B31H   LINE      CODE     ---       #220
      01008B38H   LINE      CODE     ---       #221
      01008B49H   LINE      CODE     ---       #222
      01008B49H   LINE      CODE     ---       #223
      01008B4AH   LINE      CODE     ---       #225
      01008B4AH   LINE      CODE     ---       #227
      01008B50H   LINE      CODE     ---       #228
      01008B50H   LINE      CODE     ---       #229
      01008B55H   LINE      CODE     ---       #233
      01008B5AH   LINE      CODE     ---       #234
      01008B5FH   LINE      CODE     ---       #240
      01008B66H   LINE      CODE     ---       #243
      01008B78H   LINE      CODE     ---       #244
      01008B78H   LINE      CODE     ---       #246
      01008B89H   LINE      CODE     ---       #247
      01008B8FH   LINE      CODE     ---       #250
      01008B97H   LINE      CODE     ---       #253
      01008B9EH   LINE      CODE     ---       #257
      01008BA3H   LINE      CODE     ---       #259
      01008BA3H   LINE      CODE     ---       #260
      01008BA3H   LINE      CODE     ---       #263
      01008BABH   LINE      CODE     ---       #264
      01008BABH   LINE      CODE     ---       #266
      01008BBCH   LINE      CODE     ---       #268
      01008BCFH   LINE      CODE     ---       #269
      01008BD9H   LINE      CODE     ---       #270
      01008BDAH   LINE      CODE     ---       #272
      01008BDAH   LINE      CODE     ---       #274
      01008BEBH   LINE      CODE     ---       #275
      01008C00H   LINE      CODE     ---       #276
      01008C00H   LINE      CODE     ---       #277
      01008C00H   LINE      CODE     ---       #278
      01008C00H   LINE      CODE     ---       #279
      ---         BLOCKEND  ---      ---       LVL=0

      0100AF64H   BLOCK     CODE     ---       LVL=0
      0100AF64H   LINE      CODE     ---       #297
      0100AF64H   LINE      CODE     ---       #298
      0100AF64H   LINE      CODE     ---       #299
      0100AF6DH   LINE      CODE     ---       #300
      ---         BLOCKEND  ---      ---       LVL=0
LX51 LINKER/LOCATER V4.64.0.0                                                         01/11/2017  18:17:27  PAGE 132



      0100AE77H   BLOCK     CODE     ---       LVL=0
      00000007H   SYMBOL    DATA     BYTE      modeBitMask
      0100AE77H   LINE      CODE     ---       #332
      0100AE77H   LINE      CODE     ---       #333
      0100AE77H   LINE      CODE     ---       #334
      0100AE83H   LINE      CODE     ---       #335
      ---         BLOCKEND  ---      ---       LVL=0
      00000007H   SYMBOL    DATA     BYTE      modeBitMask
      00000007H   SYMBOL    DATA     BYTE      oldSrc

      0100AF8EH   BLOCK     CODE     ---       LVL=0
      0100AF8EH   LINE      CODE     ---       #464
      0100AF8EH   LINE      CODE     ---       #465
      0100AF8EH   LINE      CODE     ---       #466
      0100AF95H   LINE      CODE     ---       #467
      ---         BLOCKEND  ---      ---       LVL=0
      00000007H   SYMBOL    DATA     BYTE      clkPhase

      ---         MODULE    ---      ---       CYBOOTASMKEIL
      0100ABA7H   PUBLIC    CODE     NEAR LAB  CyEnterCriticalSection
      0100A600H   PUBLIC    CODE     NEAR LAB  _CyDelayCycles
      0100A89CH   PUBLIC    CODE     NEAR LAB  _CyDelayUs
      0100AB20H   PUBLIC    CODE     NEAR LAB  _CyExitCriticalSection

      ---         MODULE    ---      ---       CYFLASH
      02000D6EH   PUBLIC    XDATA    ---       dieTemperature
      0100A7DCH   PUBLIC    CODE     ---       CyEEPROM_Start
      0100AB38H   PUBLIC    CODE     ---       CySetTemp
      000000CAH   SFRSYM    DATA     BYTE      SFRPRT5SEL
      000000DAH   SFRSYM    DATA     BYTE      SFRPRT6SEL
      000000D0H.6 SFRSYM    DATA     BIT       AC
      000000A8H.7 SFRSYM    DATA     BIT       EA
      000000A8H   SFRSYM    DATA     BYTE      IE
      00000085H   SFRSYM    DATA     BYTE      DPH1
      00000084H   SFRSYM    DATA     BYTE      DPL1
      000000D0H.7 SFRSYM    DATA     BIT       CY
      000000A0H   SFRSYM    DATA     BYTE      P2AX
      00000095H   SFRSYM    DATA     BYTE      DPX1
      00000081H   SFRSYM    DATA     BYTE      SP
      000000D0H.2 SFRSYM    DATA     BIT       OV
      00000080H   SFRSYM    DATA     BYTE      SFRPRT0DR
      00000090H   SFRSYM    DATA     BYTE      SFRPRT1DR
      000000F2H   SFRSYM    DATA     BYTE      SFRPRT12SEL
      00000098H   SFRSYM    DATA     BYTE      SFRPRT2DR
      000000B0H   SFRSYM    DATA     BYTE      SFRPRT3DR
      000000C0H   SFRSYM    DATA     BYTE      SFRPRT4DR
      000000FAH   SFRSYM    DATA     BYTE      SFRPRT15SEL
      000000C8H   SFRSYM    DATA     BYTE      SFRPRT5DR
      000000D8H   SFRSYM    DATA     BYTE      SFRPRT6DR
      00000089H   SFRSYM    DATA     BYTE      SFRPRT0PS
      00000091H   SFRSYM    DATA     BYTE      SFRPRT1PS
      00000099H   SFRSYM    DATA     BYTE      SFRPRT2PS
      000000B1H   SFRSYM    DATA     BYTE      SFRPRT3PS
      000000C1H   SFRSYM    DATA     BYTE      SFRPRT4PS
      000000C9H   SFRSYM    DATA     BYTE      SFRPRT5PS
      000000D9H   SFRSYM    DATA     BYTE      SFRPRT6PS
      000000EAH   SFRSYM    DATA     BYTE      MXAX
      000000F0H   SFRSYM    DATA     BYTE      B
      000000E0H   SFRSYM    DATA     BYTE      ACC
      000000D0H   SFRSYM    DATA     BIT       P
      000000D0H.3 SFRSYM    DATA     BIT       RS0
      000000D0H.4 SFRSYM    DATA     BIT       RS1
      00000083H   SFRSYM    DATA     BYTE      DPH
      000000E8H   SFRSYM    DATA     BYTE      SFRPRT12DR
LX51 LINKER/LOCATER V4.64.0.0                                                         01/11/2017  18:17:27  PAGE 133


      00000082H   SFRSYM    DATA     BYTE      DPL
      000000F8H   SFRSYM    DATA     BYTE      SFRPRT15DR
      00000086H   SFRSYM    DATA     BYTE      DPS
      000000E9H   SFRSYM    DATA     BYTE      SFRPRT12PS
      00000093H   SFRSYM    DATA     BYTE      DPX
      000000F9H   SFRSYM    DATA     BYTE      SFRPRT15PS
      000000D0H.5 SFRSYM    DATA     BIT       F0
      000000D0H.1 SFRSYM    DATA     BIT       F1
      0000008AH   SFRSYM    DATA     BYTE      SFRPRT0SEL
      000000D0H   SFRSYM    DATA     BYTE      PSW
      000000A2H   SFRSYM    DATA     BYTE      SFRPRT1SEL
      0000009AH   SFRSYM    DATA     BYTE      SFRPRT2SEL
      000000B2H   SFRSYM    DATA     BYTE      SFRPRT3SEL
      000000C2H   SFRSYM    DATA     BYTE      SFRPRT4SEL
      0100A23EH   SYMBOL    CODE     ---       CyFlashGetSpcAlgorithm
      0100A0ECH   SYMBOL    CODE     ---       CySetTempInt
      02000D6BH   SYMBOL    XDATA    ---       rowBuffer
      00000007H   SYMBOL    DATA     BYTE      interruptState
      00000007H   SYMBOL    DATA     BYTE      interruptState

      0100A0ECH   BLOCK     CODE     ---       LVL=0
      0100A0ECH   BLOCK     CODE     NEAR LAB  LVL=1
      0200000BH   SYMBOL    XDATA    BYTE      status
      ---         BLOCKEND  ---      ---       LVL=1
      0100A0ECH   LINE      CODE     ---       #155
      0100A0ECH   LINE      CODE     ---       #156
      0100A0ECH   LINE      CODE     ---       #160
      0100A0EFH   LINE      CODE     ---       #163
      0100A0F5H   LINE      CODE     ---       #165
      0100A0FBH   LINE      CODE     ---       #166
      0100A0FBH   LINE      CODE     ---       #168
      0100A105H   LINE      CODE     ---       #169
      0100A105H   LINE      CODE     ---       #171
      0100A105H   LINE      CODE     ---       #172
      0100A114H   LINE      CODE     ---       #173
      0100A114H   LINE      CODE     ---       #174
      0100A119H   LINE      CODE     ---       #176
      0100A121H   LINE      CODE     ---       #177
      0100A121H   LINE      CODE     ---       #179
      0100A127H   LINE      CODE     ---       #180
      0100A129H   LINE      CODE     ---       #181
      0100A129H   LINE      CODE     ---       #182
      0100A129H   LINE      CODE     ---       #184
      0100A131H   LINE      CODE     ---       #185
      0100A131H   LINE      CODE     ---       #187
      0100A134H   LINE      CODE     ---       #188
      0100A136H   LINE      CODE     ---       #190
      0100A136H   LINE      CODE     ---       #191
      0100A13CH   LINE      CODE     ---       #192
      0100A13CH   LINE      CODE     ---       #194
      0100A141H   LINE      CODE     ---       #195
      ---         BLOCKEND  ---      ---       LVL=0

      0100A23EH   BLOCK     CODE     ---       LVL=0
      0100A23EH   BLOCK     CODE     NEAR LAB  LVL=1
      0200000BH   SYMBOL    XDATA    BYTE      status
      ---         BLOCKEND  ---      ---       LVL=1
      0100A23EH   LINE      CODE     ---       #215
      0100A23EH   LINE      CODE     ---       #216
      0100A23EH   LINE      CODE     ---       #220
      0100A241H   LINE      CODE     ---       #222
      0100A247H   LINE      CODE     ---       #223
      0100A247H   LINE      CODE     ---       #224
      0100A24FH   LINE      CODE     ---       #226
      0100A253H   LINE      CODE     ---       #227
LX51 LINKER/LOCATER V4.64.0.0                                                         01/11/2017  18:17:27  PAGE 134


      0100A253H   LINE      CODE     ---       #228
      0100A25BH   LINE      CODE     ---       #229
      0100A25BH   LINE      CODE     ---       #231
      0100A261H   LINE      CODE     ---       #232
      0100A263H   LINE      CODE     ---       #234
      0100A279H   LINE      CODE     ---       #235
      0100A279H   LINE      CODE     ---       #236
      0100A27DH   LINE      CODE     ---       #237
      0100A27DH   LINE      CODE     ---       #238
      0100A27DH   LINE      CODE     ---       #239
      0100A280H   LINE      CODE     ---       #240
      0100A282H   LINE      CODE     ---       #242
      0100A282H   LINE      CODE     ---       #243
      0100A288H   LINE      CODE     ---       #244
      0100A288H   LINE      CODE     ---       #246
      0100A28DH   LINE      CODE     ---       #247
      ---         BLOCKEND  ---      ---       LVL=0

      0100AB38H   BLOCK     CODE     ---       LVL=0
      0100AB38H   BLOCK     CODE     NEAR LAB  LVL=1
      0200000AH   SYMBOL    XDATA    BYTE      status
      ---         BLOCKEND  ---      ---       LVL=1
      0100AB38H   LINE      CODE     ---       #273
      0100AB38H   LINE      CODE     ---       #274
      0100AB38H   LINE      CODE     ---       #275
      0100AB40H   LINE      CODE     ---       #277
      0100AB42H   LINE      CODE     ---       #278
      0100AB42H   LINE      CODE     ---       #279
      0100AB4AH   LINE      CODE     ---       #280
      0100AB4AH   LINE      CODE     ---       #282
      0100AB4FH   LINE      CODE     ---       #283
      ---         BLOCKEND  ---      ---       LVL=0
      00000004H   SYMBOL    DATA     WORD      rowAddress
      00000001H   SYMBOL    DATA     ---       rowData
      00000007H   SYMBOL    DATA     BYTE      status
      00000007H   SYMBOL    DATA     BYTE      interruptState

      0100A7DCH   BLOCK     CODE     ---       LVL=0
      0100A7DCH   BLOCK     CODE     NEAR LAB  LVL=1
      00000007H   SYMBOL    DATA     BYTE      interruptState
      ---         BLOCKEND  ---      ---       LVL=1
      0100A7DCH   LINE      CODE     ---       #636
      0100A7DCH   LINE      CODE     ---       #637
      0100A7DCH   LINE      CODE     ---       #640
      0100A7DFH   LINE      CODE     ---       #647
      0100A7E6H   LINE      CODE     ---       #648
      0100A7EDH   LINE      CODE     ---       #661
      0100A7F3H   LINE      CODE     ---       #668
      0100A7FAH   LINE      CODE     ---       #669
      0100A801H   LINE      CODE     ---       #671
      0100A809H   LINE      CODE     ---       #672
      0100A809H   LINE      CODE     ---       #674
      0100A809H   LINE      CODE     ---       #676
      0100A80CH   LINE      CODE     ---       #677
      ---         BLOCKEND  ---      ---       LVL=0
      00000007H   SYMBOL    DATA     BYTE      interruptState

      ---         MODULE    ---      ---       CYMEM
      02000000H   PUBLIC    XDATA    BYTE      ?_cyconfigcpy?BYTE
      0100A712H   PUBLIC    CODE     NEAR LAB  _cyconfigcpy
      0100A93DH   PUBLIC    CODE     NEAR LAB  _cyconfigcpycode
      0100AD7CH   PUBLIC    CODE     NEAR LAB  _cyread16
      0100AD7EH   PUBLIC    CODE     NEAR LAB  _cyread16_nodpx
      0100ACF1H   PUBLIC    CODE     NEAR LAB  _cyread24
      0100ACF3H   PUBLIC    CODE     NEAR LAB  _cyread24_nodpx
LX51 LINKER/LOCATER V4.64.0.0                                                         01/11/2017  18:17:27  PAGE 135


      0100AE84H   PUBLIC    CODE     NEAR LAB  _cyread8
      0100AE86H   PUBLIC    CODE     NEAR LAB  _cyread8_nodpx
      0100AD8BH   PUBLIC    CODE     NEAR LAB  _cywrite16
      0100AD8DH   PUBLIC    CODE     NEAR LAB  _cywrite16_nodpx
      0100AE90H   PUBLIC    CODE     NEAR LAB  _cywrite8
      0100AE92H   PUBLIC    CODE     NEAR LAB  _cywrite8_nodpx

      ---         MODULE    ---      ---       CYPM
      000000CAH   SFRSYM    DATA     BYTE      SFRPRT5SEL
      000000DAH   SFRSYM    DATA     BYTE      SFRPRT6SEL
      000000D0H.6 SFRSYM    DATA     BIT       AC
      000000A8H.7 SFRSYM    DATA     BIT       EA
      000000A8H   SFRSYM    DATA     BYTE      IE
      00000085H   SFRSYM    DATA     BYTE      DPH1
      00000084H   SFRSYM    DATA     BYTE      DPL1
      000000D0H.7 SFRSYM    DATA     BIT       CY
      000000A0H   SFRSYM    DATA     BYTE      P2AX
      00000095H   SFRSYM    DATA     BYTE      DPX1
      00000081H   SFRSYM    DATA     BYTE      SP
      000000D0H.2 SFRSYM    DATA     BIT       OV
      00000080H   SFRSYM    DATA     BYTE      SFRPRT0DR
      00000090H   SFRSYM    DATA     BYTE      SFRPRT1DR
      000000F2H   SFRSYM    DATA     BYTE      SFRPRT12SEL
      00000098H   SFRSYM    DATA     BYTE      SFRPRT2DR
      000000B0H   SFRSYM    DATA     BYTE      SFRPRT3DR
      000000C0H   SFRSYM    DATA     BYTE      SFRPRT4DR
      000000FAH   SFRSYM    DATA     BYTE      SFRPRT15SEL
      000000C8H   SFRSYM    DATA     BYTE      SFRPRT5DR
      000000D8H   SFRSYM    DATA     BYTE      SFRPRT6DR
      00000089H   SFRSYM    DATA     BYTE      SFRPRT0PS
      00000091H   SFRSYM    DATA     BYTE      SFRPRT1PS
      00000099H   SFRSYM    DATA     BYTE      SFRPRT2PS
      000000B1H   SFRSYM    DATA     BYTE      SFRPRT3PS
      000000C1H   SFRSYM    DATA     BYTE      SFRPRT4PS
      000000C9H   SFRSYM    DATA     BYTE      SFRPRT5PS
      000000D9H   SFRSYM    DATA     BYTE      SFRPRT6PS
      000000EAH   SFRSYM    DATA     BYTE      MXAX
      000000F0H   SFRSYM    DATA     BYTE      B
      000000E0H   SFRSYM    DATA     BYTE      ACC
      000000D0H   SFRSYM    DATA     BIT       P
      000000D0H.3 SFRSYM    DATA     BIT       RS0
      000000D0H.4 SFRSYM    DATA     BIT       RS1
      00000083H   SFRSYM    DATA     BYTE      DPH
      000000E8H   SFRSYM    DATA     BYTE      SFRPRT12DR
      00000082H   SFRSYM    DATA     BYTE      DPL
      000000F8H   SFRSYM    DATA     BYTE      SFRPRT15DR
      00000086H   SFRSYM    DATA     BYTE      DPS
      000000E9H   SFRSYM    DATA     BYTE      SFRPRT12PS
      00000093H   SFRSYM    DATA     BYTE      DPX
      000000F9H   SFRSYM    DATA     BYTE      SFRPRT15PS
      000000D0H.5 SFRSYM    DATA     BIT       F0
      000000D0H.1 SFRSYM    DATA     BIT       F1
      0000008AH   SFRSYM    DATA     BYTE      SFRPRT0SEL
      000000D0H   SFRSYM    DATA     BYTE      PSW
      000000A2H   SFRSYM    DATA     BYTE      SFRPRT1SEL
      0000009AH   SFRSYM    DATA     BYTE      SFRPRT2SEL
      000000B2H   SFRSYM    DATA     BYTE      SFRPRT3SEL
      000000C2H   SFRSYM    DATA     BYTE      SFRPRT4SEL
      02000CB3H   SYMBOL    XDATA    ---       cyPmClockBackup
      02000CC3H   SYMBOL    XDATA    ---       cyPmBackup
      00000006H   SYMBOL    DATA     WORD      clkBusDivTmp
      02000CB2H   SYMBOL    XDATA    BYTE      interruptStatus
      00000005H   SYMBOL    DATA     BYTE      interruptState

      ---         MODULE    ---      ---       CYSPC
LX51 LINKER/LOCATER V4.64.0.0                                                         01/11/2017  18:17:27  PAGE 136


      02000D81H   PUBLIC    XDATA    BYTE      SpcLockState
      0100AAA1H   PUBLIC    CODE     ---       CySpcGetAlgorithm
      0100AE9CH   PUBLIC    CODE     ---       CySpcUnlock
      0100AA48H   PUBLIC    CODE     ---       CySpcLock
      0100A86CH   PUBLIC    CODE     ---       _CySpcGetTemp
      0200000FH   PUBLIC    XDATA    BYTE      ?_CySpcWriteRow?BYTE
      0100A1EAH   PUBLIC    CODE     ---       _CySpcWriteRow
      0200000FH   PUBLIC    XDATA    BYTE      ?_CySpcLoadRow?BYTE
      01009DBCH   PUBLIC    CODE     ---       _CySpcLoadRow
      01009FD9H   PUBLIC    CODE     ---       _CySpcReadData
      0100ABBCH   PUBLIC    CODE     ---       CySpcStart
      000000CAH   SFRSYM    DATA     BYTE      SFRPRT5SEL
      000000DAH   SFRSYM    DATA     BYTE      SFRPRT6SEL
      000000D0H.6 SFRSYM    DATA     BIT       AC
      000000A8H.7 SFRSYM    DATA     BIT       EA
      000000A8H   SFRSYM    DATA     BYTE      IE
      00000085H   SFRSYM    DATA     BYTE      DPH1
      00000084H   SFRSYM    DATA     BYTE      DPL1
      000000D0H.7 SFRSYM    DATA     BIT       CY
      000000A0H   SFRSYM    DATA     BYTE      P2AX
      00000095H   SFRSYM    DATA     BYTE      DPX1
      00000081H   SFRSYM    DATA     BYTE      SP
      000000D0H.2 SFRSYM    DATA     BIT       OV
      00000080H   SFRSYM    DATA     BYTE      SFRPRT0DR
      00000090H   SFRSYM    DATA     BYTE      SFRPRT1DR
      000000F2H   SFRSYM    DATA     BYTE      SFRPRT12SEL
      00000098H   SFRSYM    DATA     BYTE      SFRPRT2DR
      000000B0H   SFRSYM    DATA     BYTE      SFRPRT3DR
      000000C0H   SFRSYM    DATA     BYTE      SFRPRT4DR
      000000FAH   SFRSYM    DATA     BYTE      SFRPRT15SEL
      000000C8H   SFRSYM    DATA     BYTE      SFRPRT5DR
      000000D8H   SFRSYM    DATA     BYTE      SFRPRT6DR
      00000089H   SFRSYM    DATA     BYTE      SFRPRT0PS
      00000091H   SFRSYM    DATA     BYTE      SFRPRT1PS
      00000099H   SFRSYM    DATA     BYTE      SFRPRT2PS
      000000B1H   SFRSYM    DATA     BYTE      SFRPRT3PS
      000000C1H   SFRSYM    DATA     BYTE      SFRPRT4PS
      000000C9H   SFRSYM    DATA     BYTE      SFRPRT5PS
      000000D9H   SFRSYM    DATA     BYTE      SFRPRT6PS
      000000EAH   SFRSYM    DATA     BYTE      MXAX
      000000F0H   SFRSYM    DATA     BYTE      B
      000000E0H   SFRSYM    DATA     BYTE      ACC
      000000D0H   SFRSYM    DATA     BIT       P
      000000D0H.3 SFRSYM    DATA     BIT       RS0
      000000D0H.4 SFRSYM    DATA     BIT       RS1
      00000083H   SFRSYM    DATA     BYTE      DPH
      000000E8H   SFRSYM    DATA     BYTE      SFRPRT12DR
      00000082H   SFRSYM    DATA     BYTE      DPL
      000000F8H   SFRSYM    DATA     BYTE      SFRPRT15DR
      00000086H   SFRSYM    DATA     BYTE      DPS
      000000E9H   SFRSYM    DATA     BYTE      SFRPRT12PS
      00000093H   SFRSYM    DATA     BYTE      DPX
      000000F9H   SFRSYM    DATA     BYTE      SFRPRT15PS
      000000D0H.5 SFRSYM    DATA     BIT       F0
      000000D0H.1 SFRSYM    DATA     BIT       F1
      0000008AH   SFRSYM    DATA     BYTE      SFRPRT0SEL
      000000D0H   SFRSYM    DATA     BYTE      PSW
      000000A2H   SFRSYM    DATA     BYTE      SFRPRT1SEL
      0000009AH   SFRSYM    DATA     BYTE      SFRPRT2SEL
      000000B2H   SFRSYM    DATA     BYTE      SFRPRT3SEL
      000000C2H   SFRSYM    DATA     BYTE      SFRPRT4SEL

      0100ABBCH   BLOCK     CODE     ---       LVL=0
      0100ABBCH   BLOCK     CODE     NEAR LAB  LVL=1
      00000007H   SYMBOL    DATA     BYTE      interruptState
LX51 LINKER/LOCATER V4.64.0.0                                                         01/11/2017  18:17:27  PAGE 137


      ---         BLOCKEND  ---      ---       LVL=1
      0100ABBCH   LINE      CODE     ---       #78
      0100ABBCH   LINE      CODE     ---       #79
      0100ABBCH   LINE      CODE     ---       #81
      0100ABBFH   LINE      CODE     ---       #83
      0100ABC6H   LINE      CODE     ---       #84
      0100ABCDH   LINE      CODE     ---       #87
      0100ABD0H   LINE      CODE     ---       #88
      ---         BLOCKEND  ---      ---       LVL=0
      00000007H   SYMBOL    DATA     BYTE      interruptState

      01009FD9H   BLOCK     CODE     ---       LVL=0
      0200000CH   SYMBOL    XDATA    ---       buffer
      0200000FH   SYMBOL    XDATA    BYTE      size
      01009FE7H   BLOCK     CODE     NEAR LAB  LVL=1
      02000010H   SYMBOL    XDATA    BYTE      i
      ---         BLOCKEND  ---      ---       LVL=1
      01009FD9H   LINE      CODE     ---       #135
      01009FE7H   LINE      CODE     ---       #136
      01009FE7H   LINE      CODE     ---       #139
      01009FF5H   LINE      CODE     ---       #140
      01009FF5H   LINE      CODE     ---       #141
      0100A003H   LINE      CODE     ---       #142
      0100A003H   LINE      CODE     ---       #143
      0100A00AH   LINE      CODE     ---       #144
      0100A00CH   LINE      CODE     ---       #145
      0100A02BH   LINE      CODE     ---       #146
      0100A033H   LINE      CODE     ---       #148
      0100A038H   LINE      CODE     ---       #149
      ---         BLOCKEND  ---      ---       LVL=0
      00000005H   SYMBOL    DATA     BYTE      status
      00000007H   SYMBOL    DATA     BYTE      i

      01009DBCH   BLOCK     CODE     ---       LVL=0
      00000007H   SYMBOL    DATA     BYTE      array
      02000010H   SYMBOL    XDATA    ---       buffer
      02000013H   SYMBOL    XDATA    WORD      size
      01009DC7H   BLOCK     CODE     NEAR LAB  LVL=1
      02000015H   SYMBOL    XDATA    BYTE      status
      00000006H   SYMBOL    DATA     WORD      i
      ---         BLOCKEND  ---      ---       LVL=1
      01009DBCH   LINE      CODE     ---       #258
      01009DC7H   LINE      CODE     ---       #259
      01009DC7H   LINE      CODE     ---       #260
      01009DCDH   LINE      CODE     ---       #264
      01009DD5H   LINE      CODE     ---       #265
      01009DD5H   LINE      CODE     ---       #266
      01009DDBH   LINE      CODE     ---       #267
      01009DDEH   LINE      CODE     ---       #268
      01009DE1H   LINE      CODE     ---       #271
      01009DE9H   LINE      CODE     ---       #272
      01009DE9H   LINE      CODE     ---       #273
      01009DEEH   LINE      CODE     ---       #275
      01009DFEH   LINE      CODE     ---       #276
      01009DFEH   LINE      CODE     ---       #277
      01009E14H   LINE      CODE     ---       #278
      01009E1BH   LINE      CODE     ---       #279
      01009E1BH   LINE      CODE     ---       #281
      01009E1BH   LINE      CODE     ---       #282
      01009E21H   LINE      CODE     ---       #283
      01009E21H   LINE      CODE     ---       #284
      01009E23H   LINE      CODE     ---       #286
      01009E23H   LINE      CODE     ---       #287
      01009E29H   LINE      CODE     ---       #288
      01009E29H   LINE      CODE     ---       #290
LX51 LINKER/LOCATER V4.64.0.0                                                         01/11/2017  18:17:27  PAGE 138


      01009E2EH   LINE      CODE     ---       #291
      ---         BLOCKEND  ---      ---       LVL=0

      0100A1EAH   BLOCK     CODE     ---       LVL=0
      00000004H   SYMBOL    DATA     BYTE      array
      02000010H   SYMBOL    XDATA    WORD      address
      00000003H   SYMBOL    DATA     BYTE      tempPolarity
      02000013H   SYMBOL    XDATA    BYTE      tempMagnitude
      0100A1F4H   BLOCK     CODE     NEAR LAB  LVL=1
      00000005H   SYMBOL    DATA     BYTE      status
      ---         BLOCKEND  ---      ---       LVL=1
      0100A1EAH   LINE      CODE     ---       #464
      0100A1F4H   LINE      CODE     ---       #466
      0100A1F4H   LINE      CODE     ---       #467
      0100A1F6H   LINE      CODE     ---       #470
      0100A1FEH   LINE      CODE     ---       #471
      0100A1FEH   LINE      CODE     ---       #472
      0100A204H   LINE      CODE     ---       #473
      0100A207H   LINE      CODE     ---       #474
      0100A20AH   LINE      CODE     ---       #477
      0100A212H   LINE      CODE     ---       #478
      0100A212H   LINE      CODE     ---       #479
      0100A217H   LINE      CODE     ---       #480
      0100A21FH   LINE      CODE     ---       #481
      0100A229H   LINE      CODE     ---       #482
      0100A22BH   LINE      CODE     ---       #483
      0100A233H   LINE      CODE     ---       #484
      0100A235H   LINE      CODE     ---       #486
      0100A235H   LINE      CODE     ---       #487
      0100A237H   LINE      CODE     ---       #488
      0100A237H   LINE      CODE     ---       #489
      0100A239H   LINE      CODE     ---       #491
      0100A239H   LINE      CODE     ---       #492
      0100A23BH   LINE      CODE     ---       #493
      0100A23BH   LINE      CODE     ---       #495
      0100A23DH   LINE      CODE     ---       #496
      ---         BLOCKEND  ---      ---       LVL=0
      00000007H   SYMBOL    DATA     BYTE      array
      00000005H   SYMBOL    DATA     BYTE      sectorNumber
      00000006H   SYMBOL    DATA     BYTE      status

      0100A86CH   BLOCK     CODE     ---       LVL=0
      00000007H   SYMBOL    DATA     BYTE      numSamples
      0100A86CH   BLOCK     CODE     NEAR LAB  LVL=1
      00000006H   SYMBOL    DATA     BYTE      status
      ---         BLOCKEND  ---      ---       LVL=1
      0100A86CH   LINE      CODE     ---       #573
      0100A86CH   LINE      CODE     ---       #574
      0100A86CH   LINE      CODE     ---       #575
      0100A86EH   LINE      CODE     ---       #578
      0100A876H   LINE      CODE     ---       #579
      0100A876H   LINE      CODE     ---       #580
      0100A87CH   LINE      CODE     ---       #581
      0100A87FH   LINE      CODE     ---       #582
      0100A882H   LINE      CODE     ---       #585
      0100A88AH   LINE      CODE     ---       #586
      0100A88AH   LINE      CODE     ---       #587
      0100A88FH   LINE      CODE     ---       #588
      0100A891H   LINE      CODE     ---       #590
      0100A891H   LINE      CODE     ---       #591
      0100A893H   LINE      CODE     ---       #592
      0100A893H   LINE      CODE     ---       #593
      0100A895H   LINE      CODE     ---       #595
      0100A895H   LINE      CODE     ---       #596
      0100A897H   LINE      CODE     ---       #597
LX51 LINKER/LOCATER V4.64.0.0                                                         01/11/2017  18:17:27  PAGE 139


      0100A897H   LINE      CODE     ---       #599
      0100A899H   LINE      CODE     ---       #600
      ---         BLOCKEND  ---      ---       LVL=0

      0100AA48H   BLOCK     CODE     ---       LVL=0
      0100AA48H   BLOCK     CODE     NEAR LAB  LVL=1
      0200000FH   SYMBOL    XDATA    BYTE      status
      00000007H   SYMBOL    DATA     BYTE      interruptState
      ---         BLOCKEND  ---      ---       LVL=1
      0100AA48H   LINE      CODE     ---       #618
      0100AA48H   LINE      CODE     ---       #619
      0100AA48H   LINE      CODE     ---       #620
      0100AA4EH   LINE      CODE     ---       #624
      0100AA51H   LINE      CODE     ---       #626
      0100AA57H   LINE      CODE     ---       #627
      0100AA57H   LINE      CODE     ---       #628
      0100AA59H   LINE      CODE     ---       #629
      0100AA5EH   LINE      CODE     ---       #647
      0100AA5EH   LINE      CODE     ---       #650
      0100AA61H   LINE      CODE     ---       #652
      0100AA66H   LINE      CODE     ---       #653
      ---         BLOCKEND  ---      ---       LVL=0

      0100AE9CH   BLOCK     CODE     ---       LVL=0
      0100AE9CH   BLOCK     CODE     NEAR LAB  LVL=1
      00000007H   SYMBOL    DATA     BYTE      interruptState
      ---         BLOCKEND  ---      ---       LVL=1
      0100AE9CH   LINE      CODE     ---       #670
      0100AE9CH   LINE      CODE     ---       #671
      0100AE9CH   LINE      CODE     ---       #675
      0100AE9FH   LINE      CODE     ---       #678
      0100AEA4H   LINE      CODE     ---       #698
      0100AEA7H   LINE      CODE     ---       #699
      ---         BLOCKEND  ---      ---       LVL=0

      0100AAA1H   BLOCK     CODE     ---       LVL=0
      0100AAA1H   BLOCK     CODE     NEAR LAB  LVL=1
      00000007H   SYMBOL    DATA     BYTE      status
      ---         BLOCKEND  ---      ---       LVL=1
      0100AAA1H   LINE      CODE     ---       #716
      0100AAA1H   LINE      CODE     ---       #717
      0100AAA1H   LINE      CODE     ---       #718
      0100AAA3H   LINE      CODE     ---       #721
      0100AAABH   LINE      CODE     ---       #722
      0100AAABH   LINE      CODE     ---       #723
      0100AAB1H   LINE      CODE     ---       #724
      0100AAB4H   LINE      CODE     ---       #725
      0100AAB7H   LINE      CODE     ---       #726
      0100AAB9H   LINE      CODE     ---       #728
      0100AAB9H   LINE      CODE     ---       #729
      0100AABBH   LINE      CODE     ---       #730
      0100AABBH   LINE      CODE     ---       #732
      0100AABBH   LINE      CODE     ---       #733
      ---         BLOCKEND  ---      ---       LVL=0

      ---         MODULE    ---      ---       ?C?FPMUL
      01005979H   PUBLIC    CODE     ---       ?C?FPMUL

      ---         MODULE    ---      ---       ?C?FPDIV
      01005A82H   PUBLIC    CODE     ---       ?C?FPDIV

      ---         MODULE    ---      ---       ?C?FPCMP
      01005B21H   PUBLIC    CODE     ---       ?C?FPCMP
      01005B1FH   PUBLIC    CODE     ---       ?C?FPCMP3

LX51 LINKER/LOCATER V4.64.0.0                                                         01/11/2017  18:17:27  PAGE 140


      ---         MODULE    ---      ---       ?C?FCAST
      01005BA2H   PUBLIC    CODE     ---       ?C?FCASTC
      01005B9DH   PUBLIC    CODE     ---       ?C?FCASTI
      01005B98H   PUBLIC    CODE     ---       ?C?FCASTL

      ---         MODULE    ---      ---       ?C?CASTF
      01005BD6H   PUBLIC    CODE     ---       ?C?CASTF

      ---         MODULE    ---      ---       PRINTF
      02000486H   PUBLIC    XDATA    ---       ?_PRINTF?BYTE
      02000486H   PUBLIC    XDATA    ---       ?_SPRINTF?BYTE
      01006F76H   PUBLIC    CODE     ---       _PRINTF
      01006F70H   PUBLIC    CODE     ---       _SPRINTF

      ---         MODULE    ---      ---       ?C?FPGETOPN
      01005C0DH   PUBLIC    CODE     ---       ?C?FPGETOPN2
      01005C42H   PUBLIC    CODE     ---       ?C?FPNANRESULT
      01005C4CH   PUBLIC    CODE     ---       ?C?FPOVERFLOW
      01005C24H   PUBLIC    CODE     ---       ?C?FPRESULT
      01005C38H   PUBLIC    CODE     ---       ?C?FPRESULT2
      01005C49H   PUBLIC    CODE     ---       ?C?FPUNDERFLOW

      ---         MODULE    ---      ---       ?C?FPROUND
      01005C57H   PUBLIC    CODE     ---       ?C?FPROUND

      ---         MODULE    ---      ---       ?C?FPCONVERT
      01005C94H   PUBLIC    CODE     ---       ?C?FPCONVERT

      ---         MODULE    ---      ---       ?C?FPADD
      01005DA0H   PUBLIC    CODE     ---       ?C?FPADD
      01005D9CH   PUBLIC    CODE     ---       ?C?FPSUB

      ---         MODULE    ---      ---       ?C?FTNPWR
      01005EC1H   PUBLIC    CODE     ---       ?C?FTNPWR

      ---         MODULE    ---      ---       ?C_INIT
      01008F1DH   PUBLIC    CODE     ---       ?C_START

      ---         MODULE    ---      ---       ?C?CLDPTR
      01005F01H   PUBLIC    CODE     ---       ?C?CLDPTR

      ---         MODULE    ---      ---       ?C?CLDOPTR
      01005F1AH   PUBLIC    CODE     ---       ?C?CLDOPTR

      ---         MODULE    ---      ---       ?C?CSTPTR
      01005F47H   PUBLIC    CODE     ---       ?C?CSTPTR

      ---         MODULE    ---      ---       ?C?ISTPTR
      01005F59H   PUBLIC    CODE     ---       ?C?ISTPTR

      ---         MODULE    ---      ---       ?C?LMUL
      01005F78H   PUBLIC    CODE     ---       ?C?LMUL

      ---         MODULE    ---      ---       ?C?ULDIV
      01006003H   PUBLIC    CODE     ---       ?C?ULDIV

      ---         MODULE    ---      ---       ?C?SLDIV
      0100A406H   PUBLIC    CODE     ---       ?C?SLDIV

      ---         MODULE    ---      ---       ?C?LNOT
      01006095H   PUBLIC    CODE     ---       ?C?LNOT

      ---         MODULE    ---      ---       ?C?LNEG
      010060A2H   PUBLIC    CODE     ---       ?C?LNEG

LX51 LINKER/LOCATER V4.64.0.0                                                         01/11/2017  18:17:27  PAGE 141


      ---         MODULE    ---      ---       ?C?SLCMP
      010060B0H   PUBLIC    CODE     ---       ?C?SLCMP

      ---         MODULE    ---      ---       ?C?ULCMP
      010060C6H   PUBLIC    CODE     ---       ?C?ULCMP

      ---         MODULE    ---      ---       ?C?ULSHR
      010060D7H   PUBLIC    CODE     ---       ?C?ULSHR

      ---         MODULE    ---      ---       ?C?SLSHR
      010060EAH   PUBLIC    CODE     ---       ?C?SLSHR

      ---         MODULE    ---      ---       ?C?LSHL
      010060FEH   PUBLIC    CODE     ---       ?C?LSHL

      ---         MODULE    ---      ---       ?C?LLDPTR
      01006111H   PUBLIC    CODE     ---       ?C?LLDPTR

      ---         MODULE    ---      ---       ?C?LSTPTR
      01006131H   PUBLIC    CODE     ---       ?C?LSTPTR

      ---         MODULE    ---      ---       ?C?LLDIDATA
      0100614BH   PUBLIC    CODE     ---       ?C?LLDIDATA

      ---         MODULE    ---      ---       ?C?LSTIDATA
      01006157H   PUBLIC    CODE     ---       ?C?LSTIDATA

      ---         MODULE    ---      ---       ?C?LSTXDATA
      01006163H   PUBLIC    CODE     ---       ?C?LSTXDATA

      ---         MODULE    ---      ---       ?C?PLDIXDATA
      0100616FH   PUBLIC    CODE     ---       ?C?PLDIXDATA

      ---         MODULE    ---      ---       ?C?PSTXDATA
      01006186H   PUBLIC    CODE     ---       ?C?PSTXDATA

      ---         MODULE    ---      ---       ?C?CCASE
      0100618FH   PUBLIC    CODE     ---       ?C?CCASE

      ---         MODULE    ---      ---       ?C_XBP
      0000000EH   PUBLIC    DATA     ---       ?C_XBP

      ---         MODULE    ---      ---       ?C?ADDXBP
      010061B5H   PUBLIC    CODE     ---       ?C?ADDXBP

      ---         MODULE    ---      ---       ?C?LIMUL
      010061D9H   PUBLIC    CODE     ---       ?C?LIMUL

      ---         MODULE    ---      ---       PUTCHAR
      0100A8F0H   PUBLIC    CODE     ---       _PUTCHAR

      ---         MODULE    ---      ---       ABS
      0100AEA8H   PUBLIC    CODE     ---       _ABS

      ---         MODULE    ---      ---       STRCAT
      02000486H   PUBLIC    XDATA    ---       ?_STRCAT?BYTE
      01009F0AH   PUBLIC    CODE     ---       _STRCAT

      ---         MODULE    ---      ---       STRLEN
      0100ABD1H   PUBLIC    CODE     ---       _STRLEN

      ---         MODULE    ---      ---       ?C?COPYAMD
      010062C2H   PUBLIC    CODE     ---       ?C?COPYAMD

      ---         MODULE    ---      ---       ?C?STRCPYAMD
LX51 LINKER/LOCATER V4.64.0.0                                                         01/11/2017  18:17:27  PAGE 142


      010063A0H   PUBLIC    CODE     ---       ?C?STRCPYAMD

      ---         MODULE    ---      ---       ?C?IILDX
      010063BDH   PUBLIC    CODE     ---       ?C?IILDX

      ---         MODULE    ---      ---       ?C?ILDIX
      010063D3H   PUBLIC    CODE     ---       ?C?ILDIX

      ---         MODULE    ---      ---       ?C?LLDXDATA
      010063E9H   PUBLIC    CODE     ---       ?C?LLDXDATA

      ---         MODULE    ---      ---       ?C?LLDPDATA
      010063F5H   PUBLIC    CODE     ---       ?C?LLDPDATA

      ---         MODULE    ---      ---       ?C?LLDCODE
      01006401H   PUBLIC    CODE     ---       ?C?LLDCODE

      ---         MODULE    ---      ---       ?C?LSTPDATA
      01006411H   PUBLIC    CODE     ---       ?C?LSTPDATA



INTER-MODULE CROSS-REFERENCE LISTING


NAME . . . . . . . . . . . . . . . . . . CLASS    MODULE NAMES
==============================================================

?_Bootloadable_SetFlashByte?BYTE . . . . XDATA    BOOTLOADABLE  
?_commWrite_old_id?BYTE. . . . . . . . . XDATA    COMMAND_PROCESSING  
?_cyconfigcpy?BYTE . . . . . . . . . . . XDATA    CYMEM  CYFITTER_CFG  
?_CyDmaChSetConfiguration?BYTE . . . . . XDATA    CYDMAC  DMA_DMA  
?_CyDmaChStatus?BYTE . . . . . . . . . . XDATA    CYDMAC  
?_CyDmaTdGetAddress?BYTE . . . . . . . . XDATA    CYDMAC  
?_CyDmaTdGetConfiguration?BYTE . . . . . XDATA    CYDMAC  
?_CyDmaTdSetConfiguration?BYTE . . . . . XDATA    CYDMAC  MAIN  
?_CySpcLoadMultiByte?BYTE. . . . . . . . XDATA    CYSPC  EEPROM  
?_CySpcLoadRow?BYTE. . . . . . . . . . . XDATA    CYSPC  EEPROM  
?_CySpcLoadRowFull?BYTE. . . . . . . . . XDATA    CYSPC  CYFLASH  
?_CySpcWriteRow?BYTE . . . . . . . . . . XDATA    CYSPC  CYFLASH  EEPROM  
?_CyWriteRowFull?BYTE. . . . . . . . . . XDATA    CYFLASH  
?_DMA_DmaInitialize?BYTE . . . . . . . . XDATA    DMA_DMA  MAIN  
?_PRINTF?BYTE. . . . . . . . . . . . . . XDATA    PRINTF  
?_SPRINTF?BYTE . . . . . . . . . . . . . XDATA    PRINTF  COMMAND_PROCESSING  
?_strcat?BYTE. . . . . . . . . . . . . . XDATA    STRCAT  COMMAND_PROCESSING  
?C?ADDXBP. . . . . . . . . . . . . . . . CODE     ?C?ADDXBP  CYLIB  
?C?CASTF . . . . . . . . . . . . . . . . CODE     ?C?CASTF  ADC  COMMAND_PROCESSING  INTERRUPTIONS  
?C?CCASE . . . . . . . . . . . . . . . . CODE     ?C?CCASE  COMMAND_PROCESSING  PRINTF  
?C?CLDOPTR . . . . . . . . . . . . . . . CODE     ?C?CLDOPTR  PRINTF  
?C?CLDPTR. . . . . . . . . . . . . . . . CODE     ?C?CLDPTR  COMMAND_PROCESSING  CYSPC  PRINTF  STRCAT  STRLEN  UART_RS4
                                                  85  UTILS  
?C?CODESEG . . . . . . . . . . . . . . . NUMBER   ** LX51 GENERATED **  
?C?COPYAMD . . . . . . . . . . . . . . . CODE     ?C?COPYAMD  COMMAND_PROCESSING  INTERRUPTIONS  MAIN  
?C?CSTPTR. . . . . . . . . . . . . . . . CODE     ?C?CSTPTR  CYDMAC  CYSPC  PRINTF  STRCAT  
?C?FCASTC. . . . . . . . . . . . . . . . CODE     ?C?FCAST  
?C?FCASTI. . . . . . . . . . . . . . . . CODE     ?C?FCAST  ADC  COMMAND_PROCESSING  
?C?FCASTL. . . . . . . . . . . . . . . . CODE     ?C?FCAST  ADC  COMMAND_PROCESSING  INTERRUPTIONS  
?C?FPADD . . . . . . . . . . . . . . . . CODE     ?C?FPADD  ?C?FPCONVERT  
?C?FPCMP . . . . . . . . . . . . . . . . CODE     ?C?FPCMP  
?C?FPCMP3. . . . . . . . . . . . . . . . CODE     ?C?FPCMP  ADC  COMMAND_PROCESSING  INTERRUPTIONS  
?C?FPCONVERT . . . . . . . . . . . . . . CODE     ?C?FPCONVERT  PRINTF  
?C?FPDIV . . . . . . . . . . . . . . . . CODE     ?C?FPDIV  ?C?FPCONVERT  ADC  COMMAND_PROCESSING  
?C?FPGETOPN2 . . . . . . . . . . . . . . CODE     ?C?FPGETOPN  ?C?FPADD  ?C?FPDIV  ?C?FPMUL  
?C?FPMUL . . . . . . . . . . . . . . . . CODE     ?C?FPMUL  ?C?FPCONVERT  ?C?FTNPWR  ADC  COMMAND_PROCESSING  INTERRUPTI
                                                  ONS  
LX51 LINKER/LOCATER V4.64.0.0                                                         01/11/2017  18:17:27  PAGE 143


?C?FPNANRESULT . . . . . . . . . . . . . CODE     ?C?FPGETOPN  ?C?FPADD  ?C?FPDIV  ?C?FPMUL  
?C?FPOVERFLOW. . . . . . . . . . . . . . CODE     ?C?FPGETOPN  ?C?FPADD  ?C?FPDIV  ?C?FPMUL  
?C?FPRESULT. . . . . . . . . . . . . . . CODE     ?C?FPGETOPN  ?C?FPADD  ?C?FPDIV  ?C?FPMUL  
?C?FPRESULT2 . . . . . . . . . . . . . . CODE     ?C?FPGETOPN  ?C?FPDIV  ?C?FPMUL  
?C?FPROUND . . . . . . . . . . . . . . . CODE     ?C?FPROUND  PRINTF  
?C?FPSUB . . . . . . . . . . . . . . . . CODE     ?C?FPADD  
?C?FPUNDERFLOW . . . . . . . . . . . . . CODE     ?C?FPGETOPN  ?C?FPADD  ?C?FPDIV  ?C?FPMUL  
?C?FTNPWR. . . . . . . . . . . . . . . . CODE     ?C?FTNPWR  ?C?FPCONVERT  
?C?IILDX . . . . . . . . . . . . . . . . CODE     ?C?IILDX  STRCAT  
?C?ILDIX . . . . . . . . . . . . . . . . CODE     ?C?ILDIX  STRCAT  
?C?ISTPTR. . . . . . . . . . . . . . . . CODE     ?C?ISTPTR  CYDMAC  
?C?LIMUL . . . . . . . . . . . . . . . . CODE     ?C?LIMUL  COMMAND_PROCESSING  CYSPC  
?C?LLDCODE . . . . . . . . . . . . . . . CODE     ?C?LLDCODE  ?C?LLDPTR  
?C?LLDIDATA. . . . . . . . . . . . . . . CODE     ?C?LLDIDATA  ?C?LLDPTR  INTERRUPTIONS  
?C?LLDPDATA. . . . . . . . . . . . . . . CODE     ?C?LLDPDATA  ?C?LLDPTR  
?C?LLDPTR. . . . . . . . . . . . . . . . CODE     ?C?LLDPTR  CYLIB  
?C?LLDXDATA. . . . . . . . . . . . . . . CODE     ?C?LLDXDATA  ?C?LLDPTR  
?C?LMUL. . . . . . . . . . . . . . . . . CODE     ?C?LMUL  ADC  CYLIB  CYPM  INTERRUPTIONS  UTILS  
?C?LNEG. . . . . . . . . . . . . . . . . CODE     ?C?LNEG  ?C?CASTF  ?C?FCAST  COMMAND_PROCESSING  INTERRUPTIONS  
?C?LNOT. . . . . . . . . . . . . . . . . CODE     ?C?LNOT  CYDMAC  
?C?LSHL. . . . . . . . . . . . . . . . . CODE     ?C?LSHL  ADC  COMMAND_PROCESSING  CYDMAC  CYLIB  INTERRUPTIONS  UTILS 
                                                   
?C?LSTIDATA. . . . . . . . . . . . . . . CODE     ?C?LSTIDATA  ?C?LSTPTR  INTERRUPTIONS  
?C?LSTPDATA. . . . . . . . . . . . . . . CODE     ?C?LSTPDATA  ?C?LSTPTR  
?C?LSTPTR. . . . . . . . . . . . . . . . CODE     ?C?LSTPTR  CYLIB  
?C?LSTXDATA. . . . . . . . . . . . . . . CODE     ?C?LSTXDATA  ?C?LSTPTR  ADC  BOOTLOADABLE  COMMAND_PROCESSING  CYDMAC 
                                                   CYFITTER_CFG  CYLIB  CYSPC  INTERRUPTIONS  MAIN  SHIFTREG_ENC_1  SHIF
                                                  TREG_ENC_2  SHIFTREG_ENC_3  SHIFTREG_ENC_4  SHIFTREG_ENC_5  SHIFTREG_E
                                                  NC_6  UTILS  
?C?PLDIXDATA . . . . . . . . . . . . . . CODE     ?C?PLDIXDATA  PRINTF  
?C?PSTXDATA. . . . . . . . . . . . . . . CODE     ?C?PSTXDATA  PRINTF  
?C?SLCMP . . . . . . . . . . . . . . . . CODE     ?C?SLCMP  COMMAND_PROCESSING  INTERRUPTIONS  UTILS  
?C?SLDIV . . . . . . . . . . . . . . . . CODE     ?C?SLDIV  ADC  INTERRUPTIONS  UTILS  
?C?SLSHR . . . . . . . . . . . . . . . . CODE     ?C?SLSHR  COMMAND_PROCESSING  INTERRUPTIONS  UTILS  
?C?STRCPYAMD . . . . . . . . . . . . . . CODE     ?C?STRCPYAMD  COMMAND_PROCESSING  
?C?ULCMP . . . . . . . . . . . . . . . . CODE     ?C?ULCMP  CYDMAC  CYFLASH  
?C?ULDIV . . . . . . . . . . . . . . . . CODE     ?C?ULDIV  ?C?SLDIV  ADC  BOOTLOADABLE  CYLIB  CYPM  
?C?ULSHR . . . . . . . . . . . . . . . . CODE     ?C?ULSHR  COMMAND_PROCESSING  CYLIB  INTERRUPTIONS  
?C?XDATASEG. . . . . . . . . . . . . . . NUMBER   ** LX51 GENERATED **  
?C?XPAGE1RST . . . . . . . . . . . . . . NUMBER   ?C_STARTUP  ADC_INT  INTERRUPTIONS  ISR_RS485_RX  ISR_WATCHDOG  UART_R
                                                  S485_INT  
?C?XPAGE1SFR . . . . . . . . . . . . . . DATA     ?C_STARTUP  ADC_INT  INTERRUPTIONS  ISR_RS485_RX  ISR_WATCHDOG  UART_R
                                                  S485_INT  
?C_START . . . . . . . . . . . . . . . . CODE     ?C_INIT  ?C_STARTUP  
?C_STARTUP . . . . . . . . . . . . . . . CODE     ?C_STARTUP  MAIN  
?C_XBP . . . . . . . . . . . . . . . . . DATA     ?C_XBP  ?C?ADDXBP  ?C_STARTUP  CYLIB  
_?CyDelay. . . . . . . . . . . . . . . . CODE     CYLIB  COMMAND_PROCESSING  CYBOOTASMKEIL  MAIN  
_?CyDelayFreq. . . . . . . . . . . . . . CODE     CYLIB  
_?CyHalt . . . . . . . . . . . . . . . . CODE     CYLIB  
_ABS . . . . . . . . . . . . . . . . . . CODE     ABS  INTERRUPTIONS  
_ADC_AMux_FastSelect . . . . . . . . . . CODE     ADC_AMUX  
_ADC_AMux_Select . . . . . . . . . . . . CODE     ADC_AMUX  ADC  
_ADC_AMux_Set. . . . . . . . . . . . . . CODE     CYFITTER_CFG  ADC_AMUX  
_ADC_AMux_Unset. . . . . . . . . . . . . CODE     CYFITTER_CFG  ADC_AMUX  
_ADC_CountsTo_mVolts . . . . . . . . . . CODE     ADC  
_ADC_CountsTo_uVolts . . . . . . . . . . CODE     ADC  
_ADC_CountsTo_Volts. . . . . . . . . . . CODE     ADC  
_ADC_Ext_CP_Clk_ClearModeRegister. . . . CODE     ADC_EXT_CP_CLK  
_ADC_Ext_CP_Clk_SetDividerRegister . . . CODE     ADC_EXT_CP_CLK  ADC  
_ADC_Ext_CP_Clk_SetModeRegister. . . . . CODE     ADC_EXT_CP_CLK  ADC  
_ADC_Ext_CP_Clk_SetSourceRegister. . . . CODE     ADC_EXT_CP_CLK  
_ADC_Ext_CP_Clk_StandbyPower . . . . . . CODE     ADC_EXT_CP_CLK  
_ADC_IsEndConversion . . . . . . . . . . CODE     ADC  
_ADC_SelectConfiguration . . . . . . . . CODE     ADC  
_ADC_SetBufferGain . . . . . . . . . . . CODE     ADC  
LX51 LINKER/LOCATER V4.64.0.0                                                         01/11/2017  18:17:27  PAGE 144


_ADC_SetCoherency. . . . . . . . . . . . CODE     ADC  
_ADC_SetGain . . . . . . . . . . . . . . CODE     ADC  
_ADC_SetGCOR . . . . . . . . . . . . . . CODE     ADC  
_ADC_SetOffset . . . . . . . . . . . . . CODE     ADC  
_ADC_SOC_Write . . . . . . . . . . . . . CODE     ADC_SOC  INTERRUPTIONS  MAIN  
_ADC_STATUS_WriteMask. . . . . . . . . . CODE     ADC_STATUS  
_ADC_theACLK_ClearModeRegister . . . . . CODE     ADC_THEACLK  
_ADC_theACLK_SetDividerRegister. . . . . CODE     ADC_THEACLK  ADC  
_ADC_theACLK_SetModeRegister . . . . . . CODE     ADC_THEACLK  ADC  
_ADC_theACLK_SetPhaseRegister. . . . . . CODE     ADC_THEACLK  
_ADC_theACLK_SetSourceRegister . . . . . CODE     ADC_THEACLK  
_ADC_theACLK_StandbyPower. . . . . . . . CODE     ADC_THEACLK  
_Bootloadable_SetFlashByte . . . . . . . CODE     BOOTLOADABLE  
_cfg_write_bytes . . . . . . . . . . . . CODE     CYMEM  
_cfg_write_bytes_code. . . . . . . . . . CODE     CYMEM  
_check_enc_data. . . . . . . . . . . . . CODE     UTILS  INTERRUPTIONS  
_CLOCK_UART_ClearModeRegister. . . . . . CODE     CLOCK_UART  
_CLOCK_UART_SetDividerRegister . . . . . CODE     CLOCK_UART  COMMAND_PROCESSING  
_CLOCK_UART_SetModeRegister. . . . . . . CODE     CLOCK_UART  
_CLOCK_UART_SetSourceRegister. . . . . . CODE     CLOCK_UART  
_CLOCK_UART_StandbyPower . . . . . . . . CODE     CLOCK_UART  
_commWrite . . . . . . . . . . . . . . . CODE     COMMAND_PROCESSING  
_commWrite_old_id. . . . . . . . . . . . CODE     COMMAND_PROCESSING  
_COUNTER_ENC_SetInterruptMode. . . . . . CODE     COUNTER_ENC  
_COUNTER_ENC_WriteCompare. . . . . . . . CODE     COUNTER_ENC  
_COUNTER_ENC_WriteControlRegister. . . . CODE     COUNTER_ENC  
_COUNTER_ENC_WriteCounter. . . . . . . . CODE     COUNTER_ENC  
_COUNTER_ENC_WritePeriod . . . . . . . . CODE     COUNTER_ENC  
_CyBusClk_SetDivider . . . . . . . . . . CODE     CYLIB  CYPM  
_cyconfigcpy . . . . . . . . . . . . . . CODE     CYMEM  CYFITTER_CFG  
_cyconfigcpycode . . . . . . . . . . . . CODE     CYMEM  CYFITTER_CFG  
_CyCpuClk_SetDivider . . . . . . . . . . CODE     CYLIB  
_CyDelay . . . . . . . . . . . . . . . . CODE     CYBOOTASMKEIL  
_CyDelayCycles . . . . . . . . . . . . . CODE     CYBOOTASMKEIL  CYFITTER_CFG  CYLIB  CYPM  
_CyDelayUs . . . . . . . . . . . . . . . CODE     CYBOOTASMKEIL  ADC  CYFLASH  CYLIB  CYPM  CYSPC  
_CyDmacClearError. . . . . . . . . . . . CODE     CYDMAC  
_CyDmaChDisable. . . . . . . . . . . . . CODE     CYDMAC  DMA_DMA  
_CyDmaChEnable . . . . . . . . . . . . . CODE     CYDMAC  MAIN  
_CyDmaChFree . . . . . . . . . . . . . . CODE     CYDMAC  
_CyDmaChGetRequest . . . . . . . . . . . CODE     CYDMAC  
_CyDmaChPriority . . . . . . . . . . . . CODE     CYDMAC  DMA_DMA  
_CyDmaChRoundRobin . . . . . . . . . . . CODE     CYDMAC  
_CyDmaChSetConfiguration . . . . . . . . CODE     CYDMAC  DMA_DMA  
_CyDmaChSetExtendedAddress . . . . . . . CODE     CYDMAC  DMA_DMA  
_CyDmaChSetInitialTd . . . . . . . . . . CODE     CYDMAC  MAIN  
_CyDmaChSetRequest . . . . . . . . . . . CODE     CYDMAC  
_CyDmaChStatus . . . . . . . . . . . . . CODE     CYDMAC  
_CyDmaClearPendingDrq. . . . . . . . . . CODE     CYDMAC  
_CyDmaTdFree . . . . . . . . . . . . . . CODE     CYDMAC  
_CyDmaTdGetAddress . . . . . . . . . . . CODE     CYDMAC  
_CyDmaTdGetConfiguration . . . . . . . . CODE     CYDMAC  
_CyDmaTdSetAddress . . . . . . . . . . . CODE     CYDMAC  MAIN  
_CyDmaTdSetConfiguration . . . . . . . . CODE     CYDMAC  MAIN  
_CyEnableInts. . . . . . . . . . . . . . CODE     CYLIB  
_CyExitCriticalSection . . . . . . . . . CODE     CYBOOTASMKEIL  ADC  ADC_STATUS  COUNTER_ENC  CYDMAC  CYFLASH  CYLIB  C
                                                  YPM  CYSPC  EEPROM  FF_STATUS  SHIFTREG_ENC_1  SHIFTREG_ENC_2  SHIFTRE
                                                  G_ENC_3  SHIFTREG_ENC_4  SHIFTREG_ENC_5  SHIFTREG_ENC_6  UART_RS485  
_CyFlash_SetWaitCycles . . . . . . . . . CODE     CYFLASH  CYPM  
_CyGetUniqueId . . . . . . . . . . . . . CODE     CYLIB  
_CyILO_SetPowerMode. . . . . . . . . . . CODE     CYLIB  CYPM  
_CyILO_SetSource . . . . . . . . . . . . CODE     CYLIB  
_CyIMO_SetFreq . . . . . . . . . . . . . CODE     CYLIB  CYPM  
_CyIMO_SetSource . . . . . . . . . . . . CODE     CYLIB  CYPM  
_CyIMO_Start . . . . . . . . . . . . . . CODE     CYLIB  CYPM  
_CyIntGetPriority. . . . . . . . . . . . CODE     CYLIB  
LX51 LINKER/LOCATER V4.64.0.0                                                         01/11/2017  18:17:27  PAGE 145


_CyIntGetState . . . . . . . . . . . . . CODE     CYLIB  
_CyIntGetVector. . . . . . . . . . . . . CODE     CYLIB  
_CyIntSetPriority. . . . . . . . . . . . CODE     CYLIB  ADC  UART_RS485  
_CyIntSetVector. . . . . . . . . . . . . CODE     CYLIB  ADC  UART_RS485  
_CyMasterClk_SetDivider. . . . . . . . . CODE     CYLIB  CYPM  
_CyMasterClk_SetSource . . . . . . . . . CODE     CYLIB  CYPM  
_cymemzero . . . . . . . . . . . . . . . CODE     CYMEM  
_CyPLL_OUT_SetPQ . . . . . . . . . . . . CODE     CYLIB  
_CyPLL_OUT_SetSource . . . . . . . . . . CODE     CYLIB  
_CyPLL_OUT_Start . . . . . . . . . . . . CODE     CYLIB  CYPM  
_CyPmAltAct. . . . . . . . . . . . . . . CODE     CYPM  
_CyPmCtwSetInterval. . . . . . . . . . . CODE     CYPM  
_CyPmFtwSetInterval. . . . . . . . . . . CODE     CYPM  CYLIB  
_CyPmHibernateEx . . . . . . . . . . . . CODE     CYPM  
_CyPmReadStatus. . . . . . . . . . . . . CODE     CYPM  CYLIB  
_CyPmSleep . . . . . . . . . . . . . . . CODE     CYPM  
_cyread16. . . . . . . . . . . . . . . . CODE     CYMEM  
_cyread16_nodpx. . . . . . . . . . . . . CODE     CYMEM  ADC  ADC_EXT_CP_CLK  ADC_THEACLK  CLOCK_UART  CYDMAC  CYLIB  IS
                                                  R_RS485_RX  ISR_WATCHDOG  MY_TIMER  PACER_TIMER  WATCHDOG_COUNTER  
_cyread24. . . . . . . . . . . . . . . . CODE     CYMEM  
_cyread24_nodpx. . . . . . . . . . . . . CODE     CYMEM  SHIFTREG_ENC_1  SHIFTREG_ENC_2  SHIFTREG_ENC_3  SHIFTREG_ENC_4 
                                                   SHIFTREG_ENC_5  SHIFTREG_ENC_6  
_cyread32. . . . . . . . . . . . . . . . CODE     CYMEM  
_cyread32_nodpx. . . . . . . . . . . . . CODE     CYMEM  CYDMAC  
_cyread8 . . . . . . . . . . . . . . . . CODE     CYMEM  ADC  CYFITTER_CFG  CYLIB  CYSPC  
_cyread8_nodpx . . . . . . . . . . . . . CODE     CYMEM  
_CySetFlashEEBuffer. . . . . . . . . . . CODE     CYFLASH  
_CySpcEraseSector. . . . . . . . . . . . CODE     CYSPC  EEPROM  
_CySpcGetTemp. . . . . . . . . . . . . . CODE     CYSPC  CYFLASH  
_CySpcLoadMultiByte. . . . . . . . . . . CODE     CYSPC  EEPROM  
_CySpcLoadRow. . . . . . . . . . . . . . CODE     CYSPC  EEPROM  
_CySpcLoadRowFull. . . . . . . . . . . . CODE     CYSPC  CYFLASH  
_CySpcReadData . . . . . . . . . . . . . CODE     CYSPC  CYFLASH  
_CySpcWriteRow . . . . . . . . . . . . . CODE     CYSPC  CYFLASH  EEPROM  
_CyUsbClk_SetSource. . . . . . . . . . . CODE     CYLIB  
_CyVdLvAnalogEnable. . . . . . . . . . . CODE     CYLIB  CYPM  
_CyVdLvDigitEnable . . . . . . . . . . . CODE     CYLIB  CYPM  
_CyVdStickyStatus. . . . . . . . . . . . CODE     CYLIB  
_CyWdtStart. . . . . . . . . . . . . . . CODE     CYLIB  
_cywrite16 . . . . . . . . . . . . . . . CODE     CYMEM  CYFITTER_CFG  
_cywrite16_nodpx . . . . . . . . . . . . CODE     CYMEM  ADC  ADC_EXT_CP_CLK  ADC_THEACLK  CLOCK_UART  CYDMAC  CYFITTER_
                                                  CFG  CYLIB  ISR_RS485_RX  ISR_WATCHDOG  MY_TIMER  PACER_TIMER  WATCHDO
                                                  G_COUNTER  
_cywrite24 . . . . . . . . . . . . . . . CODE     CYMEM  
_cywrite24_nodpx . . . . . . . . . . . . CODE     CYMEM  SHIFTREG_ENC_1  SHIFTREG_ENC_2  SHIFTREG_ENC_3  SHIFTREG_ENC_4 
                                                   SHIFTREG_ENC_5  SHIFTREG_ENC_6  
_cywrite32 . . . . . . . . . . . . . . . CODE     CYMEM  
_cywrite32_nodpx . . . . . . . . . . . . CODE     CYMEM  
_cywrite8. . . . . . . . . . . . . . . . CODE     CYMEM  CYFITTER_CFG  
_cywrite8_nodpx. . . . . . . . . . . . . CODE     CYMEM  
_CyWriteRowData. . . . . . . . . . . . . CODE     CYFLASH  BOOTLOADABLE  
_CyWriteRowFull. . . . . . . . . . . . . CODE     CYFLASH  
_CyXTAL_32KHZ_SetPowerMode . . . . . . . CODE     CYLIB  
_CyXTAL_SetFbVoltage . . . . . . . . . . CODE     CYLIB  
_CyXTAL_SetStartup . . . . . . . . . . . CODE     CYLIB  
_CyXTAL_SetWdVoltage . . . . . . . . . . CODE     CYLIB  
_CyXTAL_Start. . . . . . . . . . . . . . CODE     CYLIB  CYPM  
_DMA_DmaInitialize . . . . . . . . . . . CODE     DMA_DMA  MAIN  
_dma_wait. . . . . . . . . . . . . . . . CODE     ?C_STARTUP  
_EEPROM_ByteWritePos . . . . . . . . . . CODE     EEPROM  
_EEPROM_EraseSector. . . . . . . . . . . CODE     EEPROM  
_EEPROM_ReadByte . . . . . . . . . . . . CODE     EEPROM  
_EEPROM_StartErase . . . . . . . . . . . CODE     EEPROM  
_EEPROM_StartWrite . . . . . . . . . . . CODE     EEPROM  
_EEPROM_Write. . . . . . . . . . . . . . CODE     EEPROM  COMMAND_PROCESSING  
LX51 LINKER/LOCATER V4.64.0.0                                                         01/11/2017  18:17:27  PAGE 146


_EEPROM_WriteByte. . . . . . . . . . . . CODE     EEPROM  
_encoder_reading . . . . . . . . . . . . CODE     INTERRUPTIONS  
_FF_STATUS_WriteMask . . . . . . . . . . CODE     FF_STATUS  
_filter_i1 . . . . . . . . . . . . . . . CODE     UTILS  INTERRUPTIONS  
_filter_i2 . . . . . . . . . . . . . . . CODE     UTILS  INTERRUPTIONS  
_filter_vel_1. . . . . . . . . . . . . . CODE     UTILS  
_filter_vel_2. . . . . . . . . . . . . . CODE     UTILS  
_filter_vel_3. . . . . . . . . . . . . . CODE     UTILS  
_FTDI_ENABLE_REG_Write . . . . . . . . . CODE     FTDI_ENABLE_REG  COMMAND_PROCESSING  MAIN  
_get_param_list. . . . . . . . . . . . . CODE     COMMAND_PROCESSING  
_get_pwm_sign_1. . . . . . . . . . . . . CODE     UTILS  
_get_pwm_sign_2. . . . . . . . . . . . . CODE     UTILS  
_infoGet . . . . . . . . . . . . . . . . CODE     COMMAND_PROCESSING  INTERRUPTIONS  
_infoPrepare . . . . . . . . . . . . . . CODE     COMMAND_PROCESSING  
_ISR_RS485_RX_SetPriority. . . . . . . . CODE     ISR_RS485_RX  
_ISR_RS485_RX_SetVector. . . . . . . . . CODE     ISR_RS485_RX  
_ISR_RS485_RX_StartEx. . . . . . . . . . CODE     ISR_RS485_RX  MAIN  
_ISR_WATCHDOG_SetPriority. . . . . . . . CODE     ISR_WATCHDOG  
_ISR_WATCHDOG_SetVector. . . . . . . . . CODE     ISR_WATCHDOG  
_ISR_WATCHDOG_StartEx. . . . . . . . . . CODE     ISR_WATCHDOG  MAIN  
_LCRChecksum . . . . . . . . . . . . . . CODE     UTILS  COMMAND_PROCESSING  
_memStore. . . . . . . . . . . . . . . . CODE     COMMAND_PROCESSING  INTERRUPTIONS  
_motor_control . . . . . . . . . . . . . CODE     INTERRUPTIONS  
_MOTOR_DIR_Write . . . . . . . . . . . . CODE     MOTOR_DIR  INTERRUPTIONS  MAIN  
_MOTOR_ON_OFF_Write. . . . . . . . . . . CODE     MOTOR_ON_OFF  COMMAND_PROCESSING  INTERRUPTIONS  MAIN  
_MY_TIMER_SetInterruptMode . . . . . . . CODE     MY_TIMER  
_MY_TIMER_WriteControlRegister . . . . . CODE     MY_TIMER  
_MY_TIMER_WriteCounter . . . . . . . . . CODE     MY_TIMER  INTERRUPTIONS  
_MY_TIMER_WritePeriod. . . . . . . . . . CODE     MY_TIMER  
_PACER_TIMER_SetInterruptMode. . . . . . CODE     PACER_TIMER  
_PACER_TIMER_WriteControlRegister. . . . CODE     PACER_TIMER  
_PACER_TIMER_WriteCounter. . . . . . . . CODE     PACER_TIMER  
_PACER_TIMER_WritePeriod . . . . . . . . CODE     PACER_TIMER  
_POWER_ON_LED_REG_Write. . . . . . . . . CODE     POWER_ON_LED_REG  INTERRUPTIONS  
_PRINTF. . . . . . . . . . . . . . . . . CODE     PRINTF  
_PUTCHAR . . . . . . . . . . . . . . . . CODE     PUTCHAR  PRINTF  
_PWM_MOTORS_WriteCompare1. . . . . . . . CODE     PWM_MOTORS  COMMAND_PROCESSING  INTERRUPTIONS  MAIN  
_PWM_MOTORS_WriteCompare2. . . . . . . . CODE     PWM_MOTORS  COMMAND_PROCESSING  INTERRUPTIONS  MAIN  
_PWM_MOTORS_WriteControlRegister . . . . CODE     PWM_MOTORS  
_PWM_MOTORS_WriteCounter . . . . . . . . CODE     PWM_MOTORS  
_PWM_MOTORS_WritePeriod. . . . . . . . . CODE     PWM_MOTORS  
_RESET_COUNTERS_Write. . . . . . . . . . CODE     RESET_COUNTERS  MAIN  
_RESET_FF_Write. . . . . . . . . . . . . CODE     RESET_FF  MAIN  
_RS485_CTS_Write . . . . . . . . . . . . CODE     RS485_CTS  COMMAND_PROCESSING  INTERRUPTIONS  MAIN  
_sendAcknowledgment. . . . . . . . . . . CODE     COMMAND_PROCESSING  
_SetAnalogRoutingPumps . . . . . . . . . CODE     CYFITTER_CFG  
_SHIFTREG_ENC_1_GetFIFOStatus. . . . . . CODE     SHIFTREG_ENC_1  
_SHIFTREG_ENC_1_SetIntMode . . . . . . . CODE     SHIFTREG_ENC_1  
_SHIFTREG_ENC_1_WriteRegValue. . . . . . CODE     SHIFTREG_ENC_1  
_SHIFTREG_ENC_2_GetFIFOStatus. . . . . . CODE     SHIFTREG_ENC_2  
_SHIFTREG_ENC_2_SetIntMode . . . . . . . CODE     SHIFTREG_ENC_2  
_SHIFTREG_ENC_2_WriteRegValue. . . . . . CODE     SHIFTREG_ENC_2  
_SHIFTREG_ENC_3_GetFIFOStatus. . . . . . CODE     SHIFTREG_ENC_3  
_SHIFTREG_ENC_3_SetIntMode . . . . . . . CODE     SHIFTREG_ENC_3  
_SHIFTREG_ENC_3_WriteRegValue. . . . . . CODE     SHIFTREG_ENC_3  
_SHIFTREG_ENC_4_GetFIFOStatus. . . . . . CODE     SHIFTREG_ENC_4  
_SHIFTREG_ENC_4_SetIntMode . . . . . . . CODE     SHIFTREG_ENC_4  
_SHIFTREG_ENC_4_WriteRegValue. . . . . . CODE     SHIFTREG_ENC_4  
_SHIFTREG_ENC_5_GetFIFOStatus. . . . . . CODE     SHIFTREG_ENC_5  
_SHIFTREG_ENC_5_SetIntMode . . . . . . . CODE     SHIFTREG_ENC_5  
_SHIFTREG_ENC_5_WriteRegValue. . . . . . CODE     SHIFTREG_ENC_5  
_SHIFTREG_ENC_6_GetFIFOStatus. . . . . . CODE     SHIFTREG_ENC_6  
_SHIFTREG_ENC_6_SetIntMode . . . . . . . CODE     SHIFTREG_ENC_6  
_SHIFTREG_ENC_6_WriteRegValue. . . . . . CODE     SHIFTREG_ENC_6  
_SPRINTF . . . . . . . . . . . . . . . . CODE     PRINTF  COMMAND_PROCESSING  
LX51 LINKER/LOCATER V4.64.0.0                                                         01/11/2017  18:17:27  PAGE 147


_strcat. . . . . . . . . . . . . . . . . CODE     STRCAT  COMMAND_PROCESSING  
_STRLEN. . . . . . . . . . . . . . . . . CODE     STRLEN  COMMAND_PROCESSING  
_UART_RS485_PutArray . . . . . . . . . . CODE     UART_RS485  
_UART_RS485_PutChar. . . . . . . . . . . CODE     UART_RS485  COMMAND_PROCESSING  
_UART_RS485_PutCRLF. . . . . . . . . . . CODE     UART_RS485  
_UART_RS485_PutString. . . . . . . . . . CODE     UART_RS485  COMMAND_PROCESSING  
_UART_RS485_SendBreak. . . . . . . . . . CODE     UART_RS485  
_UART_RS485_SetRxAddress1. . . . . . . . CODE     UART_RS485  
_UART_RS485_SetRxAddress2. . . . . . . . CODE     UART_RS485  
_UART_RS485_SetRxAddressMode . . . . . . CODE     UART_RS485  
_UART_RS485_SetRxInterruptMode . . . . . CODE     UART_RS485  
_UART_RS485_SetTxAddressMode . . . . . . CODE     UART_RS485  
_UART_RS485_SetTxInterruptMode . . . . . CODE     UART_RS485  
_UART_RS485_WriteControlRegister . . . . CODE     UART_RS485  
_UART_RS485_WriteTxData. . . . . . . . . CODE     UART_RS485  
_WATCHDOG_COUNTER_SetInterruptMode . . . CODE     WATCHDOG_COUNTER  
_WATCHDOG_COUNTER_WriteControlRegister . CODE     WATCHDOG_COUNTER  
_WATCHDOG_COUNTER_WriteCounter . . . . . CODE     WATCHDOG_COUNTER  
_WATCHDOG_COUNTER_WritePeriod. . . . . . CODE     WATCHDOG_COUNTER  COMMAND_PROCESSING  
_WATCHDOG_ENABLER_Write. . . . . . . . . CODE     WATCHDOG_ENABLER  COMMAND_PROCESSING  MAIN  
_WATCHDOG_REFRESH_Write. . . . . . . . . CODE     WATCHDOG_REFRESH  MAIN  
AC . . . . . . . . . . . . . . . . . . . DATA     COMMAND_PROCESSING  
ACC. . . . . . . . . . . . . . . . . . . DATA     COMMAND_PROCESSING  
ADC_AMux__addrTable. . . . . . . . . . . CONST    CYFITTER_CFG  
ADC_AMux__maskTable. . . . . . . . . . . CONST    CYFITTER_CFG  
ADC_AMux_Start . . . . . . . . . . . . . CODE     ADC_AMUX  
ADC_buf. . . . . . . . . . . . . . . . . XDATA    GLOBALS  INTERRUPTIONS  MAIN  
ADC_Config . . . . . . . . . . . . . . . XDATA    ADC  
ADC_convDone . . . . . . . . . . . . . . XDATA    ADC  
ADC_CountsPerVolt. . . . . . . . . . . . XDATA    ADC  
ADC_Enable . . . . . . . . . . . . . . . CODE     ADC  
ADC_Ext_CP_Clk_GetDividerRegister. . . . CODE     ADC_EXT_CP_CLK  
ADC_Ext_CP_Clk_GetModeRegister . . . . . CODE     ADC_EXT_CP_CLK  
ADC_Ext_CP_Clk_GetSourceRegister . . . . CODE     ADC_EXT_CP_CLK  
ADC_Ext_CP_Clk_Start . . . . . . . . . . CODE     ADC_EXT_CP_CLK  
ADC_Ext_CP_Clk_Stop. . . . . . . . . . . CODE     ADC_EXT_CP_CLK  
ADC_Ext_CP_Clk_StopBlock . . . . . . . . CODE     ADC_EXT_CP_CLK  
ADC_GetResult16. . . . . . . . . . . . . CODE     ADC  
ADC_GetResult32. . . . . . . . . . . . . CODE     ADC  
ADC_GetResult8 . . . . . . . . . . . . . CODE     ADC  
ADC_Init . . . . . . . . . . . . . . . . CODE     ADC  
ADC_initVar. . . . . . . . . . . . . . . XDATA    ADC  
ADC_ISR1 . . . . . . . . . . . . . . . . CODE     ADC_INT  ADC  
ADC_ISR2 . . . . . . . . . . . . . . . . CODE     ADC_INT  
ADC_ISR3 . . . . . . . . . . . . . . . . CODE     ADC_INT  
ADC_ISR4 . . . . . . . . . . . . . . . . CODE     ADC_INT  
ADC_Offset . . . . . . . . . . . . . . . XDATA    ADC  
ADC_Read16 . . . . . . . . . . . . . . . CODE     ADC  
ADC_Read32 . . . . . . . . . . . . . . . CODE     ADC  
ADC_Read8. . . . . . . . . . . . . . . . CODE     ADC  
ADC_ReadGCOR . . . . . . . . . . . . . . CODE     ADC  
ADC_SOC_Read . . . . . . . . . . . . . . CODE     ADC_SOC  
ADC_Start. . . . . . . . . . . . . . . . CODE     ADC  MAIN  
ADC_StartConvert . . . . . . . . . . . . CODE     ADC  
ADC_started. . . . . . . . . . . . . . . XDATA    ADC  
ADC_STATUS_InterruptDisable. . . . . . . CODE     ADC_STATUS  
ADC_STATUS_InterruptEnable . . . . . . . CODE     ADC_STATUS  
ADC_STATUS_Read. . . . . . . . . . . . . CODE     ADC_STATUS  INTERRUPTIONS  
ADC_STATUS_ReadMask. . . . . . . . . . . CODE     ADC_STATUS  
ADC_Stop . . . . . . . . . . . . . . . . CODE     ADC  
ADC_stopConversion . . . . . . . . . . . XDATA    ADC  
ADC_StopConvert. . . . . . . . . . . . . CODE     ADC  
ADC_theACLK_GetDividerRegister . . . . . CODE     ADC_THEACLK  
ADC_theACLK_GetModeRegister. . . . . . . CODE     ADC_THEACLK  
ADC_theACLK_GetPhaseRegister . . . . . . CODE     ADC_THEACLK  
LX51 LINKER/LOCATER V4.64.0.0                                                         01/11/2017  18:17:27  PAGE 148


ADC_theACLK_GetSourceRegister. . . . . . CODE     ADC_THEACLK  
ADC_theACLK_Start. . . . . . . . . . . . CODE     ADC_THEACLK  
ADC_theACLK_Stop . . . . . . . . . . . . CODE     ADC_THEACLK  
ADC_theACLK_StopBlock. . . . . . . . . . CODE     ADC_THEACLK  
analog_read_end. . . . . . . . . . . . . CODE     INTERRUPTIONS  
B. . . . . . . . . . . . . . . . . . . . DATA     COMMAND_PROCESSING  
Bootloadable_Load. . . . . . . . . . . . CODE     BOOTLOADABLE  COMMAND_PROCESSING  
c_mem. . . . . . . . . . . . . . . . . . XDATA    GLOBALS  COMMAND_PROCESSING  INTERRUPTIONS  MAIN  
calibration. . . . . . . . . . . . . . . CODE     INTERRUPTIONS  
calibration_flag . . . . . . . . . . . . XDATA    GLOBALS  COMMAND_PROCESSING  INTERRUPTIONS  MAIN  
CLOCK_UART_GetDividerRegister. . . . . . CODE     CLOCK_UART  
CLOCK_UART_GetModeRegister . . . . . . . CODE     CLOCK_UART  
CLOCK_UART_GetSourceRegister . . . . . . CODE     CLOCK_UART  
CLOCK_UART_Start . . . . . . . . . . . . CODE     CLOCK_UART  
CLOCK_UART_Stop. . . . . . . . . . . . . CODE     CLOCK_UART  
CLOCK_UART_StopBlock . . . . . . . . . . CODE     CLOCK_UART  
cmd_activate . . . . . . . . . . . . . . CODE     COMMAND_PROCESSING  
cmd_get_activate . . . . . . . . . . . . CODE     COMMAND_PROCESSING  
cmd_get_counters . . . . . . . . . . . . CODE     COMMAND_PROCESSING  
cmd_get_curr_and_meas. . . . . . . . . . CODE     COMMAND_PROCESSING  
cmd_get_currents . . . . . . . . . . . . CODE     COMMAND_PROCESSING  
cmd_get_inputs . . . . . . . . . . . . . CODE     COMMAND_PROCESSING  
cmd_get_measurements . . . . . . . . . . CODE     COMMAND_PROCESSING  
cmd_get_velocities . . . . . . . . . . . CODE     COMMAND_PROCESSING  
cmd_ping . . . . . . . . . . . . . . . . CODE     COMMAND_PROCESSING  
cmd_set_baudrate . . . . . . . . . . . . CODE     COMMAND_PROCESSING  
cmd_set_inputs . . . . . . . . . . . . . CODE     COMMAND_PROCESSING  
cmd_set_pos_stiff. . . . . . . . . . . . CODE     COMMAND_PROCESSING  
cmd_set_watchdog . . . . . . . . . . . . CODE     COMMAND_PROCESSING  
cmd_store_params . . . . . . . . . . . . CODE     COMMAND_PROCESSING  
commProcess. . . . . . . . . . . . . . . CODE     COMMAND_PROCESSING  INTERRUPTIONS  
COUNTER_ENC_ClearFIFO. . . . . . . . . . CODE     COUNTER_ENC  
COUNTER_ENC_Enable . . . . . . . . . . . CODE     COUNTER_ENC  
COUNTER_ENC_Init . . . . . . . . . . . . CODE     COUNTER_ENC  
COUNTER_ENC_initVar. . . . . . . . . . . XDATA    COUNTER_ENC  
COUNTER_ENC_ReadCapture. . . . . . . . . CODE     COUNTER_ENC  
COUNTER_ENC_ReadCompare. . . . . . . . . CODE     COUNTER_ENC  
COUNTER_ENC_ReadControlRegister. . . . . CODE     COUNTER_ENC  
COUNTER_ENC_ReadCounter. . . . . . . . . CODE     COUNTER_ENC  
COUNTER_ENC_ReadPeriod . . . . . . . . . CODE     COUNTER_ENC  
COUNTER_ENC_ReadStatusRegister . . . . . CODE     COUNTER_ENC  
COUNTER_ENC_Start. . . . . . . . . . . . CODE     COUNTER_ENC  MAIN  
COUNTER_ENC_Stop . . . . . . . . . . . . CODE     COUNTER_ENC  
CY . . . . . . . . . . . . . . . . . . . DATA     COMMAND_PROCESSING  
cydelay_32k_ms . . . . . . . . . . . . . XDATA    CYLIB  
cydelay_freq_hz. . . . . . . . . . . . . XDATA    CYLIB  
cydelay_freq_khz . . . . . . . . . . . . XDATA    CYLIB  
cydelay_freq_mhz . . . . . . . . . . . . XDATA    CYLIB  CYBOOTASMKEIL  
CyDisableInts. . . . . . . . . . . . . . CODE     CYLIB  
CyDmacConfigure. . . . . . . . . . . . . CODE     CYDMAC  ?C_STARTUP  
CyDmacError. . . . . . . . . . . . . . . CODE     CYDMAC  
CyDmacErrorAddress . . . . . . . . . . . CODE     CYDMAC  
CyDmaChAlloc . . . . . . . . . . . . . . CODE     CYDMAC  
CyDmaTdAllocate. . . . . . . . . . . . . CODE     CYDMAC  MAIN  
CyDmaTdFreeCount . . . . . . . . . . . . CODE     CYDMAC  
CyEEPROM_ReadRelease . . . . . . . . . . CODE     CYFLASH  EEPROM  
CyEEPROM_ReadReserve . . . . . . . . . . CODE     CYFLASH  EEPROM  
CyEEPROM_Start . . . . . . . . . . . . . CODE     CYFLASH  EEPROM  
CyEEPROM_Stop. . . . . . . . . . . . . . CODE     CYFLASH  EEPROM  
CyEnterCriticalSection . . . . . . . . . CODE     CYBOOTASMKEIL  ADC  ADC_STATUS  COUNTER_ENC  CYDMAC  CYFLASH  CYLIB  C
                                                  YPM  CYSPC  EEPROM  FF_STATUS  SHIFTREG_ENC_1  SHIFTREG_ENC_2  SHIFTRE
                                                  G_ENC_3  SHIFTREG_ENC_4  SHIFTREG_ENC_5  SHIFTREG_ENC_6  UART_RS485  
cyfitter_cfg . . . . . . . . . . . . . . CODE     CYFITTER_CFG  ?C_STARTUP  
CyFlash_Start. . . . . . . . . . . . . . CODE     CYFLASH  
CyFlash_Stop . . . . . . . . . . . . . . CODE     CYFLASH  
LX51 LINKER/LOCATER V4.64.0.0                                                         01/11/2017  18:17:27  PAGE 149


CyILO_Disable33K . . . . . . . . . . . . CODE     CYLIB  
CyILO_Enable33K. . . . . . . . . . . . . CODE     CYLIB  
CyILO_Start100K. . . . . . . . . . . . . CODE     CYLIB  CYPM  
CyILO_Start1K. . . . . . . . . . . . . . CODE     CYLIB  CYPM  
CyILO_Stop100K . . . . . . . . . . . . . CODE     CYLIB  
CyILO_Stop1K . . . . . . . . . . . . . . CODE     CYLIB  
CyIMO_DisableDoubler . . . . . . . . . . CODE     CYLIB  CYPM  
CyIMO_EnableDoubler. . . . . . . . . . . CODE     CYLIB  CYPM  
CyIMO_Stop . . . . . . . . . . . . . . . CODE     CYLIB  CYPM  
CyPLL_OUT_Stop . . . . . . . . . . . . . CODE     CYLIB  CYPM  
CyPmHibernate. . . . . . . . . . . . . . CODE     CYPM  
CyPmOppsSet. . . . . . . . . . . . . . . CODE     CYPM  
CyPmRestoreClocks. . . . . . . . . . . . CODE     CYPM  
CyPmSaveClocks . . . . . . . . . . . . . CODE     CYPM  
CyResetStatus. . . . . . . . . . . . . . XDATA    CYLIB  ?C_STARTUP  
CySetTemp. . . . . . . . . . . . . . . . CODE     CYFLASH  EEPROM  
CySoftwareReset. . . . . . . . . . . . . CODE     CYLIB  BOOTLOADABLE  
CySpcGetAlgorithm. . . . . . . . . . . . CODE     CYSPC  CYFLASH  
CySpcLock. . . . . . . . . . . . . . . . CODE     CYSPC  CYFLASH  EEPROM  
CySpcStart . . . . . . . . . . . . . . . CODE     CYSPC  CYFLASH  EEPROM  
CySpcStop. . . . . . . . . . . . . . . . CODE     CYSPC  
CySpcUnlock. . . . . . . . . . . . . . . CODE     CYSPC  CYFLASH  EEPROM  
CyVdHvAnalogDisable. . . . . . . . . . . CODE     CYLIB  CYPM  
CyVdHvAnalogEnable . . . . . . . . . . . CODE     CYLIB  CYPM  
CyVdLvAnalogDisable. . . . . . . . . . . CODE     CYLIB  CYPM  
CyVdLvDigitDisable . . . . . . . . . . . CODE     CYLIB  CYPM  
CyVdRealTimeStatus . . . . . . . . . . . CODE     CYLIB  
CyWdtClear . . . . . . . . . . . . . . . CODE     CYLIB  
CyXTAL_32KHZ_ReadStatus. . . . . . . . . CODE     CYLIB  
CyXTAL_32KHZ_Start . . . . . . . . . . . CODE     CYLIB  CYPM  
CyXTAL_32KHZ_Stop. . . . . . . . . . . . CODE     CYLIB  
CyXTAL_DisableErrStatus. . . . . . . . . CODE     CYLIB  
CyXTAL_DisableFaultRecovery. . . . . . . CODE     CYLIB  
CyXTAL_EnableErrStatus . . . . . . . . . CODE     CYLIB  
CyXTAL_EnableFaultRecovery . . . . . . . CODE     CYLIB  
CyXTAL_ReadStatus. . . . . . . . . . . . CODE     CYLIB  
CyXTAL_Stop. . . . . . . . . . . . . . . CODE     CYLIB  CYPM  
dev_pwm_limit. . . . . . . . . . . . . . XDATA    GLOBALS  COMMAND_PROCESSING  INTERRUPTIONS  MAIN  
dev_tension. . . . . . . . . . . . . . . XDATA    GLOBALS  COMMAND_PROCESSING  INTERRUPTIONS  
dieTemperature . . . . . . . . . . . . . XDATA    CYFLASH  EEPROM  
DMA_DmaHandle. . . . . . . . . . . . . . XDATA    DMA_DMA  
DMA_DmaRelease . . . . . . . . . . . . . CODE     DMA_DMA  
DPH. . . . . . . . . . . . . . . . . . . DATA     COMMAND_PROCESSING  
DPH1 . . . . . . . . . . . . . . . . . . DATA     COMMAND_PROCESSING  
DPL. . . . . . . . . . . . . . . . . . . DATA     COMMAND_PROCESSING  
DPL1 . . . . . . . . . . . . . . . . . . DATA     COMMAND_PROCESSING  
DPS. . . . . . . . . . . . . . . . . . . DATA     COMMAND_PROCESSING  
DPX. . . . . . . . . . . . . . . . . . . DATA     COMMAND_PROCESSING  
DPX1 . . . . . . . . . . . . . . . . . . DATA     COMMAND_PROCESSING  
EA . . . . . . . . . . . . . . . . . . . DATA     COMMAND_PROCESSING  
EEPROM_ADDR. . . . . . . . . . . . . . . XDATA    COMMAND_PROCESSING  
EEPROM_Enable. . . . . . . . . . . . . . CODE     EEPROM  
EEPROM_Query . . . . . . . . . . . . . . CODE     EEPROM  
EEPROM_Start . . . . . . . . . . . . . . CODE     EEPROM  MAIN  
EEPROM_Stop. . . . . . . . . . . . . . . CODE     EEPROM  
EEPROM_UpdateTemperature . . . . . . . . CODE     EEPROM  COMMAND_PROCESSING  
F0 . . . . . . . . . . . . . . . . . . . DATA     COMMAND_PROCESSING  
F1 . . . . . . . . . . . . . . . . . . . DATA     COMMAND_PROCESSING  
FF_STATUS_InterruptDisable . . . . . . . CODE     FF_STATUS  
FF_STATUS_InterruptEnable. . . . . . . . CODE     FF_STATUS  
FF_STATUS_Read . . . . . . . . . . . . . CODE     FF_STATUS  MAIN  
FF_STATUS_ReadMask . . . . . . . . . . . CODE     FF_STATUS  
FTDI_ENABLE_REG_Read . . . . . . . . . . CODE     FTDI_ENABLE_REG  
function_scheduler . . . . . . . . . . . CODE     INTERRUPTIONS  MAIN  
g_count. . . . . . . . . . . . . . . . . XDATA    GLOBALS  COMMAND_PROCESSING  UTILS  
LX51 LINKER/LOCATER V4.64.0.0                                                         01/11/2017  18:17:27  PAGE 150


g_meas . . . . . . . . . . . . . . . . . XDATA    GLOBALS  COMMAND_PROCESSING  INTERRUPTIONS  MAIN  
g_measOld. . . . . . . . . . . . . . . . XDATA    GLOBALS  COMMAND_PROCESSING  INTERRUPTIONS  
g_mem. . . . . . . . . . . . . . . . . . XDATA    GLOBALS  COMMAND_PROCESSING  INTERRUPTIONS  MAIN  
g_ref. . . . . . . . . . . . . . . . . . XDATA    GLOBALS  COMMAND_PROCESSING  INTERRUPTIONS  MAIN  
g_refNew . . . . . . . . . . . . . . . . XDATA    GLOBALS  COMMAND_PROCESSING  INTERRUPTIONS  MAIN  
g_refOld . . . . . . . . . . . . . . . . XDATA    GLOBALS  COMMAND_PROCESSING  INTERRUPTIONS  
g_rx . . . . . . . . . . . . . . . . . . XDATA    GLOBALS  COMMAND_PROCESSING  INTERRUPTIONS  MAIN  
IE . . . . . . . . . . . . . . . . . . . DATA     COMMAND_PROCESSING  
interrupt_flag . . . . . . . . . . . . . BIT      GLOBALS  INTERRUPTIONS  MAIN  
interrupt_manager. . . . . . . . . . . . CODE     INTERRUPTIONS  MAIN  
ISR_RS485_RX_ClearPending. . . . . . . . CODE     ISR_RS485_RX  
ISR_RS485_RX_Disable . . . . . . . . . . CODE     ISR_RS485_RX  INTERRUPTIONS  
ISR_RS485_RX_Enable. . . . . . . . . . . CODE     ISR_RS485_RX  INTERRUPTIONS  
ISR_RS485_RX_ExInterrupt . . . . . . . . CODE     INTERRUPTIONS  MAIN  
ISR_RS485_RX_GetPriority . . . . . . . . CODE     ISR_RS485_RX  
ISR_RS485_RX_GetState. . . . . . . . . . CODE     ISR_RS485_RX  
ISR_RS485_RX_GetVector . . . . . . . . . CODE     ISR_RS485_RX  
ISR_RS485_RX_Interrupt . . . . . . . . . CODE     ISR_RS485_RX  
ISR_RS485_RX_SetPending. . . . . . . . . CODE     ISR_RS485_RX  
ISR_RS485_RX_Start . . . . . . . . . . . CODE     ISR_RS485_RX  
ISR_RS485_RX_Stop. . . . . . . . . . . . CODE     ISR_RS485_RX  
ISR_WATCHDOG_ClearPending. . . . . . . . CODE     ISR_WATCHDOG  
ISR_WATCHDOG_Disable . . . . . . . . . . CODE     ISR_WATCHDOG  
ISR_WATCHDOG_Enable. . . . . . . . . . . CODE     ISR_WATCHDOG  
ISR_WATCHDOG_GetPriority . . . . . . . . CODE     ISR_WATCHDOG  
ISR_WATCHDOG_GetState. . . . . . . . . . CODE     ISR_WATCHDOG  
ISR_WATCHDOG_GetVector . . . . . . . . . CODE     ISR_WATCHDOG  
ISR_WATCHDOG_Handler . . . . . . . . . . CODE     INTERRUPTIONS  MAIN  
ISR_WATCHDOG_Interrupt . . . . . . . . . CODE     ISR_WATCHDOG  
ISR_WATCHDOG_SetPending. . . . . . . . . CODE     ISR_WATCHDOG  
ISR_WATCHDOG_Start . . . . . . . . . . . CODE     ISR_WATCHDOG  
ISR_WATCHDOG_Stop. . . . . . . . . . . . CODE     ISR_WATCHDOG  
main . . . . . . . . . . . . . . . . . . CODE     MAIN  ?C_INIT  
memInit. . . . . . . . . . . . . . . . . CODE     COMMAND_PROCESSING  
memRecall. . . . . . . . . . . . . . . . CODE     COMMAND_PROCESSING  MAIN  
memRestore . . . . . . . . . . . . . . . CODE     COMMAND_PROCESSING  
MOTOR_DIR_Read . . . . . . . . . . . . . CODE     MOTOR_DIR  
MOTOR_ON_OFF_Read. . . . . . . . . . . . CODE     MOTOR_ON_OFF  
MXAX . . . . . . . . . . . . . . . . . . DATA     COMMAND_PROCESSING  
MY_TIMER_Enable. . . . . . . . . . . . . CODE     MY_TIMER  
MY_TIMER_Init. . . . . . . . . . . . . . CODE     MY_TIMER  
MY_TIMER_initVar . . . . . . . . . . . . XDATA    MY_TIMER  
MY_TIMER_ReadCapture . . . . . . . . . . CODE     MY_TIMER  
MY_TIMER_ReadControlRegister . . . . . . CODE     MY_TIMER  
MY_TIMER_ReadCounter . . . . . . . . . . CODE     MY_TIMER  INTERRUPTIONS  
MY_TIMER_ReadPeriod. . . . . . . . . . . CODE     MY_TIMER  
MY_TIMER_ReadStatusRegister. . . . . . . CODE     MY_TIMER  
MY_TIMER_SoftwareCapture . . . . . . . . CODE     MY_TIMER  
MY_TIMER_Start . . . . . . . . . . . . . CODE     MY_TIMER  MAIN  
MY_TIMER_Stop. . . . . . . . . . . . . . CODE     MY_TIMER  
OV . . . . . . . . . . . . . . . . . . . DATA     COMMAND_PROCESSING  
P. . . . . . . . . . . . . . . . . . . . DATA     COMMAND_PROCESSING  
P2AX . . . . . . . . . . . . . . . . . . DATA     COMMAND_PROCESSING  
PACER_TIMER_Enable . . . . . . . . . . . CODE     PACER_TIMER  
PACER_TIMER_Init . . . . . . . . . . . . CODE     PACER_TIMER  
PACER_TIMER_initVar. . . . . . . . . . . XDATA    PACER_TIMER  
PACER_TIMER_ReadCapture. . . . . . . . . CODE     PACER_TIMER  
PACER_TIMER_ReadControlRegister. . . . . CODE     PACER_TIMER  
PACER_TIMER_ReadCounter. . . . . . . . . CODE     PACER_TIMER  
PACER_TIMER_ReadPeriod . . . . . . . . . CODE     PACER_TIMER  
PACER_TIMER_ReadStatusRegister . . . . . CODE     PACER_TIMER  
PACER_TIMER_SoftwareCapture. . . . . . . CODE     PACER_TIMER  
PACER_TIMER_Start. . . . . . . . . . . . CODE     PACER_TIMER  MAIN  
PACER_TIMER_Stop . . . . . . . . . . . . CODE     PACER_TIMER  
POWER_ON_LED_REG_Read. . . . . . . . . . CODE     POWER_ON_LED_REG  
LX51 LINKER/LOCATER V4.64.0.0                                                         01/11/2017  18:17:27  PAGE 151


PSW. . . . . . . . . . . . . . . . . . . DATA     COMMAND_PROCESSING  
pwm_limit_search . . . . . . . . . . . . CODE     INTERRUPTIONS  
PWM_MOTORS_Enable. . . . . . . . . . . . CODE     PWM_MOTORS  
PWM_MOTORS_Init. . . . . . . . . . . . . CODE     PWM_MOTORS  
PWM_MOTORS_initVar . . . . . . . . . . . XDATA    PWM_MOTORS  
PWM_MOTORS_ReadCapture . . . . . . . . . CODE     PWM_MOTORS  
PWM_MOTORS_ReadCompare1. . . . . . . . . CODE     PWM_MOTORS  
PWM_MOTORS_ReadCompare2. . . . . . . . . CODE     PWM_MOTORS  
PWM_MOTORS_ReadControlRegister . . . . . CODE     PWM_MOTORS  
PWM_MOTORS_ReadCounter . . . . . . . . . CODE     PWM_MOTORS  
PWM_MOTORS_ReadPeriod. . . . . . . . . . CODE     PWM_MOTORS  
PWM_MOTORS_Start . . . . . . . . . . . . CODE     PWM_MOTORS  MAIN  
PWM_MOTORS_Stop. . . . . . . . . . . . . CODE     PWM_MOTORS  
pwm_sign . . . . . . . . . . . . . . . . XDATA    GLOBALS  INTERRUPTIONS  
reset_counters . . . . . . . . . . . . . CODE     UTILS  MAIN  
RESET_COUNTERS_Read. . . . . . . . . . . CODE     RESET_COUNTERS  
RESET_FF_Read. . . . . . . . . . . . . . CODE     RESET_FF  
reset_last_value_flag. . . . . . . . . . BIT      GLOBALS  COMMAND_PROCESSING  INTERRUPTIONS  MAIN  
RS0. . . . . . . . . . . . . . . . . . . DATA     COMMAND_PROCESSING  
RS1. . . . . . . . . . . . . . . . . . . DATA     COMMAND_PROCESSING  
RS485_CTS_Read . . . . . . . . . . . . . CODE     RS485_CTS  
setZeros . . . . . . . . . . . . . . . . CODE     COMMAND_PROCESSING  
SFRPRT0DR. . . . . . . . . . . . . . . . DATA     COMMAND_PROCESSING  
SFRPRT0PS. . . . . . . . . . . . . . . . DATA     COMMAND_PROCESSING  
SFRPRT0SEL . . . . . . . . . . . . . . . DATA     COMMAND_PROCESSING  
SFRPRT12DR . . . . . . . . . . . . . . . DATA     COMMAND_PROCESSING  
SFRPRT12PS . . . . . . . . . . . . . . . DATA     COMMAND_PROCESSING  
SFRPRT12SEL. . . . . . . . . . . . . . . DATA     COMMAND_PROCESSING  
SFRPRT15DR . . . . . . . . . . . . . . . DATA     COMMAND_PROCESSING  
SFRPRT15PS . . . . . . . . . . . . . . . DATA     COMMAND_PROCESSING  
SFRPRT15SEL. . . . . . . . . . . . . . . DATA     COMMAND_PROCESSING  
SFRPRT1DR. . . . . . . . . . . . . . . . DATA     COMMAND_PROCESSING  
SFRPRT1PS. . . . . . . . . . . . . . . . DATA     COMMAND_PROCESSING  
SFRPRT1SEL . . . . . . . . . . . . . . . DATA     COMMAND_PROCESSING  
SFRPRT2DR. . . . . . . . . . . . . . . . DATA     COMMAND_PROCESSING  
SFRPRT2PS. . . . . . . . . . . . . . . . DATA     COMMAND_PROCESSING  
SFRPRT2SEL . . . . . . . . . . . . . . . DATA     COMMAND_PROCESSING  
SFRPRT3DR. . . . . . . . . . . . . . . . DATA     COMMAND_PROCESSING  
SFRPRT3PS. . . . . . . . . . . . . . . . DATA     COMMAND_PROCESSING  
SFRPRT3SEL . . . . . . . . . . . . . . . DATA     COMMAND_PROCESSING  
SFRPRT4DR. . . . . . . . . . . . . . . . DATA     COMMAND_PROCESSING  
SFRPRT4PS. . . . . . . . . . . . . . . . DATA     COMMAND_PROCESSING  
SFRPRT4SEL . . . . . . . . . . . . . . . DATA     COMMAND_PROCESSING  
SFRPRT5DR. . . . . . . . . . . . . . . . DATA     COMMAND_PROCESSING  
SFRPRT5PS. . . . . . . . . . . . . . . . DATA     COMMAND_PROCESSING  
SFRPRT5SEL . . . . . . . . . . . . . . . DATA     COMMAND_PROCESSING  
SFRPRT6DR. . . . . . . . . . . . . . . . DATA     COMMAND_PROCESSING  
SFRPRT6PS. . . . . . . . . . . . . . . . DATA     COMMAND_PROCESSING  
SFRPRT6SEL . . . . . . . . . . . . . . . DATA     COMMAND_PROCESSING  
SHIFTREG_ENC_1_DisableInt. . . . . . . . CODE     SHIFTREG_ENC_1  
SHIFTREG_ENC_1_Enable. . . . . . . . . . CODE     SHIFTREG_ENC_1  
SHIFTREG_ENC_1_EnableInt . . . . . . . . CODE     SHIFTREG_ENC_1  
SHIFTREG_ENC_1_GetIntStatus. . . . . . . CODE     SHIFTREG_ENC_1  
SHIFTREG_ENC_1_Init. . . . . . . . . . . CODE     SHIFTREG_ENC_1  
SHIFTREG_ENC_1_initVar . . . . . . . . . XDATA    SHIFTREG_ENC_1  
SHIFTREG_ENC_1_ReadData. . . . . . . . . CODE     SHIFTREG_ENC_1  INTERRUPTIONS  
SHIFTREG_ENC_1_ReadRegValue. . . . . . . CODE     SHIFTREG_ENC_1  
SHIFTREG_ENC_1_Start . . . . . . . . . . CODE     SHIFTREG_ENC_1  MAIN  
SHIFTREG_ENC_1_Stop. . . . . . . . . . . CODE     SHIFTREG_ENC_1  
SHIFTREG_ENC_2_DisableInt. . . . . . . . CODE     SHIFTREG_ENC_2  
SHIFTREG_ENC_2_Enable. . . . . . . . . . CODE     SHIFTREG_ENC_2  
SHIFTREG_ENC_2_EnableInt . . . . . . . . CODE     SHIFTREG_ENC_2  
SHIFTREG_ENC_2_GetIntStatus. . . . . . . CODE     SHIFTREG_ENC_2  
SHIFTREG_ENC_2_Init. . . . . . . . . . . CODE     SHIFTREG_ENC_2  
SHIFTREG_ENC_2_initVar . . . . . . . . . XDATA    SHIFTREG_ENC_2  
LX51 LINKER/LOCATER V4.64.0.0                                                         01/11/2017  18:17:27  PAGE 152


SHIFTREG_ENC_2_ReadData. . . . . . . . . CODE     SHIFTREG_ENC_2  INTERRUPTIONS  
SHIFTREG_ENC_2_ReadRegValue. . . . . . . CODE     SHIFTREG_ENC_2  
SHIFTREG_ENC_2_Start . . . . . . . . . . CODE     SHIFTREG_ENC_2  MAIN  
SHIFTREG_ENC_2_Stop. . . . . . . . . . . CODE     SHIFTREG_ENC_2  
SHIFTREG_ENC_3_DisableInt. . . . . . . . CODE     SHIFTREG_ENC_3  
SHIFTREG_ENC_3_Enable. . . . . . . . . . CODE     SHIFTREG_ENC_3  
SHIFTREG_ENC_3_EnableInt . . . . . . . . CODE     SHIFTREG_ENC_3  
SHIFTREG_ENC_3_GetIntStatus. . . . . . . CODE     SHIFTREG_ENC_3  
SHIFTREG_ENC_3_Init. . . . . . . . . . . CODE     SHIFTREG_ENC_3  
SHIFTREG_ENC_3_initVar . . . . . . . . . XDATA    SHIFTREG_ENC_3  
SHIFTREG_ENC_3_ReadData. . . . . . . . . CODE     SHIFTREG_ENC_3  INTERRUPTIONS  
SHIFTREG_ENC_3_ReadRegValue. . . . . . . CODE     SHIFTREG_ENC_3  
SHIFTREG_ENC_3_Start . . . . . . . . . . CODE     SHIFTREG_ENC_3  MAIN  
SHIFTREG_ENC_3_Stop. . . . . . . . . . . CODE     SHIFTREG_ENC_3  
SHIFTREG_ENC_4_DisableInt. . . . . . . . CODE     SHIFTREG_ENC_4  
SHIFTREG_ENC_4_Enable. . . . . . . . . . CODE     SHIFTREG_ENC_4  
SHIFTREG_ENC_4_EnableInt . . . . . . . . CODE     SHIFTREG_ENC_4  
SHIFTREG_ENC_4_GetIntStatus. . . . . . . CODE     SHIFTREG_ENC_4  
SHIFTREG_ENC_4_Init. . . . . . . . . . . CODE     SHIFTREG_ENC_4  
SHIFTREG_ENC_4_initVar . . . . . . . . . XDATA    SHIFTREG_ENC_4  
SHIFTREG_ENC_4_ReadData. . . . . . . . . CODE     SHIFTREG_ENC_4  INTERRUPTIONS  
SHIFTREG_ENC_4_ReadRegValue. . . . . . . CODE     SHIFTREG_ENC_4  
SHIFTREG_ENC_4_Start . . . . . . . . . . CODE     SHIFTREG_ENC_4  MAIN  
SHIFTREG_ENC_4_Stop. . . . . . . . . . . CODE     SHIFTREG_ENC_4  
SHIFTREG_ENC_5_DisableInt. . . . . . . . CODE     SHIFTREG_ENC_5  
SHIFTREG_ENC_5_Enable. . . . . . . . . . CODE     SHIFTREG_ENC_5  
SHIFTREG_ENC_5_EnableInt . . . . . . . . CODE     SHIFTREG_ENC_5  
SHIFTREG_ENC_5_GetIntStatus. . . . . . . CODE     SHIFTREG_ENC_5  
SHIFTREG_ENC_5_Init. . . . . . . . . . . CODE     SHIFTREG_ENC_5  
SHIFTREG_ENC_5_initVar . . . . . . . . . XDATA    SHIFTREG_ENC_5  
SHIFTREG_ENC_5_ReadData. . . . . . . . . CODE     SHIFTREG_ENC_5  INTERRUPTIONS  
SHIFTREG_ENC_5_ReadRegValue. . . . . . . CODE     SHIFTREG_ENC_5  
SHIFTREG_ENC_5_Start . . . . . . . . . . CODE     SHIFTREG_ENC_5  MAIN  
SHIFTREG_ENC_5_Stop. . . . . . . . . . . CODE     SHIFTREG_ENC_5  
SHIFTREG_ENC_6_DisableInt. . . . . . . . CODE     SHIFTREG_ENC_6  
SHIFTREG_ENC_6_Enable. . . . . . . . . . CODE     SHIFTREG_ENC_6  
SHIFTREG_ENC_6_EnableInt . . . . . . . . CODE     SHIFTREG_ENC_6  
SHIFTREG_ENC_6_GetIntStatus. . . . . . . CODE     SHIFTREG_ENC_6  
SHIFTREG_ENC_6_Init. . . . . . . . . . . CODE     SHIFTREG_ENC_6  
SHIFTREG_ENC_6_initVar . . . . . . . . . XDATA    SHIFTREG_ENC_6  
SHIFTREG_ENC_6_ReadData. . . . . . . . . CODE     SHIFTREG_ENC_6  INTERRUPTIONS  
SHIFTREG_ENC_6_ReadRegValue. . . . . . . CODE     SHIFTREG_ENC_6  
SHIFTREG_ENC_6_Start . . . . . . . . . . CODE     SHIFTREG_ENC_6  MAIN  
SHIFTREG_ENC_6_Stop. . . . . . . . . . . CODE     SHIFTREG_ENC_6  
SP . . . . . . . . . . . . . . . . . . . DATA     COMMAND_PROCESSING  
SpcLockState . . . . . . . . . . . . . . XDATA    CYSPC  
STARTUP1 . . . . . . . . . . . . . . . . CODE     ?C_STARTUP  
tension_valid. . . . . . . . . . . . . . BIT      GLOBALS  INTERRUPTIONS  MAIN  
timer_value. . . . . . . . . . . . . . . XDATA    GLOBALS  COMMAND_PROCESSING  INTERRUPTIONS  
timer_value0 . . . . . . . . . . . . . . XDATA    GLOBALS  COMMAND_PROCESSING  INTERRUPTIONS  
UART_RS485_ClearRxBuffer . . . . . . . . CODE     UART_RS485  MAIN  
UART_RS485_ClearTxBuffer . . . . . . . . CODE     UART_RS485  COMMAND_PROCESSING  MAIN  
UART_RS485_Enable. . . . . . . . . . . . CODE     UART_RS485  
UART_RS485_errorStatus . . . . . . . . . XDATA    UART_RS485  UART_RS485_INT  
UART_RS485_GetByte . . . . . . . . . . . CODE     UART_RS485  
UART_RS485_GetChar . . . . . . . . . . . CODE     UART_RS485  INTERRUPTIONS  
UART_RS485_GetRxBufferSize . . . . . . . CODE     UART_RS485  INTERRUPTIONS  
UART_RS485_GetTxBufferSize . . . . . . . CODE     UART_RS485  
UART_RS485_Init. . . . . . . . . . . . . CODE     UART_RS485  MAIN  
UART_RS485_initVar . . . . . . . . . . . XDATA    UART_RS485  
UART_RS485_ReadControlRegister . . . . . CODE     UART_RS485  
UART_RS485_ReadRxData. . . . . . . . . . CODE     UART_RS485  
UART_RS485_ReadRxStatus. . . . . . . . . CODE     UART_RS485  MAIN  
UART_RS485_ReadTxStatus. . . . . . . . . CODE     UART_RS485  COMMAND_PROCESSING  
UART_RS485_rxBuffer. . . . . . . . . . . XDATA    UART_RS485  UART_RS485_INT  
LX51 LINKER/LOCATER V4.64.0.0                                                         01/11/2017  18:17:27  PAGE 153


UART_RS485_rxBufferLoopDetect. . . . . . XDATA    UART_RS485  UART_RS485_INT  
UART_RS485_rxBufferOverflow. . . . . . . XDATA    UART_RS485  UART_RS485_INT  
UART_RS485_rxBufferRead. . . . . . . . . XDATA    UART_RS485  UART_RS485_INT  
UART_RS485_rxBufferWrite . . . . . . . . XDATA    UART_RS485  UART_RS485_INT  
UART_RS485_RXISR . . . . . . . . . . . . CODE     UART_RS485_INT  UART_RS485  
UART_RS485_Start . . . . . . . . . . . . CODE     UART_RS485  MAIN  
UART_RS485_Stop. . . . . . . . . . . . . CODE     UART_RS485  MAIN  
WATCHDOG_COUNTER_Enable. . . . . . . . . CODE     WATCHDOG_COUNTER  
WATCHDOG_COUNTER_Init. . . . . . . . . . CODE     WATCHDOG_COUNTER  
WATCHDOG_COUNTER_initVar . . . . . . . . XDATA    WATCHDOG_COUNTER  
WATCHDOG_COUNTER_ReadCapture . . . . . . CODE     WATCHDOG_COUNTER  
WATCHDOG_COUNTER_ReadControlRegister . . CODE     WATCHDOG_COUNTER  
WATCHDOG_COUNTER_ReadCounter . . . . . . CODE     WATCHDOG_COUNTER  
WATCHDOG_COUNTER_ReadPeriod. . . . . . . CODE     WATCHDOG_COUNTER  
WATCHDOG_COUNTER_ReadStatusRegister. . . CODE     WATCHDOG_COUNTER  
WATCHDOG_COUNTER_Start . . . . . . . . . CODE     WATCHDOG_COUNTER  MAIN  
WATCHDOG_COUNTER_Stop. . . . . . . . . . CODE     WATCHDOG_COUNTER  
WATCHDOG_ENABLER_Read. . . . . . . . . . CODE     WATCHDOG_ENABLER  
watchdog_flag. . . . . . . . . . . . . . BIT      GLOBALS  INTERRUPTIONS  MAIN  
WATCHDOG_REFRESH_Read. . . . . . . . . . CODE     WATCHDOG_REFRESH  

Program Size: data=112.1 xdata=3458 const=3047 code=35477
LX51 RUN COMPLETE.  0 WARNING(S),  0 ERROR(S)
